ARM GAS  C:\Users\behun\AppData\Local\Temp\cczfzgV9.s 			page 1


   1              		.cpu cortex-m3
   2              		.eabi_attribute 20, 1
   3              		.eabi_attribute 21, 1
   4              		.eabi_attribute 23, 3
   5              		.eabi_attribute 24, 1
   6              		.eabi_attribute 25, 1
   7              		.eabi_attribute 26, 1
   8              		.eabi_attribute 30, 1
   9              		.eabi_attribute 34, 1
  10              		.eabi_attribute 18, 4
  11              		.file	"buzzer.c"
  12              		.text
  13              	.Ltext0:
  14              		.cfi_sections	.debug_frame
  15              		.section	.text.buzzer_short_beep,"ax",%progbits
  16              		.align	1
  17              		.global	buzzer_short_beep
  18              		.arch armv7-m
  19              		.syntax unified
  20              		.thumb
  21              		.thumb_func
  22              		.fpu softvfp
  24              	buzzer_short_beep:
  25              	.LFB66:
  26              		.file 1 "Src/buzzer.c"
   1:Src/buzzer.c  **** #include "buzzer.h"
   2:Src/buzzer.c  **** #include "key.h"
   3:Src/buzzer.c  **** 
   4:Src/buzzer.c  **** extern BUZZER_T buzzer;
   5:Src/buzzer.c  **** 
   6:Src/buzzer.c  **** void buzzer_short_beep(void)
   7:Src/buzzer.c  **** {
  27              		.loc 1 7 1 view -0
  28              		.cfi_startproc
  29              		@ args = 0, pretend = 0, frame = 0
  30              		@ frame_needed = 0, uses_anonymous_args = 0
  31 0000 08B5     		push	{r3, lr}
  32              	.LCFI0:
  33              		.cfi_def_cfa_offset 8
  34              		.cfi_offset 3, -8
  35              		.cfi_offset 14, -4
   8:Src/buzzer.c  **** 	buzzer.state = STATE_SB;
  36              		.loc 1 8 2 view .LVU1
  37              		.loc 1 8 15 is_stmt 0 view .LVU2
  38 0002 054B     		ldr	r3, .L3
  39 0004 0022     		movs	r2, #0
  40 0006 1A71     		strb	r2, [r3, #4]
   9:Src/buzzer.c  **** 	BUZZER_ON();
  41              		.loc 1 9 2 is_stmt 1 view .LVU3
  42 0008 0122     		movs	r2, #1
  43 000a 4FF48071 		mov	r1, #256
  44 000e 0348     		ldr	r0, .L3+4
  45 0010 FFF7FEFF 		bl	HAL_GPIO_WritePin
  46              	.LVL0:
  10:Src/buzzer.c  **** }
  47              		.loc 1 10 1 is_stmt 0 view .LVU4
  48 0014 08BD     		pop	{r3, pc}
ARM GAS  C:\Users\behun\AppData\Local\Temp\cczfzgV9.s 			page 2


  49              	.L4:
  50 0016 00BF     		.align	2
  51              	.L3:
  52 0018 00000000 		.word	buzzer
  53 001c 000C0140 		.word	1073810432
  54              		.cfi_endproc
  55              	.LFE66:
  57              		.section	.text.buzzer_long_beep,"ax",%progbits
  58              		.align	1
  59              		.global	buzzer_long_beep
  60              		.syntax unified
  61              		.thumb
  62              		.thumb_func
  63              		.fpu softvfp
  65              	buzzer_long_beep:
  66              	.LFB67:
  11:Src/buzzer.c  **** 
  12:Src/buzzer.c  **** void buzzer_long_beep(void)
  13:Src/buzzer.c  **** {
  67              		.loc 1 13 1 is_stmt 1 view -0
  68              		.cfi_startproc
  69              		@ args = 0, pretend = 0, frame = 0
  70              		@ frame_needed = 0, uses_anonymous_args = 0
  71 0000 08B5     		push	{r3, lr}
  72              	.LCFI1:
  73              		.cfi_def_cfa_offset 8
  74              		.cfi_offset 3, -8
  75              		.cfi_offset 14, -4
  14:Src/buzzer.c  **** 	buzzer.state = STATE_LB;
  76              		.loc 1 14 2 view .LVU6
  77              		.loc 1 14 15 is_stmt 0 view .LVU7
  78 0002 0122     		movs	r2, #1
  79 0004 034B     		ldr	r3, .L7
  80 0006 1A71     		strb	r2, [r3, #4]
  15:Src/buzzer.c  **** 	BUZZER_ON();
  81              		.loc 1 15 2 is_stmt 1 view .LVU8
  82 0008 4FF48071 		mov	r1, #256
  83 000c 0248     		ldr	r0, .L7+4
  84 000e FFF7FEFF 		bl	HAL_GPIO_WritePin
  85              	.LVL1:
  16:Src/buzzer.c  **** }
  86              		.loc 1 16 1 is_stmt 0 view .LVU9
  87 0012 08BD     		pop	{r3, pc}
  88              	.L8:
  89              		.align	2
  90              	.L7:
  91 0014 00000000 		.word	buzzer
  92 0018 000C0140 		.word	1073810432
  93              		.cfi_endproc
  94              	.LFE67:
  96              		.section	.text.buzzer_alarm_start,"ax",%progbits
  97              		.align	1
  98              		.global	buzzer_alarm_start
  99              		.syntax unified
 100              		.thumb
 101              		.thumb_func
 102              		.fpu softvfp
ARM GAS  C:\Users\behun\AppData\Local\Temp\cczfzgV9.s 			page 3


 104              	buzzer_alarm_start:
 105              	.LFB68:
  17:Src/buzzer.c  **** 
  18:Src/buzzer.c  **** void buzzer_alarm_start(void)
  19:Src/buzzer.c  **** {
 106              		.loc 1 19 1 is_stmt 1 view -0
 107              		.cfi_startproc
 108              		@ args = 0, pretend = 0, frame = 0
 109              		@ frame_needed = 0, uses_anonymous_args = 0
 110              		@ link register save eliminated.
  20:Src/buzzer.c  **** 	buzzer.state = STATE_AL;
 111              		.loc 1 20 2 view .LVU11
 112              		.loc 1 20 15 is_stmt 0 view .LVU12
 113 0000 014B     		ldr	r3, .L10
 114 0002 0222     		movs	r2, #2
 115 0004 1A71     		strb	r2, [r3, #4]
  21:Src/buzzer.c  **** }
 116              		.loc 1 21 1 view .LVU13
 117 0006 7047     		bx	lr
 118              	.L11:
 119              		.align	2
 120              	.L10:
 121 0008 00000000 		.word	buzzer
 122              		.cfi_endproc
 123              	.LFE68:
 125              		.section	.text.handle_buzzer,"ax",%progbits
 126              		.align	1
 127              		.global	handle_buzzer
 128              		.syntax unified
 129              		.thumb
 130              		.thumb_func
 131              		.fpu softvfp
 133              	handle_buzzer:
 134              	.LFB69:
  22:Src/buzzer.c  **** 
  23:Src/buzzer.c  **** // void buzzer_alarm_stop(void)
  24:Src/buzzer.c  **** // {
  25:Src/buzzer.c  **** // 	buzzer.state = STATE_IDLE;
  26:Src/buzzer.c  **** // 	BUZZER_OFF();
  27:Src/buzzer.c  **** // }
  28:Src/buzzer.c  **** 
  29:Src/buzzer.c  **** void handle_buzzer(void)
  30:Src/buzzer.c  **** {
 135              		.loc 1 30 1 is_stmt 1 view -0
 136              		.cfi_startproc
 137              		@ args = 0, pretend = 0, frame = 0
 138              		@ frame_needed = 0, uses_anonymous_args = 0
 139 0000 08B5     		push	{r3, lr}
 140              	.LCFI2:
 141              		.cfi_def_cfa_offset 8
 142              		.cfi_offset 3, -8
 143              		.cfi_offset 14, -4
  31:Src/buzzer.c  **** 	uint32_t delta = HAL_GetTick() - buzzer.tick;
 144              		.loc 1 31 2 view .LVU15
 145              		.loc 1 31 19 is_stmt 0 view .LVU16
 146 0002 FFF7FEFF 		bl	HAL_GetTick
 147              	.LVL2:
ARM GAS  C:\Users\behun\AppData\Local\Temp\cczfzgV9.s 			page 4


 148              		.loc 1 31 41 view .LVU17
 149 0006 244A     		ldr	r2, .L18
 150 0008 1368     		ldr	r3, [r2]
 151              		.loc 1 31 11 view .LVU18
 152 000a C01A     		subs	r0, r0, r3
 153              	.LVL3:
  32:Src/buzzer.c  **** 	switch (buzzer.state)
 154              		.loc 1 32 2 is_stmt 1 view .LVU19
 155              		.loc 1 32 16 is_stmt 0 view .LVU20
 156 000c 1379     		ldrb	r3, [r2, #4]	@ zero_extendqisi2
 157              		.loc 1 32 2 view .LVU21
 158 000e 012B     		cmp	r3, #1
 159 0010 15D0     		beq	.L13
 160 0012 5AB2     		sxtb	r2, r3
 161 0014 12B1     		cbz	r2, .L14
 162 0016 022B     		cmp	r3, #2
 163 0018 23D0     		beq	.L15
 164              	.LVL4:
 165              	.L12:
  33:Src/buzzer.c  **** 	{
  34:Src/buzzer.c  **** 	case STATE_SB:
  35:Src/buzzer.c  **** 		if ((delta > SHORT_BEEP) && buzzer.short_Status)
  36:Src/buzzer.c  **** 		{
  37:Src/buzzer.c  **** 			BUZZER_OFF();
  38:Src/buzzer.c  **** 			buzzer.short_Status = 0;
  39:Src/buzzer.c  **** 			// printf("Short_Buzzer is off , %d ms\n", delta);
  40:Src/buzzer.c  **** 		}
  41:Src/buzzer.c  **** 		break;
  42:Src/buzzer.c  **** 	case STATE_LB:
  43:Src/buzzer.c  **** 		if ((delta > LONG_BEEP) && buzzer.long_Status)
  44:Src/buzzer.c  **** 		{
  45:Src/buzzer.c  **** 			BUZZER_OFF();
  46:Src/buzzer.c  **** 			buzzer.long_Status = 0;
  47:Src/buzzer.c  **** 			// printf("Long_Buzzer is off, %d ms \n", delta);
  48:Src/buzzer.c  **** 		}
  49:Src/buzzer.c  **** 		break;
  50:Src/buzzer.c  **** 	case STATE_AL:
  51:Src/buzzer.c  **** 		if ((delta > ALARM) && buzzer.alarm_Status)
  52:Src/buzzer.c  **** 		{
  53:Src/buzzer.c  **** 			BUZZER_TOGGLE();
  54:Src/buzzer.c  **** 			buzzer.tick = HAL_GetTick();
  55:Src/buzzer.c  **** 			buzzer.cnt++;
  56:Src/buzzer.c  **** 			// printf("Alarm_Buzzer is toggling, t = %d\n", buzzer.cnt);
  57:Src/buzzer.c  **** 			if (buzzer.cnt >= 15) // Setup time buzzer toggle
  58:Src/buzzer.c  **** 			{
  59:Src/buzzer.c  **** 				buzzer.alarm_Status = 0;
  60:Src/buzzer.c  **** 				// printf("Alarm_Buzzer is off, t= %d \n", buzzer.cnt);
  61:Src/buzzer.c  **** 			}
  62:Src/buzzer.c  **** 		}
  63:Src/buzzer.c  **** 		break;
  64:Src/buzzer.c  **** 	default:
  65:Src/buzzer.c  **** 		break;
  66:Src/buzzer.c  **** 	}
  67:Src/buzzer.c  **** }
 166              		.loc 1 67 1 view .LVU22
 167 001a 08BD     		pop	{r3, pc}
 168              	.LVL5:
ARM GAS  C:\Users\behun\AppData\Local\Temp\cczfzgV9.s 			page 5


 169              	.L14:
  35:Src/buzzer.c  **** 		{
 170              		.loc 1 35 3 is_stmt 1 view .LVU23
  35:Src/buzzer.c  **** 		{
 171              		.loc 1 35 6 is_stmt 0 view .LVU24
 172 001c B0F5FA7F 		cmp	r0, #500
 173 0020 FBD9     		bls	.L12
  35:Src/buzzer.c  **** 		{
 174              		.loc 1 35 37 discriminator 1 view .LVU25
 175 0022 1D4B     		ldr	r3, .L18
 176 0024 5B79     		ldrb	r3, [r3, #5]	@ zero_extendqisi2
  35:Src/buzzer.c  **** 		{
 177              		.loc 1 35 28 discriminator 1 view .LVU26
 178 0026 002B     		cmp	r3, #0
 179 0028 F7D0     		beq	.L12
  37:Src/buzzer.c  **** 			buzzer.short_Status = 0;
 180              		.loc 1 37 4 is_stmt 1 view .LVU27
 181 002a 0022     		movs	r2, #0
 182 002c 4FF48071 		mov	r1, #256
 183 0030 1A48     		ldr	r0, .L18+4
 184              	.LVL6:
  37:Src/buzzer.c  **** 			buzzer.short_Status = 0;
 185              		.loc 1 37 4 is_stmt 0 view .LVU28
 186 0032 FFF7FEFF 		bl	HAL_GPIO_WritePin
 187              	.LVL7:
  38:Src/buzzer.c  **** 			// printf("Short_Buzzer is off , %d ms\n", delta);
 188              		.loc 1 38 4 is_stmt 1 view .LVU29
  38:Src/buzzer.c  **** 			// printf("Short_Buzzer is off , %d ms\n", delta);
 189              		.loc 1 38 24 is_stmt 0 view .LVU30
 190 0036 184B     		ldr	r3, .L18
 191 0038 0022     		movs	r2, #0
 192 003a 5A71     		strb	r2, [r3, #5]
 193 003c EDE7     		b	.L12
 194              	.LVL8:
 195              	.L13:
  43:Src/buzzer.c  **** 		{
 196              		.loc 1 43 3 is_stmt 1 view .LVU31
  43:Src/buzzer.c  **** 		{
 197              		.loc 1 43 6 is_stmt 0 view .LVU32
 198 003e 40F2DC53 		movw	r3, #1500
 199 0042 9842     		cmp	r0, r3
 200 0044 E9D9     		bls	.L12
  43:Src/buzzer.c  **** 		{
 201              		.loc 1 43 36 discriminator 1 view .LVU33
 202 0046 144B     		ldr	r3, .L18
 203 0048 9B79     		ldrb	r3, [r3, #6]	@ zero_extendqisi2
  43:Src/buzzer.c  **** 		{
 204              		.loc 1 43 27 discriminator 1 view .LVU34
 205 004a 002B     		cmp	r3, #0
 206 004c E5D0     		beq	.L12
  45:Src/buzzer.c  **** 			buzzer.long_Status = 0;
 207              		.loc 1 45 4 is_stmt 1 view .LVU35
 208 004e 0022     		movs	r2, #0
 209 0050 4FF48071 		mov	r1, #256
 210 0054 1148     		ldr	r0, .L18+4
 211              	.LVL9:
  45:Src/buzzer.c  **** 			buzzer.long_Status = 0;
ARM GAS  C:\Users\behun\AppData\Local\Temp\cczfzgV9.s 			page 6


 212              		.loc 1 45 4 is_stmt 0 view .LVU36
 213 0056 FFF7FEFF 		bl	HAL_GPIO_WritePin
 214              	.LVL10:
  46:Src/buzzer.c  **** 			// printf("Long_Buzzer is off, %d ms \n", delta);
 215              		.loc 1 46 4 is_stmt 1 view .LVU37
  46:Src/buzzer.c  **** 			// printf("Long_Buzzer is off, %d ms \n", delta);
 216              		.loc 1 46 23 is_stmt 0 view .LVU38
 217 005a 0F4B     		ldr	r3, .L18
 218 005c 0022     		movs	r2, #0
 219 005e 9A71     		strb	r2, [r3, #6]
 220 0060 DBE7     		b	.L12
 221              	.LVL11:
 222              	.L15:
  51:Src/buzzer.c  **** 		{
 223              		.loc 1 51 3 is_stmt 1 view .LVU39
  51:Src/buzzer.c  **** 		{
 224              		.loc 1 51 6 is_stmt 0 view .LVU40
 225 0062 B0F57A7F 		cmp	r0, #1000
 226 0066 D8D9     		bls	.L12
  51:Src/buzzer.c  **** 		{
 227              		.loc 1 51 32 discriminator 1 view .LVU41
 228 0068 0B4B     		ldr	r3, .L18
 229 006a DB79     		ldrb	r3, [r3, #7]	@ zero_extendqisi2
  51:Src/buzzer.c  **** 		{
 230              		.loc 1 51 23 discriminator 1 view .LVU42
 231 006c 002B     		cmp	r3, #0
 232 006e D4D0     		beq	.L12
  53:Src/buzzer.c  **** 			buzzer.tick = HAL_GetTick();
 233              		.loc 1 53 4 is_stmt 1 view .LVU43
 234 0070 4FF48071 		mov	r1, #256
 235 0074 0948     		ldr	r0, .L18+4
 236              	.LVL12:
  53:Src/buzzer.c  **** 			buzzer.tick = HAL_GetTick();
 237              		.loc 1 53 4 is_stmt 0 view .LVU44
 238 0076 FFF7FEFF 		bl	HAL_GPIO_TogglePin
 239              	.LVL13:
  54:Src/buzzer.c  **** 			buzzer.cnt++;
 240              		.loc 1 54 4 is_stmt 1 view .LVU45
  54:Src/buzzer.c  **** 			buzzer.cnt++;
 241              		.loc 1 54 18 is_stmt 0 view .LVU46
 242 007a FFF7FEFF 		bl	HAL_GetTick
 243              	.LVL14:
  54:Src/buzzer.c  **** 			buzzer.cnt++;
 244              		.loc 1 54 16 view .LVU47
 245 007e 064A     		ldr	r2, .L18
 246 0080 1060     		str	r0, [r2]
  55:Src/buzzer.c  **** 			// printf("Alarm_Buzzer is toggling, t = %d\n", buzzer.cnt);
 247              		.loc 1 55 4 is_stmt 1 view .LVU48
  55:Src/buzzer.c  **** 			// printf("Alarm_Buzzer is toggling, t = %d\n", buzzer.cnt);
 248              		.loc 1 55 10 is_stmt 0 view .LVU49
 249 0082 137A     		ldrb	r3, [r2, #8]	@ zero_extendqisi2
  55:Src/buzzer.c  **** 			// printf("Alarm_Buzzer is toggling, t = %d\n", buzzer.cnt);
 250              		.loc 1 55 14 view .LVU50
 251 0084 0133     		adds	r3, r3, #1
 252 0086 DBB2     		uxtb	r3, r3
 253 0088 1372     		strb	r3, [r2, #8]
  57:Src/buzzer.c  **** 			{
ARM GAS  C:\Users\behun\AppData\Local\Temp\cczfzgV9.s 			page 7


 254              		.loc 1 57 4 is_stmt 1 view .LVU51
  57:Src/buzzer.c  **** 			{
 255              		.loc 1 57 7 is_stmt 0 view .LVU52
 256 008a 0E2B     		cmp	r3, #14
 257 008c C5D9     		bls	.L12
  59:Src/buzzer.c  **** 				// printf("Alarm_Buzzer is off, t= %d \n", buzzer.cnt);
 258              		.loc 1 59 5 is_stmt 1 view .LVU53
  59:Src/buzzer.c  **** 				// printf("Alarm_Buzzer is off, t= %d \n", buzzer.cnt);
 259              		.loc 1 59 25 is_stmt 0 view .LVU54
 260 008e 1346     		mov	r3, r2
 261 0090 0022     		movs	r2, #0
 262 0092 DA71     		strb	r2, [r3, #7]
 263              		.loc 1 67 1 view .LVU55
 264 0094 C1E7     		b	.L12
 265              	.L19:
 266 0096 00BF     		.align	2
 267              	.L18:
 268 0098 00000000 		.word	buzzer
 269 009c 000C0140 		.word	1073810432
 270              		.cfi_endproc
 271              	.LFE69:
 273              		.section	.text.buzzer_manage,"ax",%progbits
 274              		.align	1
 275              		.global	buzzer_manage
 276              		.syntax unified
 277              		.thumb
 278              		.thumb_func
 279              		.fpu softvfp
 281              	buzzer_manage:
 282              	.LVL15:
 283              	.LFB70:
  68:Src/buzzer.c  **** 
  69:Src/buzzer.c  **** void buzzer_manage(uint8_t status)
  70:Src/buzzer.c  **** {
 284              		.loc 1 70 1 is_stmt 1 view -0
 285              		.cfi_startproc
 286              		@ args = 0, pretend = 0, frame = 0
 287              		@ frame_needed = 0, uses_anonymous_args = 0
 288              		.loc 1 70 1 is_stmt 0 view .LVU57
 289 0000 08B5     		push	{r3, lr}
 290              	.LCFI3:
 291              		.cfi_def_cfa_offset 8
 292              		.cfi_offset 3, -8
 293              		.cfi_offset 14, -4
  71:Src/buzzer.c  **** 	switch (status)
 294              		.loc 1 71 2 is_stmt 1 view .LVU58
 295 0002 0228     		cmp	r0, #2
 296 0004 09D0     		beq	.L21
 297 0006 0328     		cmp	r0, #3
 298 0008 0BD0     		beq	.L22
 299 000a 0128     		cmp	r0, #1
 300 000c 00D0     		beq	.L25
 301              	.LVL16:
 302              	.L20:
  72:Src/buzzer.c  **** 	{
  73:Src/buzzer.c  **** 	case 1:
  74:Src/buzzer.c  **** 		buzzer_short_beep();
ARM GAS  C:\Users\behun\AppData\Local\Temp\cczfzgV9.s 			page 8


  75:Src/buzzer.c  **** 		handle_buzzer();
  76:Src/buzzer.c  **** 		break;
  77:Src/buzzer.c  **** 	case 2:
  78:Src/buzzer.c  **** 		buzzer_long_beep();
  79:Src/buzzer.c  **** 		handle_buzzer();
  80:Src/buzzer.c  **** 	case 3:
  81:Src/buzzer.c  **** 		buzzer_alarm_start();
  82:Src/buzzer.c  **** 		handle_buzzer();
  83:Src/buzzer.c  **** 	default:
  84:Src/buzzer.c  **** 		break;
  85:Src/buzzer.c  **** 	}
  86:Src/buzzer.c  **** }
 303              		.loc 1 86 1 is_stmt 0 view .LVU59
 304 000e 08BD     		pop	{r3, pc}
 305              	.LVL17:
 306              	.L25:
  74:Src/buzzer.c  **** 		handle_buzzer();
 307              		.loc 1 74 3 is_stmt 1 view .LVU60
 308 0010 FFF7FEFF 		bl	buzzer_short_beep
 309              	.LVL18:
  75:Src/buzzer.c  **** 		break;
 310              		.loc 1 75 3 view .LVU61
 311 0014 FFF7FEFF 		bl	handle_buzzer
 312              	.LVL19:
  76:Src/buzzer.c  **** 	case 2:
 313              		.loc 1 76 3 view .LVU62
 314 0018 F9E7     		b	.L20
 315              	.LVL20:
 316              	.L21:
  78:Src/buzzer.c  **** 		handle_buzzer();
 317              		.loc 1 78 3 view .LVU63
 318 001a FFF7FEFF 		bl	buzzer_long_beep
 319              	.LVL21:
  79:Src/buzzer.c  **** 	case 3:
 320              		.loc 1 79 3 view .LVU64
 321 001e FFF7FEFF 		bl	handle_buzzer
 322              	.LVL22:
 323              	.L22:
  81:Src/buzzer.c  **** 		handle_buzzer();
 324              		.loc 1 81 3 view .LVU65
 325 0022 FFF7FEFF 		bl	buzzer_alarm_start
 326              	.LVL23:
  82:Src/buzzer.c  **** 	default:
 327              		.loc 1 82 3 view .LVU66
 328 0026 FFF7FEFF 		bl	handle_buzzer
 329              	.LVL24:
 330              		.loc 1 86 1 is_stmt 0 view .LVU67
 331 002a F0E7     		b	.L20
 332              		.cfi_endproc
 333              	.LFE70:
 335              		.section	.text.buzzer_init,"ax",%progbits
 336              		.align	1
 337              		.global	buzzer_init
 338              		.syntax unified
 339              		.thumb
 340              		.thumb_func
 341              		.fpu softvfp
ARM GAS  C:\Users\behun\AppData\Local\Temp\cczfzgV9.s 			page 9


 343              	buzzer_init:
 344              	.LFB71:
  87:Src/buzzer.c  **** void buzzer_init(void)
  88:Src/buzzer.c  **** {
 345              		.loc 1 88 1 is_stmt 1 view -0
 346              		.cfi_startproc
 347              		@ args = 0, pretend = 0, frame = 24
 348              		@ frame_needed = 0, uses_anonymous_args = 0
 349 0000 2DE9F043 		push	{r4, r5, r6, r7, r8, r9, lr}
 350              	.LCFI4:
 351              		.cfi_def_cfa_offset 28
 352              		.cfi_offset 4, -28
 353              		.cfi_offset 5, -24
 354              		.cfi_offset 6, -20
 355              		.cfi_offset 7, -16
 356              		.cfi_offset 8, -12
 357              		.cfi_offset 9, -8
 358              		.cfi_offset 14, -4
 359 0004 87B0     		sub	sp, sp, #28
 360              	.LCFI5:
 361              		.cfi_def_cfa_offset 56
  89:Src/buzzer.c  **** 	GPIO_InitTypeDef GPIO_InitStruct = {0};
 362              		.loc 1 89 2 view .LVU69
 363              		.loc 1 89 19 is_stmt 0 view .LVU70
 364 0006 0025     		movs	r5, #0
 365 0008 0495     		str	r5, [sp, #16]
  90:Src/buzzer.c  **** 
  91:Src/buzzer.c  **** 	/* GPIO Ports Clock Enable */
  92:Src/buzzer.c  **** 	__HAL_RCC_GPIOB_CLK_ENABLE();
 366              		.loc 1 92 2 is_stmt 1 view .LVU71
 367              	.LBB2:
 368              		.loc 1 92 2 view .LVU72
 369              		.loc 1 92 2 view .LVU73
 370 000a 164B     		ldr	r3, .L28
 371 000c 9A69     		ldr	r2, [r3, #24]
 372 000e 42F00802 		orr	r2, r2, #8
 373 0012 9A61     		str	r2, [r3, #24]
 374              		.loc 1 92 2 view .LVU74
 375 0014 9B69     		ldr	r3, [r3, #24]
 376 0016 03F00803 		and	r3, r3, #8
 377 001a 0193     		str	r3, [sp, #4]
 378              		.loc 1 92 2 view .LVU75
 379 001c 019B     		ldr	r3, [sp, #4]
 380              	.LBE2:
  93:Src/buzzer.c  **** 
  94:Src/buzzer.c  **** 	GPIO_InitStruct.Pin = BUZZER_PIN;
 381              		.loc 1 94 2 view .LVU76
 382              		.loc 1 94 22 is_stmt 0 view .LVU77
 383 001e 4FF48077 		mov	r7, #256
 384 0022 0297     		str	r7, [sp, #8]
  95:Src/buzzer.c  **** 	GPIO_InitStruct.Mode = GPIO_MODE_OUTPUT_PP;
 385              		.loc 1 95 2 is_stmt 1 view .LVU78
 386              		.loc 1 95 23 is_stmt 0 view .LVU79
 387 0024 4FF00109 		mov	r9, #1
 388 0028 CDF80C90 		str	r9, [sp, #12]
  96:Src/buzzer.c  **** 	GPIO_InitStruct.Pull = GPIO_NOPULL;
 389              		.loc 1 96 2 is_stmt 1 view .LVU80
ARM GAS  C:\Users\behun\AppData\Local\Temp\cczfzgV9.s 			page 10


  97:Src/buzzer.c  **** 	GPIO_InitStruct.Speed = GPIO_SPEED_FREQ_LOW;
 390              		.loc 1 97 2 view .LVU81
 391              		.loc 1 97 24 is_stmt 0 view .LVU82
 392 002c 4FF00208 		mov	r8, #2
 393 0030 CDF81480 		str	r8, [sp, #20]
  98:Src/buzzer.c  **** 	HAL_GPIO_Init(GPIOB, &GPIO_InitStruct);
 394              		.loc 1 98 2 is_stmt 1 view .LVU83
 395 0034 0C4E     		ldr	r6, .L28+4
 396 0036 02A9     		add	r1, sp, #8
 397 0038 3046     		mov	r0, r6
 398 003a FFF7FEFF 		bl	HAL_GPIO_Init
 399              	.LVL25:
  99:Src/buzzer.c  **** 
 100:Src/buzzer.c  **** 	buzzer.cnt = 0;
 400              		.loc 1 100 2 view .LVU84
 401              		.loc 1 100 13 is_stmt 0 view .LVU85
 402 003e 0B4C     		ldr	r4, .L28+8
 403 0040 2572     		strb	r5, [r4, #8]
 101:Src/buzzer.c  **** 	buzzer.short_Status = 1;
 404              		.loc 1 101 2 is_stmt 1 view .LVU86
 405              		.loc 1 101 22 is_stmt 0 view .LVU87
 406 0042 84F80590 		strb	r9, [r4, #5]
 102:Src/buzzer.c  **** 	buzzer.long_Status = 2;
 407              		.loc 1 102 2 is_stmt 1 view .LVU88
 408              		.loc 1 102 21 is_stmt 0 view .LVU89
 409 0046 84F80680 		strb	r8, [r4, #6]
 103:Src/buzzer.c  **** 	buzzer.alarm_Status = 3;
 410              		.loc 1 103 2 is_stmt 1 view .LVU90
 411              		.loc 1 103 22 is_stmt 0 view .LVU91
 412 004a 0323     		movs	r3, #3
 413 004c E371     		strb	r3, [r4, #7]
 104:Src/buzzer.c  **** 
 105:Src/buzzer.c  **** 	buzzer.tick = HAL_GetTick();
 414              		.loc 1 105 2 is_stmt 1 view .LVU92
 415              		.loc 1 105 16 is_stmt 0 view .LVU93
 416 004e FFF7FEFF 		bl	HAL_GetTick
 417              	.LVL26:
 418              		.loc 1 105 14 view .LVU94
 419 0052 2060     		str	r0, [r4]
 106:Src/buzzer.c  **** 	BUZZER_OFF();
 420              		.loc 1 106 2 is_stmt 1 view .LVU95
 421 0054 2A46     		mov	r2, r5
 422 0056 3946     		mov	r1, r7
 423 0058 3046     		mov	r0, r6
 424 005a FFF7FEFF 		bl	HAL_GPIO_WritePin
 425              	.LVL27:
 107:Src/buzzer.c  **** }...
 426              		.loc 1 107 1 is_stmt 0 view .LVU96
 427 005e 07B0     		add	sp, sp, #28
 428              	.LCFI6:
 429              		.cfi_def_cfa_offset 28
 430              		@ sp needed
 431 0060 BDE8F083 		pop	{r4, r5, r6, r7, r8, r9, pc}
 432              	.L29:
 433              		.align	2
 434              	.L28:
 435 0064 00100240 		.word	1073876992
ARM GAS  C:\Users\behun\AppData\Local\Temp\cczfzgV9.s 			page 11


 436 0068 000C0140 		.word	1073810432
 437 006c 00000000 		.word	buzzer
 438              		.cfi_endproc
 439              	.LFE71:
 441              		.comm	buzzer,12,4
 442              		.text
 443              	.Letext0:
 444              		.file 2 "c:\\program files (x86)\\gnu tools arm embedded\\8 2019-q3-update\\arm-none-eabi\\include
 445              		.file 3 "c:\\program files (x86)\\gnu tools arm embedded\\8 2019-q3-update\\arm-none-eabi\\include
 446              		.file 4 "Drivers/CMSIS/Include/core_cm3.h"
 447              		.file 5 "Drivers/CMSIS/Device/ST/STM32F1xx/Include/system_stm32f1xx.h"
 448              		.file 6 "Drivers/CMSIS/Device/ST/STM32F1xx/Include/stm32f103xe.h"
 449              		.file 7 "c:\\program files (x86)\\gnu tools arm embedded\\8 2019-q3-update\\lib\\gcc\\arm-none-eab
 450              		.file 8 "c:\\program files (x86)\\gnu tools arm embedded\\8 2019-q3-update\\arm-none-eabi\\include
 451              		.file 9 "c:\\program files (x86)\\gnu tools arm embedded\\8 2019-q3-update\\arm-none-eabi\\include
 452              		.file 10 "c:\\program files (x86)\\gnu tools arm embedded\\8 2019-q3-update\\arm-none-eabi\\includ
 453              		.file 11 "Drivers/STM32F1xx_HAL_Driver/Inc/stm32f1xx_hal_gpio.h"
 454              		.file 12 "Drivers/CMSIS/Device/ST/STM32F1xx/Include/stm32f1xx.h"
 455              		.file 13 "Drivers/STM32F1xx_HAL_Driver/Inc/stm32f1xx_hal.h"
 456              		.file 14 "Inc/buzzer.h"
ARM GAS  C:\Users\behun\AppData\Local\Temp\cczfzgV9.s 			page 12


DEFINED SYMBOLS
                            *ABS*:00000000 buzzer.c
C:\Users\behun\AppData\Local\Temp\cczfzgV9.s:16     .text.buzzer_short_beep:00000000 $t
C:\Users\behun\AppData\Local\Temp\cczfzgV9.s:24     .text.buzzer_short_beep:00000000 buzzer_short_beep
C:\Users\behun\AppData\Local\Temp\cczfzgV9.s:52     .text.buzzer_short_beep:00000018 $d
                            *COM*:0000000c buzzer
C:\Users\behun\AppData\Local\Temp\cczfzgV9.s:58     .text.buzzer_long_beep:00000000 $t
C:\Users\behun\AppData\Local\Temp\cczfzgV9.s:65     .text.buzzer_long_beep:00000000 buzzer_long_beep
C:\Users\behun\AppData\Local\Temp\cczfzgV9.s:91     .text.buzzer_long_beep:00000014 $d
C:\Users\behun\AppData\Local\Temp\cczfzgV9.s:97     .text.buzzer_alarm_start:00000000 $t
C:\Users\behun\AppData\Local\Temp\cczfzgV9.s:104    .text.buzzer_alarm_start:00000000 buzzer_alarm_start
C:\Users\behun\AppData\Local\Temp\cczfzgV9.s:121    .text.buzzer_alarm_start:00000008 $d
C:\Users\behun\AppData\Local\Temp\cczfzgV9.s:126    .text.handle_buzzer:00000000 $t
C:\Users\behun\AppData\Local\Temp\cczfzgV9.s:133    .text.handle_buzzer:00000000 handle_buzzer
C:\Users\behun\AppData\Local\Temp\cczfzgV9.s:268    .text.handle_buzzer:00000098 $d
C:\Users\behun\AppData\Local\Temp\cczfzgV9.s:274    .text.buzzer_manage:00000000 $t
C:\Users\behun\AppData\Local\Temp\cczfzgV9.s:281    .text.buzzer_manage:00000000 buzzer_manage
C:\Users\behun\AppData\Local\Temp\cczfzgV9.s:336    .text.buzzer_init:00000000 $t
C:\Users\behun\AppData\Local\Temp\cczfzgV9.s:343    .text.buzzer_init:00000000 buzzer_init
C:\Users\behun\AppData\Local\Temp\cczfzgV9.s:435    .text.buzzer_init:00000064 $d

UNDEFINED SYMBOLS
HAL_GPIO_WritePin
HAL_GetTick
HAL_GPIO_TogglePin
HAL_GPIO_Init
