ARM GAS  C:\Users\behun\AppData\Local\Temp\cc0Mb0cf.s 			page 1


   1              		.cpu cortex-m3
   2              		.eabi_attribute 20, 1
   3              		.eabi_attribute 21, 1
   4              		.eabi_attribute 23, 3
   5              		.eabi_attribute 24, 1
   6              		.eabi_attribute 25, 1
   7              		.eabi_attribute 26, 1
   8              		.eabi_attribute 30, 1
   9              		.eabi_attribute 34, 1
  10              		.eabi_attribute 18, 4
  11              		.file	"clock_rtc.c"
  12              		.text
  13              	.Ltext0:
  14              		.cfi_sections	.debug_frame
  15              		.section	.text.set_time,"ax",%progbits
  16              		.align	1
  17              		.global	set_time
  18              		.arch armv7-m
  19              		.syntax unified
  20              		.thumb
  21              		.thumb_func
  22              		.fpu softvfp
  24              	set_time:
  25              	.LVL0:
  26              	.LFB66:
  27              		.file 1 "Inc/clock_rtc.h"
   1:Inc/clock_rtc.h **** #ifndef __CLOCK_RTC_H
   2:Inc/clock_rtc.h **** #define __CLOCK_RTC_H
   3:Inc/clock_rtc.h **** 
   4:Inc/clock_rtc.h **** #include "main.h"
   5:Inc/clock_rtc.h **** #include "time.h"
   6:Inc/clock_rtc.h **** #include "stm32f1xx_hal_rtc.h"
   7:Inc/clock_rtc.h **** 
   8:Inc/clock_rtc.h **** RTC_HandleTypeDef hrtc;
   9:Inc/clock_rtc.h **** 
  10:Inc/clock_rtc.h **** const uint8_t daysInMonth [] = { 31, 28, 31, 30, 31, 30, 31, 31, 30, 31, 30, 31 };
  11:Inc/clock_rtc.h **** 
  12:Inc/clock_rtc.h **** time_t set_time(uint32_t year, uint32_t month, uint32_t day, uint32_t hour, uint32_t minute, uint32
  13:Inc/clock_rtc.h **** {
  28              		.loc 1 13 1 view -0
  29              		.cfi_startproc
  30              		@ args = 8, pretend = 0, frame = 40
  31              		@ frame_needed = 0, uses_anonymous_args = 0
  32              		.loc 1 13 1 is_stmt 0 view .LVU1
  33 0000 00B5     		push	{lr}
  34              	.LCFI0:
  35              		.cfi_def_cfa_offset 4
  36              		.cfi_offset 14, -4
  37 0002 8BB0     		sub	sp, sp, #44
  38              	.LCFI1:
  39              		.cfi_def_cfa_offset 48
  14:Inc/clock_rtc.h ****     struct tm time_struct;
  40              		.loc 1 14 5 is_stmt 1 view .LVU2
  15:Inc/clock_rtc.h ****     time_t m_time;
  41              		.loc 1 15 5 view .LVU3
  16:Inc/clock_rtc.h ****     time_struct.tm_year = year - 1900;
  42              		.loc 1 16 5 view .LVU4
ARM GAS  C:\Users\behun\AppData\Local\Temp\cc0Mb0cf.s 			page 2


  43              		.loc 1 16 32 is_stmt 0 view .LVU5
  44 0004 A0F26C70 		subw	r0, r0, #1900
  45              	.LVL1:
  46              		.loc 1 16 25 view .LVU6
  47 0008 0690     		str	r0, [sp, #24]
  17:Inc/clock_rtc.h ****     time_struct.tm_mon = month;
  48              		.loc 1 17 5 is_stmt 1 view .LVU7
  49              		.loc 1 17 24 is_stmt 0 view .LVU8
  50 000a 0591     		str	r1, [sp, #20]
  18:Inc/clock_rtc.h ****     time_struct.tm_mday = day;
  51              		.loc 1 18 5 is_stmt 1 view .LVU9
  52              		.loc 1 18 25 is_stmt 0 view .LVU10
  53 000c 0492     		str	r2, [sp, #16]
  19:Inc/clock_rtc.h ****     time_struct.tm_hour = hour;
  54              		.loc 1 19 5 is_stmt 1 view .LVU11
  55              		.loc 1 19 25 is_stmt 0 view .LVU12
  56 000e 0393     		str	r3, [sp, #12]
  20:Inc/clock_rtc.h ****     time_struct.tm_min = minute;
  57              		.loc 1 20 5 is_stmt 1 view .LVU13
  58              		.loc 1 20 24 is_stmt 0 view .LVU14
  59 0010 0C9B     		ldr	r3, [sp, #48]
  60              	.LVL2:
  61              		.loc 1 20 24 view .LVU15
  62 0012 0293     		str	r3, [sp, #8]
  21:Inc/clock_rtc.h ****     time_struct.tm_sec = second;
  63              		.loc 1 21 5 is_stmt 1 view .LVU16
  64              		.loc 1 21 24 is_stmt 0 view .LVU17
  65 0014 0D9B     		ldr	r3, [sp, #52]
  66 0016 0193     		str	r3, [sp, #4]
  22:Inc/clock_rtc.h ****     m_time = mktime(&time_struct);// Convert to timestamp
  67              		.loc 1 22 5 is_stmt 1 view .LVU18
  68              		.loc 1 22 14 is_stmt 0 view .LVU19
  69 0018 01A8     		add	r0, sp, #4
  70              	.LVL3:
  71              		.loc 1 22 14 view .LVU20
  72 001a FFF7FEFF 		bl	mktime
  73              	.LVL4:
  23:Inc/clock_rtc.h ****     return m_time;
  74              		.loc 1 23 5 is_stmt 1 view .LVU21
  24:Inc/clock_rtc.h **** }
  75              		.loc 1 24 1 is_stmt 0 view .LVU22
  76 001e 0BB0     		add	sp, sp, #44
  77              	.LCFI2:
  78              		.cfi_def_cfa_offset 4
  79              		@ sp needed
  80 0020 5DF804FB 		ldr	pc, [sp], #4
  81              		.loc 1 24 1 view .LVU23
  82              		.cfi_endproc
  83              	.LFE66:
  85              		.section	.text.convert_time_stamp,"ax",%progbits
  86              		.align	1
  87              		.global	convert_time_stamp
  88              		.syntax unified
  89              		.thumb
  90              		.thumb_func
  91              		.fpu softvfp
  93              	convert_time_stamp:
ARM GAS  C:\Users\behun\AppData\Local\Temp\cc0Mb0cf.s 			page 3


  94              	.LVL5:
  95              	.LFB67:
  25:Inc/clock_rtc.h **** 
  26:Inc/clock_rtc.h **** struct tm convert_time_stamp(uint32_t t)
  27:Inc/clock_rtc.h **** {
  96              		.loc 1 27 1 is_stmt 1 view -0
  97              		.cfi_startproc
  98              		@ args = 0, pretend = 0, frame = 40
  99              		@ frame_needed = 0, uses_anonymous_args = 0
 100              		.loc 1 27 1 is_stmt 0 view .LVU25
 101 0000 2DE9F041 		push	{r4, r5, r6, r7, r8, lr}
 102              	.LCFI3:
 103              		.cfi_def_cfa_offset 24
 104              		.cfi_offset 4, -24
 105              		.cfi_offset 5, -20
 106              		.cfi_offset 6, -16
 107              		.cfi_offset 7, -12
 108              		.cfi_offset 8, -8
 109              		.cfi_offset 14, -4
 110 0004 8AB0     		sub	sp, sp, #40
 111              	.LCFI4:
 112              		.cfi_def_cfa_offset 64
 113 0006 8046     		mov	r8, r0
  28:Inc/clock_rtc.h ****     struct tm time_struct;
 114              		.loc 1 28 5 is_stmt 1 view .LVU26
  29:Inc/clock_rtc.h ****     uint32_t yOff, m, d, hh, mm, ss;
 115              		.loc 1 29 5 view .LVU27
  30:Inc/clock_rtc.h **** 
  31:Inc/clock_rtc.h ****     t -= 946684800;//SECONDS_FROM_1970_TO_2000;    // bring to 2000 timestamp from 1970
 116              		.loc 1 31 5 view .LVU28
 117              		.loc 1 31 7 is_stmt 0 view .LVU29
 118 0008 304B     		ldr	r3, .L10
 119 000a 0B44     		add	r3, r3, r1
 120              	.LVL6:
  32:Inc/clock_rtc.h ****     ss = t % 60;
 121              		.loc 1 32 5 is_stmt 1 view .LVU30
 122              		.loc 1 32 8 is_stmt 0 view .LVU31
 123 000c 304D     		ldr	r5, .L10+4
 124 000e A5FB0327 		umull	r2, r7, r5, r3
 125 0012 7F09     		lsrs	r7, r7, #5
 126 0014 3946     		mov	r1, r7
 127 0016 C7EB0717 		rsb	r7, r7, r7, lsl #4
 128 001a BA00     		lsls	r2, r7, #2
 129 001c 9F1A     		subs	r7, r3, r2
 130              	.LVL7:
  33:Inc/clock_rtc.h ****     t /= 60;
 131              		.loc 1 33 5 is_stmt 1 view .LVU32
  34:Inc/clock_rtc.h ****     mm = t % 60;
 132              		.loc 1 34 5 view .LVU33
 133              		.loc 1 34 8 is_stmt 0 view .LVU34
 134 001e A5FB0125 		umull	r2, r5, r5, r1
 135 0022 6D09     		lsrs	r5, r5, #5
 136 0024 C5EB0515 		rsb	r5, r5, r5, lsl #4
 137 0028 AA00     		lsls	r2, r5, #2
 138 002a 8D1A     		subs	r5, r1, r2
 139              	.LVL8:
  35:Inc/clock_rtc.h ****     t /= 60;
ARM GAS  C:\Users\behun\AppData\Local\Temp\cc0Mb0cf.s 			page 4


 140              		.loc 1 35 5 is_stmt 1 view .LVU35
 141              		.loc 1 35 7 is_stmt 0 view .LVU36
 142 002c 294A     		ldr	r2, .L10+8
 143 002e A2FB0312 		umull	r1, r2, r2, r3
 144              	.LVL9:
 145              		.loc 1 35 7 view .LVU37
 146 0032 D20A     		lsrs	r2, r2, #11
 147              	.LVL10:
  36:Inc/clock_rtc.h ****     hh = t % 24;
 148              		.loc 1 36 5 is_stmt 1 view .LVU38
 149              		.loc 1 36 8 is_stmt 0 view .LVU39
 150 0034 284E     		ldr	r6, .L10+12
 151 0036 A6FB0216 		umull	r1, r6, r6, r2
 152 003a 3609     		lsrs	r6, r6, #4
 153 003c 06EB4606 		add	r6, r6, r6, lsl #1
 154 0040 F100     		lsls	r1, r6, #3
 155 0042 561A     		subs	r6, r2, r1
 156              	.LVL11:
  37:Inc/clock_rtc.h ****     uint16_t days = t / 24;
 157              		.loc 1 37 5 is_stmt 1 view .LVU40
 158              		.loc 1 37 23 is_stmt 0 view .LVU41
 159 0044 2549     		ldr	r1, .L10+16
 160 0046 A1FB0323 		umull	r2, r3, r1, r3
 161              	.LVL12:
 162              		.loc 1 37 14 view .LVU42
 163 004a 190C     		lsrs	r1, r3, #16
 164              	.LVL13:
  38:Inc/clock_rtc.h ****     uint8_t leap;
 165              		.loc 1 38 5 is_stmt 1 view .LVU43
  39:Inc/clock_rtc.h ****     for (yOff = 0; ; ++yOff)
 166              		.loc 1 39 5 view .LVU44
 167              		.loc 1 39 15 is_stmt 0 view .LVU45
 168 004c 0020     		movs	r0, #0
 169              	.LVL14:
 170              	.L5:
  40:Inc/clock_rtc.h ****     {
  41:Inc/clock_rtc.h ****         leap = yOff % 4 == 0;
 171              		.loc 1 41 9 is_stmt 1 view .LVU46
 172              		.loc 1 41 25 is_stmt 0 view .LVU47
 173 004e 10F00304 		ands	r4, r0, #3
 174 0052 0CBF     		ite	eq
 175 0054 0123     		moveq	r3, #1
 176 0056 0023     		movne	r3, #0
 177              	.LVL15:
  42:Inc/clock_rtc.h ****         if (days < 365 + leap)
 178              		.loc 1 42 9 is_stmt 1 view .LVU48
 179              		.loc 1 42 18 is_stmt 0 view .LVU49
 180 0058 03F5B672 		add	r2, r3, #364
 181              		.loc 1 42 12 view .LVU50
 182 005c 8A42     		cmp	r2, r1
 183 005e 06DA     		bge	.L8
  43:Inc/clock_rtc.h ****             break;
  44:Inc/clock_rtc.h ****         days -= 365 + leap;
 184              		.loc 1 44 9 is_stmt 1 view .LVU51
 185              		.loc 1 44 14 is_stmt 0 view .LVU52
 186 0060 CB1A     		subs	r3, r1, r3
 187              	.LVL16:
ARM GAS  C:\Users\behun\AppData\Local\Temp\cc0Mb0cf.s 			page 5


 188              		.loc 1 44 14 view .LVU53
 189 0062 9BB2     		uxth	r3, r3
 190 0064 A3F26D13 		subw	r3, r3, #365
 191 0068 99B2     		uxth	r1, r3
 192              	.LVL17:
  39:Inc/clock_rtc.h ****     {
 193              		.loc 1 39 22 view .LVU54
 194 006a 0130     		adds	r0, r0, #1
 195              	.LVL18:
  41:Inc/clock_rtc.h ****         if (days < 365 + leap)
 196              		.loc 1 41 14 view .LVU55
 197 006c EFE7     		b	.L5
 198              	.LVL19:
 199              	.L8:
  45:Inc/clock_rtc.h ****     }
  46:Inc/clock_rtc.h ****     for (m = 1; ; ++m)
 200              		.loc 1 46 12 view .LVU56
 201 006e 4FF0010C 		mov	ip, #1
 202 0072 06E0     		b	.L4
 203              	.LVL20:
 204              	.L6:
 205              	.LBB2:
  47:Inc/clock_rtc.h ****     {
  48:Inc/clock_rtc.h ****         uint8_t daysPerMonth = daysInMonth[m - 1];
  49:Inc/clock_rtc.h ****         if (leap && m == 2)
  50:Inc/clock_rtc.h ****             ++daysPerMonth;
  51:Inc/clock_rtc.h ****         if (days < daysPerMonth)
 206              		.loc 1 51 9 is_stmt 1 view .LVU57
 207              		.loc 1 51 18 is_stmt 0 view .LVU58
 208 0074 92B2     		uxth	r2, r2
 209              	.LVL21:
 210              		.loc 1 51 12 view .LVU59
 211 0076 8A42     		cmp	r2, r1
 212 0078 10D8     		bhi	.L7
  52:Inc/clock_rtc.h ****             break;
  53:Inc/clock_rtc.h ****         days -= daysPerMonth;
 213              		.loc 1 53 9 is_stmt 1 view .LVU60
 214              		.loc 1 53 14 is_stmt 0 view .LVU61
 215 007a 8B1A     		subs	r3, r1, r2
 216 007c 99B2     		uxth	r1, r3
 217              	.LVL22:
 218              		.loc 1 53 14 view .LVU62
 219              	.LBE2:
  46:Inc/clock_rtc.h ****     {
 220              		.loc 1 46 19 view .LVU63
 221 007e 0CF1010C 		add	ip, ip, #1
 222              	.LVL23:
 223              	.L4:
 224              	.LBB3:
  48:Inc/clock_rtc.h ****         if (leap && m == 2)
 225              		.loc 1 48 9 is_stmt 1 view .LVU64
  48:Inc/clock_rtc.h ****         if (leap && m == 2)
 226              		.loc 1 48 46 is_stmt 0 view .LVU65
 227 0082 0CF1FF3E 		add	lr, ip, #-1
  48:Inc/clock_rtc.h ****         if (leap && m == 2)
 228              		.loc 1 48 17 view .LVU66
 229 0086 164B     		ldr	r3, .L10+20
ARM GAS  C:\Users\behun\AppData\Local\Temp\cc0Mb0cf.s 			page 6


 230 0088 13F80E20 		ldrb	r2, [r3, lr]	@ zero_extendqisi2
 231              	.LVL24:
  49:Inc/clock_rtc.h ****             ++daysPerMonth;
 232              		.loc 1 49 9 is_stmt 1 view .LVU67
  49:Inc/clock_rtc.h ****             ++daysPerMonth;
 233              		.loc 1 49 12 is_stmt 0 view .LVU68
 234 008c 002C     		cmp	r4, #0
 235 008e F1D1     		bne	.L6
  49:Inc/clock_rtc.h ****             ++daysPerMonth;
 236              		.loc 1 49 18 discriminator 1 view .LVU69
 237 0090 BCF1020F 		cmp	ip, #2
 238 0094 EED1     		bne	.L6
  50:Inc/clock_rtc.h ****         if (days < daysPerMonth)
 239              		.loc 1 50 13 is_stmt 1 view .LVU70
 240 0096 0132     		adds	r2, r2, #1
 241              	.LVL25:
  50:Inc/clock_rtc.h ****         if (days < daysPerMonth)
 242              		.loc 1 50 13 is_stmt 0 view .LVU71
 243 0098 D2B2     		uxtb	r2, r2
 244              	.LVL26:
  50:Inc/clock_rtc.h ****         if (days < daysPerMonth)
 245              		.loc 1 50 13 view .LVU72
 246 009a EBE7     		b	.L6
 247              	.LVL27:
 248              	.L7:
  50:Inc/clock_rtc.h ****         if (days < daysPerMonth)
 249              		.loc 1 50 13 view .LVU73
 250              	.LBE3:
  54:Inc/clock_rtc.h ****     }
  55:Inc/clock_rtc.h ****     d = days + 1;
 251              		.loc 1 55 5 is_stmt 1 view .LVU74
 252              		.loc 1 55 14 is_stmt 0 view .LVU75
 253 009c 0131     		adds	r1, r1, #1
 254              	.LVL28:
  56:Inc/clock_rtc.h **** 
  57:Inc/clock_rtc.h ****     time_struct.tm_year = (yOff + 100);//1900
 255              		.loc 1 57 5 is_stmt 1 view .LVU76
 256              		.loc 1 57 33 is_stmt 0 view .LVU77
 257 009e 6430     		adds	r0, r0, #100
 258              	.LVL29:
 259              		.loc 1 57 25 view .LVU78
 260 00a0 0690     		str	r0, [sp, #24]
  58:Inc/clock_rtc.h ****     time_struct.tm_mon = m - 1;
 261              		.loc 1 58 5 is_stmt 1 view .LVU79
 262              		.loc 1 58 24 is_stmt 0 view .LVU80
 263 00a2 CDF814E0 		str	lr, [sp, #20]
  59:Inc/clock_rtc.h ****     time_struct.tm_mday = d;
 264              		.loc 1 59 5 is_stmt 1 view .LVU81
 265              		.loc 1 59 25 is_stmt 0 view .LVU82
 266 00a6 0491     		str	r1, [sp, #16]
  60:Inc/clock_rtc.h ****     time_struct.tm_hour = hh;
 267              		.loc 1 60 5 is_stmt 1 view .LVU83
 268              		.loc 1 60 25 is_stmt 0 view .LVU84
 269 00a8 0396     		str	r6, [sp, #12]
  61:Inc/clock_rtc.h ****     time_struct.tm_min = mm;
 270              		.loc 1 61 5 is_stmt 1 view .LVU85
 271              		.loc 1 61 24 is_stmt 0 view .LVU86
ARM GAS  C:\Users\behun\AppData\Local\Temp\cc0Mb0cf.s 			page 7


 272 00aa 0295     		str	r5, [sp, #8]
  62:Inc/clock_rtc.h ****     time_struct.tm_sec = ss;
 273              		.loc 1 62 5 is_stmt 1 view .LVU87
 274              		.loc 1 62 24 is_stmt 0 view .LVU88
 275 00ac 0197     		str	r7, [sp, #4]
  63:Inc/clock_rtc.h ****     mktime(&time_struct);
 276              		.loc 1 63 5 is_stmt 1 view .LVU89
 277 00ae 01A8     		add	r0, sp, #4
 278              	.LVL30:
 279              		.loc 1 63 5 is_stmt 0 view .LVU90
 280 00b0 FFF7FEFF 		bl	mktime
 281              	.LVL31:
  64:Inc/clock_rtc.h ****     return time_struct;
 282              		.loc 1 64 5 is_stmt 1 view .LVU91
 283              		.loc 1 64 12 is_stmt 0 view .LVU92
 284 00b4 4646     		mov	r6, r8
 285              	.LVL32:
 286              		.loc 1 64 12 view .LVU93
 287 00b6 01AD     		add	r5, sp, #4
 288              	.LVL33:
 289              		.loc 1 64 12 view .LVU94
 290 00b8 0FCD     		ldmia	r5!, {r0, r1, r2, r3}
 291 00ba 0FC6     		stmia	r6!, {r0, r1, r2, r3}
 292 00bc 0FCD     		ldmia	r5!, {r0, r1, r2, r3}
 293 00be 0FC6     		stmia	r6!, {r0, r1, r2, r3}
 294 00c0 2B68     		ldr	r3, [r5]
 295 00c2 3360     		str	r3, [r6]
  65:Inc/clock_rtc.h **** }
 296              		.loc 1 65 1 view .LVU95
 297 00c4 4046     		mov	r0, r8
 298 00c6 0AB0     		add	sp, sp, #40
 299              	.LCFI5:
 300              		.cfi_def_cfa_offset 24
 301              		@ sp needed
 302 00c8 BDE8F081 		pop	{r4, r5, r6, r7, r8, pc}
 303              	.LVL34:
 304              	.L11:
 305              		.loc 1 65 1 view .LVU96
 306              		.align	2
 307              	.L10:
 308 00cc 80BC92C7 		.word	-946684800
 309 00d0 89888888 		.word	-2004318071
 310 00d4 C5B3A291 		.word	-1851608123
 311 00d8 ABAAAAAA 		.word	-1431655765
 312 00dc 07452EC2 		.word	-1037155065
 313 00e0 00000000 		.word	.LANCHOR0
 314              		.cfi_endproc
 315              	.LFE67:
 317              		.section	.text.RTC_Init,"ax",%progbits
 318              		.align	1
 319              		.global	RTC_Init
 320              		.syntax unified
 321              		.thumb
 322              		.thumb_func
 323              		.fpu softvfp
 325              	RTC_Init:
 326              	.LFB68:
ARM GAS  C:\Users\behun\AppData\Local\Temp\cc0Mb0cf.s 			page 8


 327              		.file 2 "Src/clock_rtc.c"
   1:Src/clock_rtc.c **** #include "clock_rtc.h"
   2:Src/clock_rtc.c **** 
   3:Src/clock_rtc.c **** void RTC_Init(void)
   4:Src/clock_rtc.c **** {
 328              		.loc 2 4 1 is_stmt 1 view -0
 329              		.cfi_startproc
 330              		@ args = 0, pretend = 0, frame = 0
 331              		@ frame_needed = 0, uses_anonymous_args = 0
 332 0000 10B5     		push	{r4, lr}
 333              	.LCFI6:
 334              		.cfi_def_cfa_offset 8
 335              		.cfi_offset 4, -8
 336              		.cfi_offset 14, -4
 337 0002 82B0     		sub	sp, sp, #8
 338              	.LCFI7:
 339              		.cfi_def_cfa_offset 16
   5:Src/clock_rtc.c ****     uint32_t return_time;
 340              		.loc 2 5 5 view .LVU98
   6:Src/clock_rtc.c ****     hrtc.Instance = RTC;
 341              		.loc 2 6 5 view .LVU99
 342              		.loc 2 6 19 is_stmt 0 view .LVU100
 343 0004 204C     		ldr	r4, .L21
 344 0006 214B     		ldr	r3, .L21+4
 345 0008 2360     		str	r3, [r4]
   7:Src/clock_rtc.c ****     hrtc.Init.AsynchPrediv = RTC_AUTO_1_SECOND;
 346              		.loc 2 7 5 is_stmt 1 view .LVU101
 347              		.loc 2 7 28 is_stmt 0 view .LVU102
 348 000a 4FF0FF33 		mov	r3, #-1
 349 000e 6360     		str	r3, [r4, #4]
   8:Src/clock_rtc.c **** 	HAL_RTC_Init(&hrtc);
 350              		.loc 2 8 2 is_stmt 1 view .LVU103
 351 0010 2046     		mov	r0, r4
 352 0012 FFF7FEFF 		bl	HAL_RTC_Init
 353              	.LVL35:
   9:Src/clock_rtc.c ****         if (HAL_RTCEx_BKUPRead(&hrtc, RTC_BKP_DR1) != 0x32F2) //0x32F2
 354              		.loc 2 9 9 view .LVU104
 355              		.loc 2 9 13 is_stmt 0 view .LVU105
 356 0016 0121     		movs	r1, #1
 357 0018 2046     		mov	r0, r4
 358 001a FFF7FEFF 		bl	HAL_RTCEx_BKUPRead
 359              	.LVL36:
 360              		.loc 2 9 12 view .LVU106
 361 001e 43F2F223 		movw	r3, #13042
 362 0022 9842     		cmp	r0, r3
 363 0024 11D1     		bne	.L18
  10:Src/clock_rtc.c ****         {
  11:Src/clock_rtc.c ****             return_time = set_time(2019, 10, 11, 13, 25, 30);    //Setup Time
  12:Src/clock_rtc.c ****         
  13:Src/clock_rtc.c ****         RTC_WriteTimeCounter(&hrtc,return_time) ;  // ghi vao thanh ghi gia tri Timestamp
  14:Src/clock_rtc.c ****         HAL_RTCEx_BKUPWrite(&hrtc, RTC_BKP_DR1, 0x32F2);   
  15:Src/clock_rtc.c ****         }
  16:Src/clock_rtc.c ****         else
  17:Src/clock_rtc.c ****         {
  18:Src/clock_rtc.c ****             if (__HAL_RCC_GET_FLAG(RCC_FLAG_PORRST) != RESET)
 364              		.loc 2 18 13 is_stmt 1 view .LVU107
 365              		.loc 2 18 17 is_stmt 0 view .LVU108
ARM GAS  C:\Users\behun\AppData\Local\Temp\cc0Mb0cf.s 			page 9


 366 0026 1A4B     		ldr	r3, .L21+8
 367 0028 5B6A     		ldr	r3, [r3, #36]
 368              		.loc 2 18 16 view .LVU109
 369 002a 13F0006F 		tst	r3, #134217728
 370 002e 22D1     		bne	.L19
 371              	.L15:
  19:Src/clock_rtc.c ****             {
  20:Src/clock_rtc.c ****             printf("\n ..");
  21:Src/clock_rtc.c ****             }
  22:Src/clock_rtc.c ****             if (__HAL_RCC_GET_FLAG(RCC_FLAG_PINRST) != RESET)
 372              		.loc 2 22 13 is_stmt 1 view .LVU110
 373              		.loc 2 22 17 is_stmt 0 view .LVU111
 374 0030 174B     		ldr	r3, .L21+8
 375 0032 5B6A     		ldr	r3, [r3, #36]
 376              		.loc 2 22 16 view .LVU112
 377 0034 13F0806F 		tst	r3, #67108864
 378 0038 21D1     		bne	.L20
 379              	.L16:
  23:Src/clock_rtc.c ****             {
  24:Src/clock_rtc.c ****             printf("\n ...");
  25:Src/clock_rtc.c ****             }
  26:Src/clock_rtc.c ****             /* Clear source Reset Flag */
  27:Src/clock_rtc.c ****             __HAL_RCC_CLEAR_RESET_FLAGS();
 380              		.loc 2 27 13 is_stmt 1 view .LVU113
 381 003a 164B     		ldr	r3, .L21+12
 382 003c 0122     		movs	r2, #1
 383 003e 1A60     		str	r2, [r3]
 384              	.L14:
  28:Src/clock_rtc.c ****         }
  29:Src/clock_rtc.c ****     HAL_RTCEx_SetSecond_IT(&hrtc);
 385              		.loc 2 29 5 view .LVU114
 386 0040 1148     		ldr	r0, .L21
 387 0042 FFF7FEFF 		bl	HAL_RTCEx_SetSecond_IT
 388              	.LVL37:
  30:Src/clock_rtc.c **** }
 389              		.loc 2 30 1 is_stmt 0 view .LVU115
 390 0046 02B0     		add	sp, sp, #8
 391              	.LCFI8:
 392              		.cfi_remember_state
 393              		.cfi_def_cfa_offset 8
 394              		@ sp needed
 395 0048 10BD     		pop	{r4, pc}
 396              	.L18:
 397              	.LCFI9:
 398              		.cfi_restore_state
  11:Src/clock_rtc.c ****         
 399              		.loc 2 11 13 is_stmt 1 view .LVU116
  11:Src/clock_rtc.c ****         
 400              		.loc 2 11 27 is_stmt 0 view .LVU117
 401 004a 1E23     		movs	r3, #30
 402 004c 0193     		str	r3, [sp, #4]
 403 004e 1923     		movs	r3, #25
 404 0050 0093     		str	r3, [sp]
 405 0052 0D23     		movs	r3, #13
 406 0054 0B22     		movs	r2, #11
 407 0056 0A21     		movs	r1, #10
 408 0058 40F2E370 		movw	r0, #2019
ARM GAS  C:\Users\behun\AppData\Local\Temp\cc0Mb0cf.s 			page 10


 409 005c FFF7FEFF 		bl	set_time
 410              	.LVL38:
  13:Src/clock_rtc.c ****         HAL_RTCEx_BKUPWrite(&hrtc, RTC_BKP_DR1, 0x32F2);   
 411              		.loc 2 13 9 is_stmt 1 view .LVU118
 412 0060 0146     		mov	r1, r0
 413 0062 2046     		mov	r0, r4
 414              	.LVL39:
  13:Src/clock_rtc.c ****         HAL_RTCEx_BKUPWrite(&hrtc, RTC_BKP_DR1, 0x32F2);   
 415              		.loc 2 13 9 is_stmt 0 view .LVU119
 416 0064 FFF7FEFF 		bl	RTC_WriteTimeCounter
 417              	.LVL40:
  14:Src/clock_rtc.c ****         }
 418              		.loc 2 14 9 is_stmt 1 view .LVU120
 419 0068 43F2F222 		movw	r2, #13042
 420 006c 0121     		movs	r1, #1
 421 006e 2046     		mov	r0, r4
 422 0070 FFF7FEFF 		bl	HAL_RTCEx_BKUPWrite
 423              	.LVL41:
 424 0074 E4E7     		b	.L14
 425              	.L19:
  20:Src/clock_rtc.c ****             }
 426              		.loc 2 20 13 view .LVU121
 427 0076 0848     		ldr	r0, .L21+16
 428 0078 FFF7FEFF 		bl	printf
 429              	.LVL42:
 430 007c D8E7     		b	.L15
 431              	.L20:
  24:Src/clock_rtc.c ****             }
 432              		.loc 2 24 13 view .LVU122
 433 007e 0748     		ldr	r0, .L21+20
 434 0080 FFF7FEFF 		bl	printf
 435              	.LVL43:
 436 0084 D9E7     		b	.L16
 437              	.L22:
 438 0086 00BF     		.align	2
 439              	.L21:
 440 0088 00000000 		.word	hrtc
 441 008c 00280040 		.word	1073752064
 442 0090 00100240 		.word	1073876992
 443 0094 E0044242 		.word	1111622880
 444 0098 00000000 		.word	.LC0
 445 009c 08000000 		.word	.LC1
 446              		.cfi_endproc
 447              	.LFE68:
 449              		.section	.text.RTC_CalendarShow,"ax",%progbits
 450              		.align	1
 451              		.global	RTC_CalendarShow
 452              		.syntax unified
 453              		.thumb
 454              		.thumb_func
 455              		.fpu softvfp
 457              	RTC_CalendarShow:
 458              	.LFB69:
  31:Src/clock_rtc.c **** void RTC_CalendarShow(void)
  32:Src/clock_rtc.c **** {
 459              		.loc 2 32 1 view -0
 460              		.cfi_startproc
ARM GAS  C:\Users\behun\AppData\Local\Temp\cc0Mb0cf.s 			page 11


 461              		@ args = 0, pretend = 0, frame = 80
 462              		@ frame_needed = 0, uses_anonymous_args = 0
 463 0000 2DE9F047 		push	{r4, r5, r6, r7, r8, r9, r10, lr}
 464              	.LCFI10:
 465              		.cfi_def_cfa_offset 32
 466              		.cfi_offset 4, -32
 467              		.cfi_offset 5, -28
 468              		.cfi_offset 6, -24
 469              		.cfi_offset 7, -20
 470              		.cfi_offset 8, -16
 471              		.cfi_offset 9, -12
 472              		.cfi_offset 10, -8
 473              		.cfi_offset 14, -4
 474 0004 96B0     		sub	sp, sp, #88
 475              	.LCFI11:
 476              		.cfi_def_cfa_offset 120
  33:Src/clock_rtc.c ****     RTC_DateTypeDef sdatestructureget;
 477              		.loc 2 33 5 view .LVU124
  34:Src/clock_rtc.c ****     RTC_TimeTypeDef stimestructureget;
 478              		.loc 2 34 5 view .LVU125
  35:Src/clock_rtc.c ****     char sprintfTime[20];
 479              		.loc 2 35 5 view .LVU126
  36:Src/clock_rtc.c ****     char sprintfDate[20];
 480              		.loc 2 36 5 view .LVU127
  37:Src/clock_rtc.c ****     uint32_t time = RTC_ReadTimeCounter(&hrtc);
 481              		.loc 2 37 5 view .LVU128
 482              		.loc 2 37 21 is_stmt 0 view .LVU129
 483 0006 2448     		ldr	r0, .L25
 484 0008 FFF7FEFF 		bl	RTC_ReadTimeCounter
 485              	.LVL44:
 486 000c 8246     		mov	r10, r0
 487              	.LVL45:
  38:Src/clock_rtc.c ****     struct tm time_struct =convert_time_stamp(time);
 488              		.loc 2 38 5 is_stmt 1 view .LVU130
 489              		.loc 2 38 28 is_stmt 0 view .LVU131
 490 000e 0146     		mov	r1, r0
 491 0010 03A8     		add	r0, sp, #12
 492              	.LVL46:
 493              		.loc 2 38 28 view .LVU132
 494 0012 FFF7FEFF 		bl	convert_time_stamp
 495              	.LVL47:
  39:Src/clock_rtc.c **** 
  40:Src/clock_rtc.c ****     printf((char *)sprintfTime, "%0.2d:%0.2d:%0.2d", time_struct.tm_hour,time_struct.tm_min,time_st
 496              		.loc 2 40 5 is_stmt 1 view .LVU133
 497 0016 059F     		ldr	r7, [sp, #20]
 498 0018 DDF81080 		ldr	r8, [sp, #16]
 499 001c DDF80C90 		ldr	r9, [sp, #12]
 500 0020 CDF80090 		str	r9, [sp]
 501 0024 4346     		mov	r3, r8
 502 0026 3A46     		mov	r2, r7
 503 0028 1C49     		ldr	r1, .L25+4
 504 002a 11A8     		add	r0, sp, #68
 505 002c FFF7FEFF 		bl	printf
 506              	.LVL48:
  41:Src/clock_rtc.c ****     printf((char *)sprintfDate, ">>>%0.2d-%0.2d-%0.2d<<<",time_struct.tm_mday,time_struct.tm_mon, 2
 507              		.loc 2 41 5 view .LVU134
 508 0030 069E     		ldr	r6, [sp, #24]
ARM GAS  C:\Users\behun\AppData\Local\Temp\cc0Mb0cf.s 			page 12


 509 0032 079D     		ldr	r5, [sp, #28]
 510              		.loc 2 41 117 is_stmt 0 view .LVU135
 511 0034 089C     		ldr	r4, [sp, #32]
 512              		.loc 2 41 5 view .LVU136
 513 0036 04F26C73 		addw	r3, r4, #1900
 514 003a 0093     		str	r3, [sp]
 515 003c 2B46     		mov	r3, r5
 516 003e 3246     		mov	r2, r6
 517 0040 1749     		ldr	r1, .L25+8
 518 0042 0CA8     		add	r0, sp, #48
 519 0044 FFF7FEFF 		bl	printf
 520              	.LVL49:
  42:Src/clock_rtc.c **** 
  43:Src/clock_rtc.c ****     printf("\nTimestamp = %d\n", time);
 521              		.loc 2 43 5 is_stmt 1 view .LVU137
 522 0048 5146     		mov	r1, r10
 523 004a 1648     		ldr	r0, .L25+12
 524 004c FFF7FEFF 		bl	printf
 525              	.LVL50:
  44:Src/clock_rtc.c ****     printf("tm.Second  = %d\n",time_struct.tm_sec);
 526              		.loc 2 44 5 view .LVU138
 527 0050 4946     		mov	r1, r9
 528 0052 1548     		ldr	r0, .L25+16
 529 0054 FFF7FEFF 		bl	printf
 530              	.LVL51:
  45:Src/clock_rtc.c ****     printf("tm.Minute  = %d\n",time_struct.tm_min);
 531              		.loc 2 45 5 view .LVU139
 532 0058 4146     		mov	r1, r8
 533 005a 1448     		ldr	r0, .L25+20
 534 005c FFF7FEFF 		bl	printf
 535              	.LVL52:
  46:Src/clock_rtc.c ****     printf("tm.Hour    = %d\n",time_struct.tm_hour);
 536              		.loc 2 46 5 view .LVU140
 537 0060 3946     		mov	r1, r7
 538 0062 1348     		ldr	r0, .L25+24
 539 0064 FFF7FEFF 		bl	printf
 540              	.LVL53:
  47:Src/clock_rtc.c ****     printf("tm.Wday    = %d\n",time_struct.tm_wday);  // chu y cac thu trong tuan (0-6)
 541              		.loc 2 47 5 view .LVU141
 542 0068 0999     		ldr	r1, [sp, #36]
 543 006a 1248     		ldr	r0, .L25+28
 544 006c FFF7FEFF 		bl	printf
 545              	.LVL54:
  48:Src/clock_rtc.c ****     printf("tm.Day     = %d\n",time_struct.tm_mday);
 546              		.loc 2 48 5 view .LVU142
 547 0070 3146     		mov	r1, r6
 548 0072 1148     		ldr	r0, .L25+32
 549 0074 FFF7FEFF 		bl	printf
 550              	.LVL55:
  49:Src/clock_rtc.c ****     printf("tm.Month   = %d\n",time_struct.tm_mon);
 551              		.loc 2 49 5 view .LVU143
 552 0078 2946     		mov	r1, r5
 553 007a 1048     		ldr	r0, .L25+36
 554 007c FFF7FEFF 		bl	printf
 555              	.LVL56:
  50:Src/clock_rtc.c ****     printf("tm.Year    = %d\n",time_struct.tm_year-100);
 556              		.loc 2 50 5 view .LVU144
ARM GAS  C:\Users\behun\AppData\Local\Temp\cc0Mb0cf.s 			page 13


 557 0080 A4F16401 		sub	r1, r4, #100
 558 0084 0E48     		ldr	r0, .L25+40
 559 0086 FFF7FEFF 		bl	printf
 560              	.LVL57:
  51:Src/clock_rtc.c ****     printf("\n-----------------------------------\n");
 561              		.loc 2 51 5 view .LVU145
 562 008a 0E48     		ldr	r0, .L25+44
 563 008c FFF7FEFF 		bl	puts
 564              	.LVL58:
  52:Src/clock_rtc.c **** }...
 565              		.loc 2 52 1 is_stmt 0 view .LVU146
 566 0090 16B0     		add	sp, sp, #88
 567              	.LCFI12:
 568              		.cfi_def_cfa_offset 32
 569              		@ sp needed
 570 0092 BDE8F087 		pop	{r4, r5, r6, r7, r8, r9, r10, pc}
 571              	.LVL59:
 572              	.L26:
 573              		.loc 2 52 1 view .LVU147
 574 0096 00BF     		.align	2
 575              	.L25:
 576 0098 00000000 		.word	hrtc
 577 009c 00000000 		.word	.LC2
 578 00a0 14000000 		.word	.LC3
 579 00a4 2C000000 		.word	.LC4
 580 00a8 40000000 		.word	.LC5
 581 00ac 54000000 		.word	.LC6
 582 00b0 68000000 		.word	.LC7
 583 00b4 7C000000 		.word	.LC8
 584 00b8 90000000 		.word	.LC9
 585 00bc A4000000 		.word	.LC10
 586 00c0 B8000000 		.word	.LC11
 587 00c4 CC000000 		.word	.LC12
 588              		.cfi_endproc
 589              	.LFE69:
 591              		.global	daysInMonth
 592              		.comm	hrtc,20,4
 593              		.section	.rodata.RTC_CalendarShow.str1.4,"aMS",%progbits,1
 594              		.align	2
 595              	.LC2:
 596 0000 25302E32 		.ascii	"%0.2d:%0.2d:%0.2d\000"
 596      643A2530 
 596      2E32643A 
 596      25302E32 
 596      6400
 597 0012 0000     		.space	2
 598              	.LC3:
 599 0014 3E3E3E25 		.ascii	">>>%0.2d-%0.2d-%0.2d<<<\000"
 599      302E3264 
 599      2D25302E 
 599      32642D25 
 599      302E3264 
 600              	.LC4:
 601 002c 0A54696D 		.ascii	"\012Timestamp = %d\012\000"
 601      65737461 
 601      6D70203D 
 601      2025640A 
ARM GAS  C:\Users\behun\AppData\Local\Temp\cc0Mb0cf.s 			page 14


 601      00
 602 003d 000000   		.space	3
 603              	.LC5:
 604 0040 746D2E53 		.ascii	"tm.Second  = %d\012\000"
 604      65636F6E 
 604      6420203D 
 604      2025640A 
 604      00
 605 0051 000000   		.space	3
 606              	.LC6:
 607 0054 746D2E4D 		.ascii	"tm.Minute  = %d\012\000"
 607      696E7574 
 607      6520203D 
 607      2025640A 
 607      00
 608 0065 000000   		.space	3
 609              	.LC7:
 610 0068 746D2E48 		.ascii	"tm.Hour    = %d\012\000"
 610      6F757220 
 610      2020203D 
 610      2025640A 
 610      00
 611 0079 000000   		.space	3
 612              	.LC8:
 613 007c 746D2E57 		.ascii	"tm.Wday    = %d\012\000"
 613      64617920 
 613      2020203D 
 613      2025640A 
 613      00
 614 008d 000000   		.space	3
 615              	.LC9:
 616 0090 746D2E44 		.ascii	"tm.Day     = %d\012\000"
 616      61792020 
 616      2020203D 
 616      2025640A 
 616      00
 617 00a1 000000   		.space	3
 618              	.LC10:
 619 00a4 746D2E4D 		.ascii	"tm.Month   = %d\012\000"
 619      6F6E7468 
 619      2020203D 
 619      2025640A 
 619      00
 620 00b5 000000   		.space	3
 621              	.LC11:
 622 00b8 746D2E59 		.ascii	"tm.Year    = %d\012\000"
 622      65617220 
 622      2020203D 
 622      2025640A 
 622      00
 623 00c9 000000   		.space	3
 624              	.LC12:
 625 00cc 0A2D2D2D 		.ascii	"\012-----------------------------------\000"
 625      2D2D2D2D 
 625      2D2D2D2D 
 625      2D2D2D2D 
 625      2D2D2D2D 
ARM GAS  C:\Users\behun\AppData\Local\Temp\cc0Mb0cf.s 			page 15


 626              		.section	.rodata.RTC_Init.str1.4,"aMS",%progbits,1
 627              		.align	2
 628              	.LC0:
 629 0000 0A202E2E 		.ascii	"\012 ..\000"
 629      00
 630 0005 000000   		.space	3
 631              	.LC1:
 632 0008 0A202E2E 		.ascii	"\012 ...\000"
 632      2E00
 633              		.section	.rodata.daysInMonth,"a"
 634              		.align	2
 635              		.set	.LANCHOR0,. + 0
 638              	daysInMonth:
 639 0000 1F       		.byte	31
 640 0001 1C       		.byte	28
 641 0002 1F       		.byte	31
 642 0003 1E       		.byte	30
 643 0004 1F       		.byte	31
 644 0005 1E       		.byte	30
 645 0006 1F       		.byte	31
 646 0007 1F       		.byte	31
 647 0008 1E       		.byte	30
 648 0009 1F       		.byte	31
 649 000a 1E       		.byte	30
 650 000b 1F       		.byte	31
 651              		.text
 652              	.Letext0:
 653              		.file 3 "c:\\program files (x86)\\gnu tools arm embedded\\8 2019-q3-update\\arm-none-eabi\\include
 654              		.file 4 "c:\\program files (x86)\\gnu tools arm embedded\\8 2019-q3-update\\arm-none-eabi\\include
 655              		.file 5 "Drivers/CMSIS/Include/core_cm3.h"
 656              		.file 6 "Drivers/CMSIS/Device/ST/STM32F1xx/Include/system_stm32f1xx.h"
 657              		.file 7 "Drivers/CMSIS/Device/ST/STM32F1xx/Include/stm32f103xe.h"
 658              		.file 8 "Drivers/CMSIS/Device/ST/STM32F1xx/Include/stm32f1xx.h"
 659              		.file 9 "c:\\program files (x86)\\gnu tools arm embedded\\8 2019-q3-update\\lib\\gcc\\arm-none-eab
 660              		.file 10 "c:\\program files (x86)\\gnu tools arm embedded\\8 2019-q3-update\\arm-none-eabi\\includ
 661              		.file 11 "c:\\program files (x86)\\gnu tools arm embedded\\8 2019-q3-update\\arm-none-eabi\\includ
 662              		.file 12 "c:\\program files (x86)\\gnu tools arm embedded\\8 2019-q3-update\\arm-none-eabi\\includ
 663              		.file 13 "c:\\program files (x86)\\gnu tools arm embedded\\8 2019-q3-update\\arm-none-eabi\\includ
 664              		.file 14 "Drivers/STM32F1xx_HAL_Driver/Inc/stm32f1xx_hal_def.h"
 665              		.file 15 "Drivers/STM32F1xx_HAL_Driver/Inc/stm32f1xx_hal.h"
 666              		.file 16 "c:\\program files (x86)\\gnu tools arm embedded\\8 2019-q3-update\\arm-none-eabi\\includ
 667              		.file 17 "Drivers/STM32F1xx_HAL_Driver/Inc/stm32f1xx_hal_rtc.h"
 668              		.file 18 "c:\\program files (x86)\\gnu tools arm embedded\\8 2019-q3-update\\arm-none-eabi\\includ
 669              		.file 19 "Drivers/STM32F1xx_HAL_Driver/Inc/stm32f1xx_hal_rtc_ex.h"
 670              		.file 20 "<built-in>"
ARM GAS  C:\Users\behun\AppData\Local\Temp\cc0Mb0cf.s 			page 16

