ARM GAS  C:\Users\behun\AppData\Local\Temp\cc6sPgLj.s 			page 1


   1              		.cpu cortex-m3
   2              		.eabi_attribute 20, 1
   3              		.eabi_attribute 21, 1
   4              		.eabi_attribute 23, 3
   5              		.eabi_attribute 24, 1
   6              		.eabi_attribute 25, 1
   7              		.eabi_attribute 26, 1
   8              		.eabi_attribute 30, 1
   9              		.eabi_attribute 34, 1
  10              		.eabi_attribute 18, 4
  11              		.file	"info_screen.c"
  12              		.text
  13              	.Ltext0:
  14              		.cfi_sections	.debug_frame
  15              		.section	.text.Info_Screen_Init,"ax",%progbits
  16              		.align	1
  17              		.global	Info_Screen_Init
  18              		.arch armv7-m
  19              		.syntax unified
  20              		.thumb
  21              		.thumb_func
  22              		.fpu softvfp
  24              	Info_Screen_Init:
  25              	.LFB66:
  26              		.file 1 "Src/info_screen.c"
   1:Src/info_screen.c **** #include "info_screen.h"
   2:Src/info_screen.c **** #include "u8g2.h"
   3:Src/info_screen.c **** #include "user_bitmap.h"
   4:Src/info_screen.c **** #include "clock_rtc.h"
   5:Src/info_screen.c **** #include "filter_data.h"
   6:Src/info_screen.c **** #include <stdlib.h>
   7:Src/info_screen.c **** 
   8:Src/info_screen.c **** u8g2_t u8g2;
   9:Src/info_screen.c **** 
  10:Src/info_screen.c **** INFO_SCREEN_STR Info_Scr;
  11:Src/info_screen.c **** 
  12:Src/info_screen.c **** void Info_Screen_Init(void)
  13:Src/info_screen.c **** {
  27              		.loc 1 13 1 view -0
  28              		.cfi_startproc
  29              		@ args = 0, pretend = 0, frame = 0
  30              		@ frame_needed = 0, uses_anonymous_args = 0
  31 0000 10B5     		push	{r4, lr}
  32              	.LCFI0:
  33              		.cfi_def_cfa_offset 8
  34              		.cfi_offset 4, -8
  35              		.cfi_offset 14, -4
  14:Src/info_screen.c ****     Info_Scr.SysTime = 0;
  36              		.loc 1 14 5 view .LVU1
  37              		.loc 1 14 22 is_stmt 0 view .LVU2
  38 0002 074C     		ldr	r4, .L3
  39 0004 0023     		movs	r3, #0
  40 0006 2370     		strb	r3, [r4]
  15:Src/info_screen.c ****     Info_Scr.SysWork = 0;
  41              		.loc 1 15 5 is_stmt 1 view .LVU3
  42              		.loc 1 15 22 is_stmt 0 view .LVU4
  43 0008 6370     		strb	r3, [r4, #1]
ARM GAS  C:\Users\behun\AppData\Local\Temp\cc6sPgLj.s 			page 2


  16:Src/info_screen.c ****     Info_Scr.Filter_Pa = 0;
  44              		.loc 1 16 5 is_stmt 1 view .LVU5
  45              		.loc 1 16 24 is_stmt 0 view .LVU6
  46 000a A370     		strb	r3, [r4, #2]
  17:Src/info_screen.c ****     Info_Scr.Filter_Time = 0;
  47              		.loc 1 17 5 is_stmt 1 view .LVU7
  48              		.loc 1 17 26 is_stmt 0 view .LVU8
  49 000c E370     		strb	r3, [r4, #3]
  18:Src/info_screen.c ****     Info_Scr.Flow = 0;
  50              		.loc 1 18 5 is_stmt 1 view .LVU9
  51              		.loc 1 18 19 is_stmt 0 view .LVU10
  52 000e 2371     		strb	r3, [r4, #4]
  19:Src/info_screen.c ****     Info_Scr.UV = 0;
  53              		.loc 1 19 5 is_stmt 1 view .LVU11
  54              		.loc 1 19 17 is_stmt 0 view .LVU12
  55 0010 6371     		strb	r3, [r4, #5]
  20:Src/info_screen.c ****     Info_Scr.Temp = 0;
  56              		.loc 1 20 5 is_stmt 1 view .LVU13
  57              		.loc 1 20 19 is_stmt 0 view .LVU14
  58 0012 A371     		strb	r3, [r4, #6]
  21:Src/info_screen.c ****     Info_Scr.Door = 2;
  59              		.loc 1 21 5 is_stmt 1 view .LVU15
  60              		.loc 1 21 19 is_stmt 0 view .LVU16
  61 0014 0223     		movs	r3, #2
  62 0016 E371     		strb	r3, [r4, #7]
  22:Src/info_screen.c ****     Info_Scr.tick = HAL_GetTick();
  63              		.loc 1 22 5 is_stmt 1 view .LVU17
  64              		.loc 1 22 21 is_stmt 0 view .LVU18
  65 0018 FFF7FEFF 		bl	HAL_GetTick
  66              	.LVL0:
  67              		.loc 1 22 19 view .LVU19
  68 001c A060     		str	r0, [r4, #8]
  23:Src/info_screen.c **** }
  69              		.loc 1 23 1 view .LVU20
  70 001e 10BD     		pop	{r4, pc}
  71              	.L4:
  72              		.align	2
  73              	.L3:
  74 0020 00000000 		.word	Info_Scr
  75              		.cfi_endproc
  76              	.LFE66:
  78              		.section	.text.SysTime,"ax",%progbits
  79              		.align	1
  80              		.global	SysTime
  81              		.syntax unified
  82              		.thumb
  83              		.thumb_func
  84              		.fpu softvfp
  86              	SysTime:
  87              	.LVL1:
  88              	.LFB67:
  24:Src/info_screen.c **** 
  25:Src/info_screen.c **** void SysTime(uint8_t TimeStatus)
  26:Src/info_screen.c **** {
  89              		.loc 1 26 1 is_stmt 1 view -0
  90              		.cfi_startproc
  91              		@ args = 0, pretend = 0, frame = 16
ARM GAS  C:\Users\behun\AppData\Local\Temp\cc6sPgLj.s 			page 3


  92              		@ frame_needed = 0, uses_anonymous_args = 0
  27:Src/info_screen.c ****     uint8_t buff[11];
  93              		.loc 1 27 5 view .LVU22
  28:Src/info_screen.c ****     uint8_t dot;
  94              		.loc 1 28 5 view .LVU23
  29:Src/info_screen.c ****     switch (TimeStatus)
  95              		.loc 1 29 5 view .LVU24
  96 0000 0028     		cmp	r0, #0
  97 0002 40D1     		bne	.L11
  26:Src/info_screen.c ****     uint8_t buff[11];
  98              		.loc 1 26 1 is_stmt 0 view .LVU25
  99 0004 10B5     		push	{r4, lr}
 100              	.LCFI1:
 101              		.cfi_def_cfa_offset 8
 102              		.cfi_offset 4, -8
 103              		.cfi_offset 14, -4
 104 0006 86B0     		sub	sp, sp, #24
 105              	.LCFI2:
 106              		.cfi_def_cfa_offset 32
 107 0008 0024     		movs	r4, #0
  30:Src/info_screen.c ****     {
  31:Src/info_screen.c ****     case 0:
  32:Src/info_screen.c ****         if (localTime.sec % 2 == 0)
 108              		.loc 1 32 9 is_stmt 1 view .LVU26
 109              		.loc 1 32 22 is_stmt 0 view .LVU27
 110 000a 1F4B     		ldr	r3, .L14
 111 000c 93F90730 		ldrsb	r3, [r3, #7]
 112              		.loc 1 32 12 view .LVU28
 113 0010 13F0010F 		tst	r3, #1
 114 0014 00D1     		bne	.L7
  33:Src/info_screen.c ****         {
  34:Src/info_screen.c ****             dot = ~dot;
 115              		.loc 1 34 13 is_stmt 1 view .LVU29
 116              		.loc 1 34 17 is_stmt 0 view .LVU30
 117 0016 FF24     		movs	r4, #255
 118              	.LVL2:
 119              	.L7:
  35:Src/info_screen.c ****         }
  36:Src/info_screen.c ****         u8g2_SetFont(&u8g2, u8g2_font_inr21_mf);
 120              		.loc 1 36 9 is_stmt 1 view .LVU31
 121 0018 1C49     		ldr	r1, .L14+4
 122 001a 1D48     		ldr	r0, .L14+8
 123              	.LVL3:
 124              		.loc 1 36 9 is_stmt 0 view .LVU32
 125 001c FFF7FEFF 		bl	u8g2_SetFont
 126              	.LVL4:
  37:Src/info_screen.c ****         if (dot)
 127              		.loc 1 37 9 is_stmt 1 view .LVU33
 128              		.loc 1 37 12 is_stmt 0 view .LVU34
 129 0020 3CB3     		cbz	r4, .L8
  38:Src/info_screen.c ****             sprintf(buff, "%02d:%02d", localTime.hour, localTime.min);
 130              		.loc 1 38 13 is_stmt 1 view .LVU35
 131              		.loc 1 38 49 is_stmt 0 view .LVU36
 132 0022 194A     		ldr	r2, .L14
 133              		.loc 1 38 13 view .LVU37
 134 0024 92F90630 		ldrsb	r3, [r2, #6]
 135 0028 92F90520 		ldrsb	r2, [r2, #5]
ARM GAS  C:\Users\behun\AppData\Local\Temp\cc6sPgLj.s 			page 4


 136 002c 1949     		ldr	r1, .L14+12
 137 002e 03A8     		add	r0, sp, #12
 138 0030 FFF7FEFF 		bl	sprintf
 139              	.LVL5:
 140              	.L9:
  39:Src/info_screen.c ****         else
  40:Src/info_screen.c ****             sprintf(buff, "%02d %02d", localTime.hour, localTime.min);
  41:Src/info_screen.c ****         u8g2_DrawStr(&u8g2, 19, 24, buff); //Variable
 141              		.loc 1 41 9 is_stmt 1 view .LVU38
 142 0034 164C     		ldr	r4, .L14+8
 143              	.LVL6:
 144              		.loc 1 41 9 is_stmt 0 view .LVU39
 145 0036 03AB     		add	r3, sp, #12
 146 0038 1822     		movs	r2, #24
 147 003a 1321     		movs	r1, #19
 148 003c 2046     		mov	r0, r4
 149 003e FFF7FEFF 		bl	u8g2_DrawStr
 150              	.LVL7:
  42:Src/info_screen.c ****         // u8g2_DrawStr(&u8g2, 55, 24, ":");  //Blink for second
  43:Src/info_screen.c ****         // u8g2_DrawStr(&u8g2, 73, 24, "59"); //Variable
  44:Src/info_screen.c ****         u8g2_SetFont(&u8g2, u8g2_font_5x7_tr);
 151              		.loc 1 44 9 is_stmt 1 view .LVU40
 152 0042 1549     		ldr	r1, .L14+16
 153 0044 2046     		mov	r0, r4
 154 0046 FFF7FEFF 		bl	u8g2_SetFont
 155              	.LVL8:
  45:Src/info_screen.c ****         sprintf(buff, "%02d.%02d.%04d", localTime.mday, localTime.month, localTime.year);
 156              		.loc 1 45 9 view .LVU41
 157              		.loc 1 45 50 is_stmt 0 view .LVU42
 158 004a 0F4A     		ldr	r2, .L14
 159              		.loc 1 45 83 view .LVU43
 160 004c B2F90030 		ldrsh	r3, [r2]	@ unaligned
 161              		.loc 1 45 9 view .LVU44
 162 0050 0093     		str	r3, [sp]
 163 0052 92F90230 		ldrsb	r3, [r2, #2]
 164 0056 92F90320 		ldrsb	r2, [r2, #3]
 165 005a 1049     		ldr	r1, .L14+20
 166 005c 03A8     		add	r0, sp, #12
 167 005e FFF7FEFF 		bl	sprintf
 168              	.LVL9:
  46:Src/info_screen.c ****         u8g2_DrawStr(&u8g2, 40, 36, buff); //Variable
 169              		.loc 1 46 9 is_stmt 1 view .LVU45
 170 0062 03AB     		add	r3, sp, #12
 171 0064 2422     		movs	r2, #36
 172 0066 2821     		movs	r1, #40
 173 0068 2046     		mov	r0, r4
 174 006a FFF7FEFF 		bl	u8g2_DrawStr
 175              	.LVL10:
  47:Src/info_screen.c ****         // u8g2_DrawStr(&u8g2, 50, 36, ".");
  48:Src/info_screen.c ****         // u8g2_DrawStr(&u8g2, 54, 36, "12"); //Variable
  49:Src/info_screen.c ****         // u8g2_DrawStr(&u8g2, 64, 36, ".");
  50:Src/info_screen.c ****         // u8g2_DrawStr(&u8g2, 69, 36, "2019"); //Variable
  51:Src/info_screen.c ****         break;
 176              		.loc 1 51 9 view .LVU46
  52:Src/info_screen.c ****     case 1:
  53:Src/info_screen.c ****         break;
  54:Src/info_screen.c ****     default:
ARM GAS  C:\Users\behun\AppData\Local\Temp\cc6sPgLj.s 			page 5


  55:Src/info_screen.c ****         break;
  56:Src/info_screen.c ****     }
  57:Src/info_screen.c **** }
 177              		.loc 1 57 1 is_stmt 0 view .LVU47
 178 006e 06B0     		add	sp, sp, #24
 179              	.LCFI3:
 180              		.cfi_remember_state
 181              		.cfi_def_cfa_offset 8
 182              		@ sp needed
 183 0070 10BD     		pop	{r4, pc}
 184              	.LVL11:
 185              	.L8:
 186              	.LCFI4:
 187              		.cfi_restore_state
  40:Src/info_screen.c ****         u8g2_DrawStr(&u8g2, 19, 24, buff); //Variable
 188              		.loc 1 40 13 is_stmt 1 view .LVU48
  40:Src/info_screen.c ****         u8g2_DrawStr(&u8g2, 19, 24, buff); //Variable
 189              		.loc 1 40 49 is_stmt 0 view .LVU49
 190 0072 054A     		ldr	r2, .L14
  40:Src/info_screen.c ****         u8g2_DrawStr(&u8g2, 19, 24, buff); //Variable
 191              		.loc 1 40 13 view .LVU50
 192 0074 92F90630 		ldrsb	r3, [r2, #6]
 193 0078 92F90520 		ldrsb	r2, [r2, #5]
 194 007c 0849     		ldr	r1, .L14+24
 195 007e 03A8     		add	r0, sp, #12
 196 0080 FFF7FEFF 		bl	sprintf
 197              	.LVL12:
 198 0084 D6E7     		b	.L9
 199              	.LVL13:
 200              	.L11:
 201              	.LCFI5:
 202              		.cfi_def_cfa_offset 0
 203              		.cfi_restore 4
 204              		.cfi_restore 14
  40:Src/info_screen.c ****         u8g2_DrawStr(&u8g2, 19, 24, buff); //Variable
 205              		.loc 1 40 13 view .LVU51
 206 0086 7047     		bx	lr
 207              	.L15:
 208              		.align	2
 209              	.L14:
 210 0088 00000000 		.word	localTime
 211 008c 00000000 		.word	u8g2_font_inr21_mf
 212 0090 00000000 		.word	u8g2
 213 0094 00000000 		.word	.LC0
 214 0098 00000000 		.word	u8g2_font_5x7_tr
 215 009c 18000000 		.word	.LC2
 216 00a0 0C000000 		.word	.LC1
 217              		.cfi_endproc
 218              	.LFE67:
 220              		.section	.text.Filter_Pa,"ax",%progbits
 221              		.align	1
 222              		.global	Filter_Pa
 223              		.syntax unified
 224              		.thumb
 225              		.thumb_func
 226              		.fpu softvfp
 228              	Filter_Pa:
ARM GAS  C:\Users\behun\AppData\Local\Temp\cc6sPgLj.s 			page 6


 229              	.LVL14:
 230              	.LFB68:
  58:Src/info_screen.c **** void Filter_Pa(uint8_t PaStatus)
  59:Src/info_screen.c **** {
 231              		.loc 1 59 1 is_stmt 1 view -0
 232              		.cfi_startproc
 233              		@ args = 0, pretend = 0, frame = 8
 234              		@ frame_needed = 0, uses_anonymous_args = 0
 235              		.loc 1 59 1 is_stmt 0 view .LVU53
 236 0000 30B5     		push	{r4, r5, lr}
 237              	.LCFI6:
 238              		.cfi_def_cfa_offset 12
 239              		.cfi_offset 4, -12
 240              		.cfi_offset 5, -8
 241              		.cfi_offset 14, -4
 242 0002 83B0     		sub	sp, sp, #12
 243              	.LCFI7:
 244              		.cfi_def_cfa_offset 24
 245 0004 0546     		mov	r5, r0
  60:Src/info_screen.c ****     uint16_t buff[4];
 246              		.loc 1 60 5 is_stmt 1 view .LVU54
  61:Src/info_screen.c ****     itoa(filt_data.val, buff, 10);
 247              		.loc 1 61 5 view .LVU55
 248 0006 0A22     		movs	r2, #10
 249 0008 6946     		mov	r1, sp
 250 000a 114B     		ldr	r3, .L20
 251 000c 1888     		ldrh	r0, [r3]
 252              	.LVL15:
 253              		.loc 1 61 5 is_stmt 0 view .LVU56
 254 000e FFF7FEFF 		bl	itoa
 255              	.LVL16:
  62:Src/info_screen.c ****     u8g2_SetFont(&u8g2, u8g2_font_5x8_tr);
 256              		.loc 1 62 5 is_stmt 1 view .LVU57
 257 0012 104C     		ldr	r4, .L20+4
 258 0014 1049     		ldr	r1, .L20+8
 259 0016 2046     		mov	r0, r4
 260 0018 FFF7FEFF 		bl	u8g2_SetFont
 261              	.LVL17:
  63:Src/info_screen.c ****     u8g2_DrawStr(&u8g2, 3, 51, "Filter:");
 262              		.loc 1 63 5 view .LVU58
 263 001c 0F4B     		ldr	r3, .L20+12
 264 001e 3322     		movs	r2, #51
 265 0020 0321     		movs	r1, #3
 266 0022 2046     		mov	r0, r4
 267 0024 FFF7FEFF 		bl	u8g2_DrawStr
 268              	.LVL18:
  64:Src/info_screen.c ****     u8g2_DrawStr(&u8g2, 77, 51, "Pa");
 269              		.loc 1 64 5 view .LVU59
 270 0028 0D4B     		ldr	r3, .L20+16
 271 002a 3322     		movs	r2, #51
 272 002c 4D21     		movs	r1, #77
 273 002e 2046     		mov	r0, r4
 274 0030 FFF7FEFF 		bl	u8g2_DrawStr
 275              	.LVL19:
  65:Src/info_screen.c ****     switch (PaStatus)
 276              		.loc 1 65 5 view .LVU60
 277 0034 0DB1     		cbz	r5, .L19
ARM GAS  C:\Users\behun\AppData\Local\Temp\cc6sPgLj.s 			page 7


 278              	.L16:
  66:Src/info_screen.c ****     {
  67:Src/info_screen.c ****     case 0:
  68:Src/info_screen.c ****         u8g2_SetFont(&u8g2, u8g2_font_5x7_tr);
  69:Src/info_screen.c ****         // u8g2_DrawStr(&u8g2, 55, 51, "000"); //Variable
  70:Src/info_screen.c ****         u8g2_DrawStr(&u8g2, 55, 51, buff); //Variable
  71:Src/info_screen.c ****         break;
  72:Src/info_screen.c ****     case 1:
  73:Src/info_screen.c ****         break;
  74:Src/info_screen.c ****     default:
  75:Src/info_screen.c ****         break;
  76:Src/info_screen.c ****     }
  77:Src/info_screen.c **** }
 279              		.loc 1 77 1 is_stmt 0 view .LVU61
 280 0036 03B0     		add	sp, sp, #12
 281              	.LCFI8:
 282              		.cfi_remember_state
 283              		.cfi_def_cfa_offset 12
 284              		@ sp needed
 285 0038 30BD     		pop	{r4, r5, pc}
 286              	.L19:
 287              	.LCFI9:
 288              		.cfi_restore_state
  68:Src/info_screen.c ****         // u8g2_DrawStr(&u8g2, 55, 51, "000"); //Variable
 289              		.loc 1 68 9 is_stmt 1 view .LVU62
 290 003a 0A49     		ldr	r1, .L20+20
 291 003c 2046     		mov	r0, r4
 292 003e FFF7FEFF 		bl	u8g2_SetFont
 293              	.LVL20:
  70:Src/info_screen.c ****         break;
 294              		.loc 1 70 9 view .LVU63
 295 0042 6B46     		mov	r3, sp
 296 0044 3322     		movs	r2, #51
 297 0046 3721     		movs	r1, #55
 298 0048 2046     		mov	r0, r4
 299 004a FFF7FEFF 		bl	u8g2_DrawStr
 300              	.LVL21:
  71:Src/info_screen.c ****     case 1:
 301              		.loc 1 71 9 view .LVU64
 302              		.loc 1 77 1 is_stmt 0 view .LVU65
 303 004e F2E7     		b	.L16
 304              	.L21:
 305              		.align	2
 306              	.L20:
 307 0050 00000000 		.word	filt_data
 308 0054 00000000 		.word	u8g2
 309 0058 00000000 		.word	u8g2_font_5x8_tr
 310 005c 00000000 		.word	.LC3
 311 0060 08000000 		.word	.LC4
 312 0064 00000000 		.word	u8g2_font_5x7_tr
 313              		.cfi_endproc
 314              	.LFE68:
 316              		.section	.text.Flow,"ax",%progbits
 317              		.align	1
 318              		.global	Flow
 319              		.syntax unified
 320              		.thumb
ARM GAS  C:\Users\behun\AppData\Local\Temp\cc6sPgLj.s 			page 8


 321              		.thumb_func
 322              		.fpu softvfp
 324              	Flow:
 325              	.LVL22:
 326              	.LFB69:
  78:Src/info_screen.c **** void Flow(uint8_t FlowStatus)
  79:Src/info_screen.c **** {
 327              		.loc 1 79 1 is_stmt 1 view -0
 328              		.cfi_startproc
 329              		@ args = 0, pretend = 0, frame = 0
 330              		@ frame_needed = 0, uses_anonymous_args = 0
 331              		.loc 1 79 1 is_stmt 0 view .LVU67
 332 0000 38B5     		push	{r3, r4, r5, lr}
 333              	.LCFI10:
 334              		.cfi_def_cfa_offset 16
 335              		.cfi_offset 3, -16
 336              		.cfi_offset 4, -12
 337              		.cfi_offset 5, -8
 338              		.cfi_offset 14, -4
 339 0002 0546     		mov	r5, r0
  80:Src/info_screen.c ****     u8g2_SetFont(&u8g2, u8g2_font_5x8_mf);
 340              		.loc 1 80 5 is_stmt 1 view .LVU68
 341 0004 174C     		ldr	r4, .L26
 342 0006 1849     		ldr	r1, .L26+4
 343 0008 2046     		mov	r0, r4
 344              	.LVL23:
 345              		.loc 1 80 5 is_stmt 0 view .LVU69
 346 000a FFF7FEFF 		bl	u8g2_SetFont
 347              	.LVL24:
  81:Src/info_screen.c ****     u8g2_DrawStr(&u8g2, 3, 61, "Flow  :");
 348              		.loc 1 81 5 is_stmt 1 view .LVU70
 349 000e 174B     		ldr	r3, .L26+8
 350 0010 3D22     		movs	r2, #61
 351 0012 0321     		movs	r1, #3
 352 0014 2046     		mov	r0, r4
 353 0016 FFF7FEFF 		bl	u8g2_DrawStr
 354              	.LVL25:
  82:Src/info_screen.c ****     u8g2_SetFont(&u8g2, u8g2_font_5x7_mf);
 355              		.loc 1 82 5 view .LVU71
 356 001a 1549     		ldr	r1, .L26+12
 357 001c 2046     		mov	r0, r4
 358 001e FFF7FEFF 		bl	u8g2_SetFont
 359              	.LVL26:
  83:Src/info_screen.c ****     u8g2_DrawStr(&u8g2, 77, 61, "m/s");
 360              		.loc 1 83 5 view .LVU72
 361 0022 144B     		ldr	r3, .L26+16
 362 0024 3D22     		movs	r2, #61
 363 0026 4D21     		movs	r1, #77
 364 0028 2046     		mov	r0, r4
 365 002a FFF7FEFF 		bl	u8g2_DrawStr
 366              	.LVL27:
  84:Src/info_screen.c ****     switch (FlowStatus)
 367              		.loc 1 84 5 view .LVU73
 368 002e 05B1     		cbz	r5, .L25
 369              	.L22:
  85:Src/info_screen.c ****     {
  86:Src/info_screen.c ****     case 0:
ARM GAS  C:\Users\behun\AppData\Local\Temp\cc6sPgLj.s 			page 9


  87:Src/info_screen.c ****         u8g2_SetFont(&u8g2, u8g2_font_5x7_tr);
  88:Src/info_screen.c ****         u8g2_DrawStr(&u8g2, 46, 61, "00"); //Variable
  89:Src/info_screen.c ****         u8g2_DrawStr(&u8g2, 56, 61, ".");
  90:Src/info_screen.c ****         u8g2_DrawStr(&u8g2, 60, 61, "00"); //Variable
  91:Src/info_screen.c ****         break;
  92:Src/info_screen.c ****     case 1:
  93:Src/info_screen.c ****         break;
  94:Src/info_screen.c ****     default:
  95:Src/info_screen.c ****         break;
  96:Src/info_screen.c ****     }
  97:Src/info_screen.c **** }
 370              		.loc 1 97 1 is_stmt 0 view .LVU74
 371 0030 38BD     		pop	{r3, r4, r5, pc}
 372              	.L25:
  87:Src/info_screen.c ****         u8g2_DrawStr(&u8g2, 46, 61, "00"); //Variable
 373              		.loc 1 87 9 is_stmt 1 view .LVU75
 374 0032 1149     		ldr	r1, .L26+20
 375 0034 2046     		mov	r0, r4
 376 0036 FFF7FEFF 		bl	u8g2_SetFont
 377              	.LVL28:
  88:Src/info_screen.c ****         u8g2_DrawStr(&u8g2, 56, 61, ".");
 378              		.loc 1 88 9 view .LVU76
 379 003a 104D     		ldr	r5, .L26+24
 380 003c 2B46     		mov	r3, r5
 381 003e 3D22     		movs	r2, #61
 382 0040 2E21     		movs	r1, #46
 383 0042 2046     		mov	r0, r4
 384 0044 FFF7FEFF 		bl	u8g2_DrawStr
 385              	.LVL29:
  89:Src/info_screen.c ****         u8g2_DrawStr(&u8g2, 60, 61, "00"); //Variable
 386              		.loc 1 89 9 view .LVU77
 387 0048 0D4B     		ldr	r3, .L26+28
 388 004a 3D22     		movs	r2, #61
 389 004c 3821     		movs	r1, #56
 390 004e 2046     		mov	r0, r4
 391 0050 FFF7FEFF 		bl	u8g2_DrawStr
 392              	.LVL30:
  90:Src/info_screen.c ****         break;
 393              		.loc 1 90 9 view .LVU78
 394 0054 2B46     		mov	r3, r5
 395 0056 3D22     		movs	r2, #61
 396 0058 3C21     		movs	r1, #60
 397 005a 2046     		mov	r0, r4
 398 005c FFF7FEFF 		bl	u8g2_DrawStr
 399              	.LVL31:
  91:Src/info_screen.c ****     case 1:
 400              		.loc 1 91 9 view .LVU79
 401              		.loc 1 97 1 is_stmt 0 view .LVU80
 402 0060 E6E7     		b	.L22
 403              	.L27:
 404 0062 00BF     		.align	2
 405              	.L26:
 406 0064 00000000 		.word	u8g2
 407 0068 00000000 		.word	u8g2_font_5x8_mf
 408 006c 00000000 		.word	.LC5
 409 0070 00000000 		.word	u8g2_font_5x7_mf
 410 0074 08000000 		.word	.LC6
ARM GAS  C:\Users\behun\AppData\Local\Temp\cc6sPgLj.s 			page 10


 411 0078 00000000 		.word	u8g2_font_5x7_tr
 412 007c 0C000000 		.word	.LC7
 413 0080 10000000 		.word	.LC8
 414              		.cfi_endproc
 415              	.LFE69:
 417              		.section	.text.Temperature,"ax",%progbits
 418              		.align	1
 419              		.global	Temperature
 420              		.syntax unified
 421              		.thumb
 422              		.thumb_func
 423              		.fpu softvfp
 425              	Temperature:
 426              	.LVL32:
 427              	.LFB70:
  98:Src/info_screen.c **** void Temperature(uint8_t TempStatus)
  99:Src/info_screen.c **** {
 428              		.loc 1 99 1 is_stmt 1 view -0
 429              		.cfi_startproc
 430              		@ args = 0, pretend = 0, frame = 0
 431              		@ frame_needed = 0, uses_anonymous_args = 0
 432              		.loc 1 99 1 is_stmt 0 view .LVU82
 433 0000 30B5     		push	{r4, r5, lr}
 434              	.LCFI11:
 435              		.cfi_def_cfa_offset 12
 436              		.cfi_offset 4, -12
 437              		.cfi_offset 5, -8
 438              		.cfi_offset 14, -4
 439 0002 83B0     		sub	sp, sp, #12
 440              	.LCFI12:
 441              		.cfi_def_cfa_offset 24
 442 0004 0546     		mov	r5, r0
 100:Src/info_screen.c ****     u8g2_DrawBitmap(&u8g2, 97, 26, bmp_temp.width / 8, bmp_temp.height, bmp_temp.data);
 443              		.loc 1 100 5 is_stmt 1 view .LVU83
 444              		.loc 1 100 44 is_stmt 0 view .LVU84
 445 0006 184A     		ldr	r2, .L33
 446 0008 1378     		ldrb	r3, [r2]	@ zero_extendqisi2
 447              		.loc 1 100 5 view .LVU85
 448 000a 184C     		ldr	r4, .L33+4
 449 000c 5168     		ldr	r1, [r2, #4]
 450 000e 0191     		str	r1, [sp, #4]
 451 0010 5278     		ldrb	r2, [r2, #1]	@ zero_extendqisi2
 452 0012 0092     		str	r2, [sp]
 453 0014 DB08     		lsrs	r3, r3, #3
 454 0016 1A22     		movs	r2, #26
 455 0018 6121     		movs	r1, #97
 456 001a 2046     		mov	r0, r4
 457              	.LVL33:
 458              		.loc 1 100 5 view .LVU86
 459 001c FFF7FEFF 		bl	u8g2_DrawBitmap
 460              	.LVL34:
 101:Src/info_screen.c ****     u8g2_SetFont(&u8g2, u8g2_font_5x7_tr);
 461              		.loc 1 101 5 is_stmt 1 view .LVU87
 462 0020 1349     		ldr	r1, .L33+8
 463 0022 2046     		mov	r0, r4
 464 0024 FFF7FEFF 		bl	u8g2_SetFont
 465              	.LVL35:
ARM GAS  C:\Users\behun\AppData\Local\Temp\cc6sPgLj.s 			page 11


 102:Src/info_screen.c ****     u8g2_DrawStr(&u8g2, 119, 29, ".");
 466              		.loc 1 102 5 view .LVU88
 467 0028 124B     		ldr	r3, .L33+12
 468 002a 1D22     		movs	r2, #29
 469 002c 7721     		movs	r1, #119
 470 002e 2046     		mov	r0, r4
 471 0030 FFF7FEFF 		bl	u8g2_DrawStr
 472              	.LVL36:
 103:Src/info_screen.c ****     u8g2_DrawStr(&u8g2, 122, 35, "C");
 473              		.loc 1 103 5 view .LVU89
 474 0034 104B     		ldr	r3, .L33+16
 475 0036 2322     		movs	r2, #35
 476 0038 7A21     		movs	r1, #122
 477 003a 2046     		mov	r0, r4
 478 003c FFF7FEFF 		bl	u8g2_DrawStr
 479              	.LVL37:
 104:Src/info_screen.c ****     switch (TempStatus)
 480              		.loc 1 104 5 view .LVU90
 481 0040 1DB1     		cbz	r5, .L29
 482 0042 012D     		cmp	r5, #1
 483 0044 08D0     		beq	.L30
 484              	.L28:
 105:Src/info_screen.c ****     {
 106:Src/info_screen.c ****     case 0:
 107:Src/info_screen.c ****         u8g2_DrawStr(&u8g2, 110, 35, "75");
 108:Src/info_screen.c ****         break;
 109:Src/info_screen.c ****     case 1:
 110:Src/info_screen.c ****         u8g2_DrawStr(&u8g2, 110, 35, "00"); //variable x
 111:Src/info_screen.c ****         break;
 112:Src/info_screen.c ****     default:
 113:Src/info_screen.c ****         break;
 114:Src/info_screen.c ****     }
 115:Src/info_screen.c **** }
 485              		.loc 1 115 1 is_stmt 0 view .LVU91
 486 0046 03B0     		add	sp, sp, #12
 487              	.LCFI13:
 488              		.cfi_remember_state
 489              		.cfi_def_cfa_offset 12
 490              		@ sp needed
 491 0048 30BD     		pop	{r4, r5, pc}
 492              	.L29:
 493              	.LCFI14:
 494              		.cfi_restore_state
 107:Src/info_screen.c ****         break;
 495              		.loc 1 107 9 is_stmt 1 view .LVU92
 496 004a 0C4B     		ldr	r3, .L33+20
 497 004c 2322     		movs	r2, #35
 498 004e 6E21     		movs	r1, #110
 499 0050 0648     		ldr	r0, .L33+4
 500 0052 FFF7FEFF 		bl	u8g2_DrawStr
 501              	.LVL38:
 108:Src/info_screen.c ****     case 1:
 502              		.loc 1 108 9 view .LVU93
 503 0056 F6E7     		b	.L28
 504              	.L30:
 110:Src/info_screen.c ****         break;
 505              		.loc 1 110 9 view .LVU94
ARM GAS  C:\Users\behun\AppData\Local\Temp\cc6sPgLj.s 			page 12


 506 0058 094B     		ldr	r3, .L33+24
 507 005a 2322     		movs	r2, #35
 508 005c 6E21     		movs	r1, #110
 509 005e 0348     		ldr	r0, .L33+4
 510 0060 FFF7FEFF 		bl	u8g2_DrawStr
 511              	.LVL39:
 111:Src/info_screen.c ****     default:
 512              		.loc 1 111 9 view .LVU95
 513              		.loc 1 115 1 is_stmt 0 view .LVU96
 514 0064 EFE7     		b	.L28
 515              	.L34:
 516 0066 00BF     		.align	2
 517              	.L33:
 518 0068 00000000 		.word	bmp_temp
 519 006c 00000000 		.word	u8g2
 520 0070 00000000 		.word	u8g2_font_5x7_tr
 521 0074 10000000 		.word	.LC8
 522 0078 00000000 		.word	.LC9
 523 007c 04000000 		.word	.LC10
 524 0080 0C000000 		.word	.LC7
 525              		.cfi_endproc
 526              	.LFE70:
 528              		.section	.text.Door,"ax",%progbits
 529              		.align	1
 530              		.global	Door
 531              		.syntax unified
 532              		.thumb
 533              		.thumb_func
 534              		.fpu softvfp
 536              	Door:
 537              	.LVL40:
 538              	.LFB71:
 116:Src/info_screen.c **** void Door(uint8_t DStatus)
 117:Src/info_screen.c **** {
 539              		.loc 1 117 1 is_stmt 1 view -0
 540              		.cfi_startproc
 541              		@ args = 0, pretend = 0, frame = 0
 542              		@ frame_needed = 0, uses_anonymous_args = 0
 543              		.loc 1 117 1 is_stmt 0 view .LVU98
 544 0000 30B5     		push	{r4, r5, lr}
 545              	.LCFI15:
 546              		.cfi_def_cfa_offset 12
 547              		.cfi_offset 4, -12
 548              		.cfi_offset 5, -8
 549              		.cfi_offset 14, -4
 550 0002 83B0     		sub	sp, sp, #12
 551              	.LCFI16:
 552              		.cfi_def_cfa_offset 24
 553 0004 0446     		mov	r4, r0
 118:Src/info_screen.c ****     u8g2_SetFont(&u8g2, u8g2_font_5x8_mf);
 554              		.loc 1 118 5 is_stmt 1 view .LVU99
 555 0006 224D     		ldr	r5, .L41
 556 0008 2249     		ldr	r1, .L41+4
 557 000a 2846     		mov	r0, r5
 558              	.LVL41:
 559              		.loc 1 118 5 is_stmt 0 view .LVU100
 560 000c FFF7FEFF 		bl	u8g2_SetFont
ARM GAS  C:\Users\behun\AppData\Local\Temp\cc6sPgLj.s 			page 13


 561              	.LVL42:
 119:Src/info_screen.c ****     u8g2_DrawStr(&u8g2, 108, 61, "Door");
 562              		.loc 1 119 5 is_stmt 1 view .LVU101
 563 0010 214B     		ldr	r3, .L41+8
 564 0012 3D22     		movs	r2, #61
 565 0014 6C21     		movs	r1, #108
 566 0016 2846     		mov	r0, r5
 567 0018 FFF7FEFF 		bl	u8g2_DrawStr
 568              	.LVL43:
 120:Src/info_screen.c ****     switch (DStatus)
 569              		.loc 1 120 5 view .LVU102
 570 001c 012C     		cmp	r4, #1
 571 001e 0ED0     		beq	.L36
 572 0020 63B2     		sxtb	r3, r4
 573 0022 1BB1     		cbz	r3, .L37
 574 0024 022C     		cmp	r4, #2
 575 0026 1BD0     		beq	.L38
 576              	.L35:
 121:Src/info_screen.c ****     {
 122:Src/info_screen.c ****     case 0:
 123:Src/info_screen.c ****         u8g2_DrawBox(&u8g2, 113, 50, 9, 3); //0
 124:Src/info_screen.c ****         break;
 125:Src/info_screen.c ****     case 1:
 126:Src/info_screen.c ****         u8g2_DrawBox(&u8g2, 113, 50, 9, 3); //0
 127:Src/info_screen.c ****         u8g2_DrawBox(&u8g2, 113, 46, 9, 3); //1
 128:Src/info_screen.c ****         break;
 129:Src/info_screen.c ****     case 2:
 130:Src/info_screen.c ****         u8g2_DrawBox(&u8g2, 113, 50, 9, 3); //0
 131:Src/info_screen.c ****         u8g2_DrawBox(&u8g2, 113, 46, 9, 3); //1
 132:Src/info_screen.c ****         u8g2_DrawBox(&u8g2, 113, 42, 9, 3); //2
 133:Src/info_screen.c ****         break;
 134:Src/info_screen.c ****     default:
 135:Src/info_screen.c ****         break;
 136:Src/info_screen.c ****     }
 137:Src/info_screen.c **** }
 577              		.loc 1 137 1 is_stmt 0 view .LVU103
 578 0028 03B0     		add	sp, sp, #12
 579              	.LCFI17:
 580              		.cfi_remember_state
 581              		.cfi_def_cfa_offset 12
 582              		@ sp needed
 583 002a 30BD     		pop	{r4, r5, pc}
 584              	.L37:
 585              	.LCFI18:
 586              		.cfi_restore_state
 123:Src/info_screen.c ****         break;
 587              		.loc 1 123 9 is_stmt 1 view .LVU104
 588 002c 0323     		movs	r3, #3
 589 002e 0093     		str	r3, [sp]
 590 0030 0923     		movs	r3, #9
 591 0032 3222     		movs	r2, #50
 592 0034 7121     		movs	r1, #113
 593 0036 1648     		ldr	r0, .L41
 594 0038 FFF7FEFF 		bl	u8g2_DrawBox
 595              	.LVL44:
 124:Src/info_screen.c ****     case 1:
 596              		.loc 1 124 9 view .LVU105
ARM GAS  C:\Users\behun\AppData\Local\Temp\cc6sPgLj.s 			page 14


 597 003c F4E7     		b	.L35
 598              	.L36:
 126:Src/info_screen.c ****         u8g2_DrawBox(&u8g2, 113, 46, 9, 3); //1
 599              		.loc 1 126 9 view .LVU106
 600 003e 144C     		ldr	r4, .L41
 601 0040 0325     		movs	r5, #3
 602 0042 0095     		str	r5, [sp]
 603 0044 0923     		movs	r3, #9
 604 0046 3222     		movs	r2, #50
 605 0048 7121     		movs	r1, #113
 606 004a 2046     		mov	r0, r4
 607 004c FFF7FEFF 		bl	u8g2_DrawBox
 608              	.LVL45:
 127:Src/info_screen.c ****         break;
 609              		.loc 1 127 9 view .LVU107
 610 0050 0095     		str	r5, [sp]
 611 0052 0923     		movs	r3, #9
 612 0054 2E22     		movs	r2, #46
 613 0056 7121     		movs	r1, #113
 614 0058 2046     		mov	r0, r4
 615 005a FFF7FEFF 		bl	u8g2_DrawBox
 616              	.LVL46:
 128:Src/info_screen.c ****     case 2:
 617              		.loc 1 128 9 view .LVU108
 618 005e E3E7     		b	.L35
 619              	.L38:
 130:Src/info_screen.c ****         u8g2_DrawBox(&u8g2, 113, 46, 9, 3); //1
 620              		.loc 1 130 9 view .LVU109
 621 0060 0B4C     		ldr	r4, .L41
 622 0062 0325     		movs	r5, #3
 623 0064 0095     		str	r5, [sp]
 624 0066 0923     		movs	r3, #9
 625 0068 3222     		movs	r2, #50
 626 006a 7121     		movs	r1, #113
 627 006c 2046     		mov	r0, r4
 628 006e FFF7FEFF 		bl	u8g2_DrawBox
 629              	.LVL47:
 131:Src/info_screen.c ****         u8g2_DrawBox(&u8g2, 113, 42, 9, 3); //2
 630              		.loc 1 131 9 view .LVU110
 631 0072 0095     		str	r5, [sp]
 632 0074 0923     		movs	r3, #9
 633 0076 2E22     		movs	r2, #46
 634 0078 7121     		movs	r1, #113
 635 007a 2046     		mov	r0, r4
 636 007c FFF7FEFF 		bl	u8g2_DrawBox
 637              	.LVL48:
 132:Src/info_screen.c ****         break;
 638              		.loc 1 132 9 view .LVU111
 639 0080 0095     		str	r5, [sp]
 640 0082 0923     		movs	r3, #9
 641 0084 2A22     		movs	r2, #42
 642 0086 7121     		movs	r1, #113
 643 0088 2046     		mov	r0, r4
 644 008a FFF7FEFF 		bl	u8g2_DrawBox
 645              	.LVL49:
 133:Src/info_screen.c ****     default:
 646              		.loc 1 133 9 view .LVU112
ARM GAS  C:\Users\behun\AppData\Local\Temp\cc6sPgLj.s 			page 15


 647              		.loc 1 137 1 is_stmt 0 view .LVU113
 648 008e CBE7     		b	.L35
 649              	.L42:
 650              		.align	2
 651              	.L41:
 652 0090 00000000 		.word	u8g2
 653 0094 00000000 		.word	u8g2_font_5x8_mf
 654 0098 00000000 		.word	.LC11
 655              		.cfi_endproc
 656              	.LFE71:
 658              		.section	.text.Frame_Door,"ax",%progbits
 659              		.align	1
 660              		.global	Frame_Door
 661              		.syntax unified
 662              		.thumb
 663              		.thumb_func
 664              		.fpu softvfp
 666              	Frame_Door:
 667              	.LFB73:
 138:Src/info_screen.c **** void Info_Screen_Manage(void)
 139:Src/info_screen.c **** {
 140:Src/info_screen.c ****     SysTime(Info_Scr.SysTime);
 141:Src/info_screen.c ****     Filter_Pa(Info_Scr.Filter_Pa);
 142:Src/info_screen.c ****     Flow(Info_Scr.Flow);
 143:Src/info_screen.c ****     Door(Info_Scr.Door);
 144:Src/info_screen.c ****     Temperature(Info_Scr.Temp);
 145:Src/info_screen.c ****     u8g2_DrawHLine(&u8g2, 29, 40, 70);
 146:Src/info_screen.c ****     Frame_Door();
 147:Src/info_screen.c **** }
 148:Src/info_screen.c **** void Frame_Door(void)
 149:Src/info_screen.c **** {
 668              		.loc 1 149 1 is_stmt 1 view -0
 669              		.cfi_startproc
 670              		@ args = 0, pretend = 0, frame = 0
 671              		@ frame_needed = 0, uses_anonymous_args = 0
 672 0000 30B5     		push	{r4, r5, lr}
 673              	.LCFI19:
 674              		.cfi_def_cfa_offset 12
 675              		.cfi_offset 4, -12
 676              		.cfi_offset 5, -8
 677              		.cfi_offset 14, -4
 678 0002 83B0     		sub	sp, sp, #12
 679              	.LCFI20:
 680              		.cfi_def_cfa_offset 24
 150:Src/info_screen.c ****     u8g2_DrawHVLine(&u8g2, 109, 40, 13, 1);
 681              		.loc 1 150 5 view .LVU115
 682 0004 0B4C     		ldr	r4, .L45
 683 0006 0125     		movs	r5, #1
 684 0008 0095     		str	r5, [sp]
 685 000a 0D23     		movs	r3, #13
 686 000c 2822     		movs	r2, #40
 687 000e 6D21     		movs	r1, #109
 688 0010 2046     		mov	r0, r4
 689 0012 FFF7FEFF 		bl	u8g2_DrawHVLine
 690              	.LVL50:
 151:Src/info_screen.c ****     u8g2_DrawHVLine(&u8g2, 125, 40, 13, 1);
 691              		.loc 1 151 5 view .LVU116
ARM GAS  C:\Users\behun\AppData\Local\Temp\cc6sPgLj.s 			page 16


 692 0016 0095     		str	r5, [sp]
 693 0018 0D23     		movs	r3, #13
 694 001a 2822     		movs	r2, #40
 695 001c 7D21     		movs	r1, #125
 696 001e 2046     		mov	r0, r4
 697 0020 FFF7FEFF 		bl	u8g2_DrawHVLine
 698              	.LVL51:
 152:Src/info_screen.c ****     u8g2_DrawHLine(&u8g2, 110, 40, 16);
 699              		.loc 1 152 5 view .LVU117
 700 0024 1023     		movs	r3, #16
 701 0026 2822     		movs	r2, #40
 702 0028 6E21     		movs	r1, #110
 703 002a 2046     		mov	r0, r4
 704 002c FFF7FEFF 		bl	u8g2_DrawHLine
 705              	.LVL52:
 153:Src/info_screen.c **** }
 706              		.loc 1 153 1 is_stmt 0 view .LVU118
 707 0030 03B0     		add	sp, sp, #12
 708              	.LCFI21:
 709              		.cfi_def_cfa_offset 12
 710              		@ sp needed
 711 0032 30BD     		pop	{r4, r5, pc}
 712              	.L46:
 713              		.align	2
 714              	.L45:
 715 0034 00000000 		.word	u8g2
 716              		.cfi_endproc
 717              	.LFE73:
 719              		.section	.text.Info_Screen_Manage,"ax",%progbits
 720              		.align	1
 721              		.global	Info_Screen_Manage
 722              		.syntax unified
 723              		.thumb
 724              		.thumb_func
 725              		.fpu softvfp
 727              	Info_Screen_Manage:
 728              	.LFB72:
 139:Src/info_screen.c ****     SysTime(Info_Scr.SysTime);
 729              		.loc 1 139 1 is_stmt 1 view -0
 730              		.cfi_startproc
 731              		@ args = 0, pretend = 0, frame = 0
 732              		@ frame_needed = 0, uses_anonymous_args = 0
 733 0000 10B5     		push	{r4, lr}
 734              	.LCFI22:
 735              		.cfi_def_cfa_offset 8
 736              		.cfi_offset 4, -8
 737              		.cfi_offset 14, -4
 140:Src/info_screen.c ****     Filter_Pa(Info_Scr.Filter_Pa);
 738              		.loc 1 140 5 view .LVU120
 739 0002 0C4C     		ldr	r4, .L49
 740 0004 2078     		ldrb	r0, [r4]	@ zero_extendqisi2
 741 0006 FFF7FEFF 		bl	SysTime
 742              	.LVL53:
 141:Src/info_screen.c ****     Flow(Info_Scr.Flow);
 743              		.loc 1 141 5 view .LVU121
 744 000a A078     		ldrb	r0, [r4, #2]	@ zero_extendqisi2
 745 000c FFF7FEFF 		bl	Filter_Pa
ARM GAS  C:\Users\behun\AppData\Local\Temp\cc6sPgLj.s 			page 17


 746              	.LVL54:
 142:Src/info_screen.c ****     Door(Info_Scr.Door);
 747              		.loc 1 142 5 view .LVU122
 748 0010 2079     		ldrb	r0, [r4, #4]	@ zero_extendqisi2
 749 0012 FFF7FEFF 		bl	Flow
 750              	.LVL55:
 143:Src/info_screen.c ****     Temperature(Info_Scr.Temp);
 751              		.loc 1 143 5 view .LVU123
 752 0016 E079     		ldrb	r0, [r4, #7]	@ zero_extendqisi2
 753 0018 FFF7FEFF 		bl	Door
 754              	.LVL56:
 144:Src/info_screen.c ****     u8g2_DrawHLine(&u8g2, 29, 40, 70);
 755              		.loc 1 144 5 view .LVU124
 756 001c A079     		ldrb	r0, [r4, #6]	@ zero_extendqisi2
 757 001e FFF7FEFF 		bl	Temperature
 758              	.LVL57:
 145:Src/info_screen.c ****     Frame_Door();
 759              		.loc 1 145 5 view .LVU125
 760 0022 4623     		movs	r3, #70
 761 0024 2822     		movs	r2, #40
 762 0026 1D21     		movs	r1, #29
 763 0028 0348     		ldr	r0, .L49+4
 764 002a FFF7FEFF 		bl	u8g2_DrawHLine
 765              	.LVL58:
 146:Src/info_screen.c **** }
 766              		.loc 1 146 5 view .LVU126
 767 002e FFF7FEFF 		bl	Frame_Door
 768              	.LVL59:
 147:Src/info_screen.c **** void Frame_Door(void)
 769              		.loc 1 147 1 is_stmt 0 view .LVU127
 770 0032 10BD     		pop	{r4, pc}
 771              	.L50:
 772              		.align	2
 773              	.L49:
 774 0034 00000000 		.word	Info_Scr
 775 0038 00000000 		.word	u8g2
 776              		.cfi_endproc
 777              	.LFE72:
 779              		.comm	Info_Scr,12,4
 780              		.comm	u8g2,128,4
 781              		.comm	bmp_temp,8,4
 782              		.section	.rodata.Door.str1.4,"aMS",%progbits,1
 783              		.align	2
 784              	.LC11:
 785 0000 446F6F72 		.ascii	"Door\000"
 785      00
 786              		.section	.rodata.Filter_Pa.str1.4,"aMS",%progbits,1
 787              		.align	2
 788              	.LC3:
 789 0000 46696C74 		.ascii	"Filter:\000"
 789      65723A00 
 790              	.LC4:
 791 0008 506100   		.ascii	"Pa\000"
 792              		.section	.rodata.Flow.str1.4,"aMS",%progbits,1
 793              		.align	2
 794              	.LC5:
 795 0000 466C6F77 		.ascii	"Flow  :\000"
ARM GAS  C:\Users\behun\AppData\Local\Temp\cc6sPgLj.s 			page 18


 795      20203A00 
 796              	.LC6:
 797 0008 6D2F7300 		.ascii	"m/s\000"
 798              	.LC7:
 799 000c 303000   		.ascii	"00\000"
 800 000f 00       		.space	1
 801              	.LC8:
 802 0010 2E00     		.ascii	".\000"
 803              		.section	.rodata.SysTime.str1.4,"aMS",%progbits,1
 804              		.align	2
 805              	.LC0:
 806 0000 25303264 		.ascii	"%02d:%02d\000"
 806      3A253032 
 806      6400
 807 000a 0000     		.space	2
 808              	.LC1:
 809 000c 25303264 		.ascii	"%02d %02d\000"
 809      20253032 
 809      6400
 810 0016 0000     		.space	2
 811              	.LC2:
 812 0018 25303264 		.ascii	"%02d.%02d.%04d\000"
 812      2E253032 
 812      642E2530 
 812      346400
 813              		.section	.rodata.Temperature.str1.4,"aMS",%progbits,1
 814              		.align	2
 815              	.LC9:
 816 0000 4300     		.ascii	"C\000"
 817 0002 0000     		.space	2
 818              	.LC10:
 819 0004 373500   		.ascii	"75\000"
 820              		.text
 821              	.Letext0:
 822              		.file 2 "c:\\program files (x86)\\gnu tools arm embedded\\8 2019-q3-update\\arm-none-eabi\\include
 823              		.file 3 "c:\\program files (x86)\\gnu tools arm embedded\\8 2019-q3-update\\arm-none-eabi\\include
 824              		.file 4 "Drivers/CMSIS/Include/core_cm3.h"
 825              		.file 5 "Drivers/CMSIS/Device/ST/STM32F1xx/Include/system_stm32f1xx.h"
 826              		.file 6 "Drivers/CMSIS/Device/ST/STM32F1xx/Include/stm32f103xe.h"
 827              		.file 7 "c:\\program files (x86)\\gnu tools arm embedded\\8 2019-q3-update\\lib\\gcc\\arm-none-eab
 828              		.file 8 "c:\\program files (x86)\\gnu tools arm embedded\\8 2019-q3-update\\arm-none-eabi\\include
 829              		.file 9 "c:\\program files (x86)\\gnu tools arm embedded\\8 2019-q3-update\\arm-none-eabi\\include
 830              		.file 10 "c:\\program files (x86)\\gnu tools arm embedded\\8 2019-q3-update\\arm-none-eabi\\includ
 831              		.file 11 "Drivers/STM32F1xx_HAL_Driver/Inc/stm32f1xx_hal_def.h"
 832              		.file 12 "Drivers/STM32F1xx_HAL_Driver/Inc/stm32f1xx_hal_rtc.h"
 833              		.file 13 "Drivers/STM32F1xx_HAL_Driver/Inc/stm32f1xx_hal.h"
 834              		.file 14 "Inc/info_screen.h"
 835              		.file 15 "u8g2/csrc/u8x8.h"
 836              		.file 16 "u8g2/csrc/u8g2.h"
 837              		.file 17 "Inc/user_bitmap.h"
 838              		.file 18 "c:\\program files (x86)\\gnu tools arm embedded\\8 2019-q3-update\\arm-none-eabi\\includ
 839              		.file 19 "Inc/clock_rtc.h"
 840              		.file 20 "Inc/filter_data.h"
 841              		.file 21 "c:\\program files (x86)\\gnu tools arm embedded\\8 2019-q3-update\\arm-none-eabi\\includ
 842              		.file 22 "c:\\program files (x86)\\gnu tools arm embedded\\8 2019-q3-update\\arm-none-eabi\\includ
ARM GAS  C:\Users\behun\AppData\Local\Temp\cc6sPgLj.s 			page 19

