ARM GAS  C:\Users\behun\AppData\Local\Temp\ccxWaUuy.s 			page 1


   1              		.cpu cortex-m3
   2              		.eabi_attribute 20, 1
   3              		.eabi_attribute 21, 1
   4              		.eabi_attribute 23, 3
   5              		.eabi_attribute 24, 1
   6              		.eabi_attribute 25, 1
   7              		.eabi_attribute 26, 1
   8              		.eabi_attribute 30, 1
   9              		.eabi_attribute 34, 1
  10              		.eabi_attribute 18, 4
  11              		.file	"info_screen.c"
  12              		.text
  13              	.Ltext0:
  14              		.cfi_sections	.debug_frame
  15              		.section	.text.Info_Screen_Init,"ax",%progbits
  16              		.align	1
  17              		.global	Info_Screen_Init
  18              		.arch armv7-m
  19              		.syntax unified
  20              		.thumb
  21              		.thumb_func
  22              		.fpu softvfp
  24              	Info_Screen_Init:
  25              	.LFB66:
  26              		.file 1 "Src/info_screen.c"
   1:Src/info_screen.c **** #include "info_screen.h"
   2:Src/info_screen.c **** #include "u8g2.h"
   3:Src/info_screen.c **** #include "user_bitmap.h"
   4:Src/info_screen.c **** #include "clock_rtc.h"
   5:Src/info_screen.c **** #include "filter_data.h"
   6:Src/info_screen.c **** #include <stdlib.h>
   7:Src/info_screen.c **** 
   8:Src/info_screen.c **** u8g2_t u8g2;
   9:Src/info_screen.c **** 
  10:Src/info_screen.c **** INFO_SCREEN_STR Info_Scr;
  11:Src/info_screen.c **** 
  12:Src/info_screen.c **** void Info_Screen_Init(void)
  13:Src/info_screen.c **** {
  27              		.loc 1 13 1 view -0
  28              		.cfi_startproc
  29              		@ args = 0, pretend = 0, frame = 0
  30              		@ frame_needed = 0, uses_anonymous_args = 0
  31 0000 10B5     		push	{r4, lr}
  32              	.LCFI0:
  33              		.cfi_def_cfa_offset 8
  34              		.cfi_offset 4, -8
  35              		.cfi_offset 14, -4
  14:Src/info_screen.c ****     Info_Scr.SysTime = 0;
  36              		.loc 1 14 5 view .LVU1
  37              		.loc 1 14 22 is_stmt 0 view .LVU2
  38 0002 074C     		ldr	r4, .L3
  39 0004 0023     		movs	r3, #0
  40 0006 2370     		strb	r3, [r4]
  15:Src/info_screen.c ****     Info_Scr.SysWork = 0;
  41              		.loc 1 15 5 is_stmt 1 view .LVU3
  42              		.loc 1 15 22 is_stmt 0 view .LVU4
  43 0008 6370     		strb	r3, [r4, #1]
ARM GAS  C:\Users\behun\AppData\Local\Temp\ccxWaUuy.s 			page 2


  16:Src/info_screen.c ****     Info_Scr.Filter_Pa = 0;
  44              		.loc 1 16 5 is_stmt 1 view .LVU5
  45              		.loc 1 16 24 is_stmt 0 view .LVU6
  46 000a A370     		strb	r3, [r4, #2]
  17:Src/info_screen.c ****     Info_Scr.Filter_Time = 0;
  47              		.loc 1 17 5 is_stmt 1 view .LVU7
  48              		.loc 1 17 26 is_stmt 0 view .LVU8
  49 000c E370     		strb	r3, [r4, #3]
  18:Src/info_screen.c ****     Info_Scr.Flow = 0;
  50              		.loc 1 18 5 is_stmt 1 view .LVU9
  51              		.loc 1 18 19 is_stmt 0 view .LVU10
  52 000e 2371     		strb	r3, [r4, #4]
  19:Src/info_screen.c ****     Info_Scr.UV = 0;
  53              		.loc 1 19 5 is_stmt 1 view .LVU11
  54              		.loc 1 19 17 is_stmt 0 view .LVU12
  55 0010 6371     		strb	r3, [r4, #5]
  20:Src/info_screen.c ****     Info_Scr.Temp = 0;
  56              		.loc 1 20 5 is_stmt 1 view .LVU13
  57              		.loc 1 20 19 is_stmt 0 view .LVU14
  58 0012 A371     		strb	r3, [r4, #6]
  21:Src/info_screen.c ****     Info_Scr.Door = 2;
  59              		.loc 1 21 5 is_stmt 1 view .LVU15
  60              		.loc 1 21 19 is_stmt 0 view .LVU16
  61 0014 0223     		movs	r3, #2
  62 0016 E371     		strb	r3, [r4, #7]
  22:Src/info_screen.c ****     Info_Scr.tick = HAL_GetTick();
  63              		.loc 1 22 5 is_stmt 1 view .LVU17
  64              		.loc 1 22 21 is_stmt 0 view .LVU18
  65 0018 FFF7FEFF 		bl	HAL_GetTick
  66              	.LVL0:
  67              		.loc 1 22 19 view .LVU19
  68 001c A060     		str	r0, [r4, #8]
  23:Src/info_screen.c **** }
  69              		.loc 1 23 1 view .LVU20
  70 001e 10BD     		pop	{r4, pc}
  71              	.L4:
  72              		.align	2
  73              	.L3:
  74 0020 00000000 		.word	Info_Scr
  75              		.cfi_endproc
  76              	.LFE66:
  78              		.section	.text.SysTime,"ax",%progbits
  79              		.align	1
  80              		.global	SysTime
  81              		.syntax unified
  82              		.thumb
  83              		.thumb_func
  84              		.fpu softvfp
  86              	SysTime:
  87              	.LVL1:
  88              	.LFB67:
  24:Src/info_screen.c **** 
  25:Src/info_screen.c **** void SysTime(uint8_t TimeStatus)
  26:Src/info_screen.c **** {
  89              		.loc 1 26 1 is_stmt 1 view -0
  90              		.cfi_startproc
  91              		@ args = 0, pretend = 0, frame = 16
ARM GAS  C:\Users\behun\AppData\Local\Temp\ccxWaUuy.s 			page 3


  92              		@ frame_needed = 0, uses_anonymous_args = 0
  27:Src/info_screen.c ****     uint8_t buff[11];
  93              		.loc 1 27 5 view .LVU22
  28:Src/info_screen.c ****     uint8_t dot;
  94              		.loc 1 28 5 view .LVU23
  29:Src/info_screen.c ****     switch (TimeStatus)
  95              		.loc 1 29 5 view .LVU24
  96 0000 0028     		cmp	r0, #0
  97 0002 40D1     		bne	.L11
  26:Src/info_screen.c ****     uint8_t buff[11];
  98              		.loc 1 26 1 is_stmt 0 view .LVU25
  99 0004 10B5     		push	{r4, lr}
 100              	.LCFI1:
 101              		.cfi_def_cfa_offset 8
 102              		.cfi_offset 4, -8
 103              		.cfi_offset 14, -4
 104 0006 86B0     		sub	sp, sp, #24
 105              	.LCFI2:
 106              		.cfi_def_cfa_offset 32
 107 0008 0024     		movs	r4, #0
  30:Src/info_screen.c ****     {
  31:Src/info_screen.c ****     case 0:
  32:Src/info_screen.c ****         if (localTime.sec % 2 == 0)
 108              		.loc 1 32 9 is_stmt 1 view .LVU26
 109              		.loc 1 32 22 is_stmt 0 view .LVU27
 110 000a 1F4B     		ldr	r3, .L14
 111 000c 93F90730 		ldrsb	r3, [r3, #7]
 112              		.loc 1 32 12 view .LVU28
 113 0010 13F0010F 		tst	r3, #1
 114 0014 00D1     		bne	.L7
  33:Src/info_screen.c ****         {
  34:Src/info_screen.c ****             dot = ~dot;
 115              		.loc 1 34 13 is_stmt 1 view .LVU29
 116              		.loc 1 34 17 is_stmt 0 view .LVU30
 117 0016 FF24     		movs	r4, #255
 118              	.LVL2:
 119              	.L7:
  35:Src/info_screen.c ****         }
  36:Src/info_screen.c ****         u8g2_SetFont(&u8g2, u8g2_font_inr21_mf);
 120              		.loc 1 36 9 is_stmt 1 view .LVU31
 121 0018 1C49     		ldr	r1, .L14+4
 122 001a 1D48     		ldr	r0, .L14+8
 123              	.LVL3:
 124              		.loc 1 36 9 is_stmt 0 view .LVU32
 125 001c FFF7FEFF 		bl	u8g2_SetFont
 126              	.LVL4:
  37:Src/info_screen.c ****         if (dot)
 127              		.loc 1 37 9 is_stmt 1 view .LVU33
 128              		.loc 1 37 12 is_stmt 0 view .LVU34
 129 0020 3CB3     		cbz	r4, .L8
  38:Src/info_screen.c ****             sprintf(buff, "%02d:%02d", localTime.hour, localTime.min);
 130              		.loc 1 38 13 is_stmt 1 view .LVU35
 131              		.loc 1 38 49 is_stmt 0 view .LVU36
 132 0022 194A     		ldr	r2, .L14
 133              		.loc 1 38 13 view .LVU37
 134 0024 92F90630 		ldrsb	r3, [r2, #6]
 135 0028 92F90520 		ldrsb	r2, [r2, #5]
ARM GAS  C:\Users\behun\AppData\Local\Temp\ccxWaUuy.s 			page 4


 136 002c 1949     		ldr	r1, .L14+12
 137 002e 03A8     		add	r0, sp, #12
 138 0030 FFF7FEFF 		bl	sprintf
 139              	.LVL5:
 140              	.L9:
  39:Src/info_screen.c ****         else
  40:Src/info_screen.c ****             sprintf(buff, "%02d %02d", localTime.hour, localTime.min);
  41:Src/info_screen.c ****         u8g2_DrawStr(&u8g2, 19, 24, buff); //Variable
 141              		.loc 1 41 9 is_stmt 1 view .LVU38
 142 0034 164C     		ldr	r4, .L14+8
 143              	.LVL6:
 144              		.loc 1 41 9 is_stmt 0 view .LVU39
 145 0036 03AB     		add	r3, sp, #12
 146 0038 1822     		movs	r2, #24
 147 003a 1321     		movs	r1, #19
 148 003c 2046     		mov	r0, r4
 149 003e FFF7FEFF 		bl	u8g2_DrawStr
 150              	.LVL7:
  42:Src/info_screen.c ****         // u8g2_DrawStr(&u8g2, 55, 24, ":");  //Blink for second
  43:Src/info_screen.c ****         // u8g2_DrawStr(&u8g2, 73, 24, "59"); //Variable
  44:Src/info_screen.c ****         u8g2_SetFont(&u8g2, u8g2_font_5x7_tr);
 151              		.loc 1 44 9 is_stmt 1 view .LVU40
 152 0042 1549     		ldr	r1, .L14+16
 153 0044 2046     		mov	r0, r4
 154 0046 FFF7FEFF 		bl	u8g2_SetFont
 155              	.LVL8:
  45:Src/info_screen.c ****         sprintf(buff, "%02d.%02d.%04d", localTime.mday, localTime.month, localTime.year);
 156              		.loc 1 45 9 view .LVU41
 157              		.loc 1 45 50 is_stmt 0 view .LVU42
 158 004a 0F4A     		ldr	r2, .L14
 159              		.loc 1 45 83 view .LVU43
 160 004c B2F90030 		ldrsh	r3, [r2]	@ unaligned
 161              		.loc 1 45 9 view .LVU44
 162 0050 0093     		str	r3, [sp]
 163 0052 92F90230 		ldrsb	r3, [r2, #2]
 164 0056 92F90320 		ldrsb	r2, [r2, #3]
 165 005a 1049     		ldr	r1, .L14+20
 166 005c 03A8     		add	r0, sp, #12
 167 005e FFF7FEFF 		bl	sprintf
 168              	.LVL9:
  46:Src/info_screen.c ****         u8g2_DrawStr(&u8g2, 40, 36, buff); //Variable
 169              		.loc 1 46 9 is_stmt 1 view .LVU45
 170 0062 03AB     		add	r3, sp, #12
 171 0064 2422     		movs	r2, #36
 172 0066 2821     		movs	r1, #40
 173 0068 2046     		mov	r0, r4
 174 006a FFF7FEFF 		bl	u8g2_DrawStr
 175              	.LVL10:
  47:Src/info_screen.c ****         // u8g2_DrawStr(&u8g2, 50, 36, ".");
  48:Src/info_screen.c ****         // u8g2_DrawStr(&u8g2, 54, 36, "12"); //Variable
  49:Src/info_screen.c ****         // u8g2_DrawStr(&u8g2, 64, 36, ".");
  50:Src/info_screen.c ****         // u8g2_DrawStr(&u8g2, 69, 36, "2019"); //Variable
  51:Src/info_screen.c ****         break;
 176              		.loc 1 51 9 view .LVU46
  52:Src/info_screen.c ****     case 1:
  53:Src/info_screen.c ****         break;
  54:Src/info_screen.c ****     default:
ARM GAS  C:\Users\behun\AppData\Local\Temp\ccxWaUuy.s 			page 5


  55:Src/info_screen.c ****         break;
  56:Src/info_screen.c ****     }
  57:Src/info_screen.c **** }
 177              		.loc 1 57 1 is_stmt 0 view .LVU47
 178 006e 06B0     		add	sp, sp, #24
 179              	.LCFI3:
 180              		.cfi_remember_state
 181              		.cfi_def_cfa_offset 8
 182              		@ sp needed
 183 0070 10BD     		pop	{r4, pc}
 184              	.LVL11:
 185              	.L8:
 186              	.LCFI4:
 187              		.cfi_restore_state
  40:Src/info_screen.c ****         u8g2_DrawStr(&u8g2, 19, 24, buff); //Variable
 188              		.loc 1 40 13 is_stmt 1 view .LVU48
  40:Src/info_screen.c ****         u8g2_DrawStr(&u8g2, 19, 24, buff); //Variable
 189              		.loc 1 40 49 is_stmt 0 view .LVU49
 190 0072 054A     		ldr	r2, .L14
  40:Src/info_screen.c ****         u8g2_DrawStr(&u8g2, 19, 24, buff); //Variable
 191              		.loc 1 40 13 view .LVU50
 192 0074 92F90630 		ldrsb	r3, [r2, #6]
 193 0078 92F90520 		ldrsb	r2, [r2, #5]
 194 007c 0849     		ldr	r1, .L14+24
 195 007e 03A8     		add	r0, sp, #12
 196 0080 FFF7FEFF 		bl	sprintf
 197              	.LVL12:
 198 0084 D6E7     		b	.L9
 199              	.LVL13:
 200              	.L11:
 201              	.LCFI5:
 202              		.cfi_def_cfa_offset 0
 203              		.cfi_restore 4
 204              		.cfi_restore 14
  40:Src/info_screen.c ****         u8g2_DrawStr(&u8g2, 19, 24, buff); //Variable
 205              		.loc 1 40 13 view .LVU51
 206 0086 7047     		bx	lr
 207              	.L15:
 208              		.align	2
 209              	.L14:
 210 0088 00000000 		.word	localTime
 211 008c 00000000 		.word	u8g2_font_inr21_mf
 212 0090 00000000 		.word	u8g2
 213 0094 00000000 		.word	.LC0
 214 0098 00000000 		.word	u8g2_font_5x7_tr
 215 009c 18000000 		.word	.LC2
 216 00a0 0C000000 		.word	.LC1
 217              		.cfi_endproc
 218              	.LFE67:
 220              		.section	.text.Filter_Pa,"ax",%progbits
 221              		.align	1
 222              		.global	Filter_Pa
 223              		.syntax unified
 224              		.thumb
 225              		.thumb_func
 226              		.fpu softvfp
 228              	Filter_Pa:
ARM GAS  C:\Users\behun\AppData\Local\Temp\ccxWaUuy.s 			page 6


 229              	.LVL14:
 230              	.LFB68:
  58:Src/info_screen.c **** void Filter_Pa(uint8_t PaStatus)
  59:Src/info_screen.c **** {
 231              		.loc 1 59 1 is_stmt 1 view -0
 232              		.cfi_startproc
 233              		@ args = 0, pretend = 0, frame = 8
 234              		@ frame_needed = 0, uses_anonymous_args = 0
 235              		.loc 1 59 1 is_stmt 0 view .LVU53
 236 0000 30B5     		push	{r4, r5, lr}
 237              	.LCFI6:
 238              		.cfi_def_cfa_offset 12
 239              		.cfi_offset 4, -12
 240              		.cfi_offset 5, -8
 241              		.cfi_offset 14, -4
 242 0002 83B0     		sub	sp, sp, #12
 243              	.LCFI7:
 244              		.cfi_def_cfa_offset 24
 245 0004 0546     		mov	r5, r0
  60:Src/info_screen.c ****     uint16_t buff[4];
 246              		.loc 1 60 5 is_stmt 1 view .LVU54
  61:Src/info_screen.c ****     itoa(filt_data.val, buff, 10);
 247              		.loc 1 61 5 view .LVU55
 248              		.loc 1 61 19 is_stmt 0 view .LVU56
 249 0006 124B     		ldr	r3, .L20
 250 0008 1888     		ldrh	r0, [r3]
 251              	.LVL15:
 252              		.loc 1 61 5 view .LVU57
 253 000a 0A22     		movs	r2, #10
 254 000c 6946     		mov	r1, sp
 255 000e FFF7FEFF 		bl	itoa
 256              	.LVL16:
  62:Src/info_screen.c ****     u8g2_SetFont(&u8g2, u8g2_font_5x8_tr);
 257              		.loc 1 62 5 is_stmt 1 view .LVU58
 258 0012 104C     		ldr	r4, .L20+4
 259 0014 1049     		ldr	r1, .L20+8
 260 0016 2046     		mov	r0, r4
 261 0018 FFF7FEFF 		bl	u8g2_SetFont
 262              	.LVL17:
  63:Src/info_screen.c ****     u8g2_DrawStr(&u8g2, 3, 51, "Filter:");
 263              		.loc 1 63 5 view .LVU59
 264 001c 0F4B     		ldr	r3, .L20+12
 265 001e 3322     		movs	r2, #51
 266 0020 0321     		movs	r1, #3
 267 0022 2046     		mov	r0, r4
 268 0024 FFF7FEFF 		bl	u8g2_DrawStr
 269              	.LVL18:
  64:Src/info_screen.c ****     u8g2_DrawStr(&u8g2, 77, 51, "Pa");
 270              		.loc 1 64 5 view .LVU60
 271 0028 0D4B     		ldr	r3, .L20+16
 272 002a 3322     		movs	r2, #51
 273 002c 4D21     		movs	r1, #77
 274 002e 2046     		mov	r0, r4
 275 0030 FFF7FEFF 		bl	u8g2_DrawStr
 276              	.LVL19:
  65:Src/info_screen.c ****     switch (PaStatus)
 277              		.loc 1 65 5 view .LVU61
ARM GAS  C:\Users\behun\AppData\Local\Temp\ccxWaUuy.s 			page 7


 278 0034 0DB1     		cbz	r5, .L19
 279              	.L16:
  66:Src/info_screen.c ****     {
  67:Src/info_screen.c ****     case 0:
  68:Src/info_screen.c ****         u8g2_SetFont(&u8g2, u8g2_font_5x7_tr);
  69:Src/info_screen.c ****         // u8g2_DrawStr(&u8g2, 55, 51, "000"); //Variable
  70:Src/info_screen.c ****         u8g2_DrawStr(&u8g2, 55, 51, buff); //Get value from the filter.
  71:Src/info_screen.c ****         break;
  72:Src/info_screen.c ****     case 1:
  73:Src/info_screen.c ****         break;
  74:Src/info_screen.c ****     default:
  75:Src/info_screen.c ****         break;
  76:Src/info_screen.c ****     }
  77:Src/info_screen.c **** }
 280              		.loc 1 77 1 is_stmt 0 view .LVU62
 281 0036 03B0     		add	sp, sp, #12
 282              	.LCFI8:
 283              		.cfi_remember_state
 284              		.cfi_def_cfa_offset 12
 285              		@ sp needed
 286 0038 30BD     		pop	{r4, r5, pc}
 287              	.L19:
 288              	.LCFI9:
 289              		.cfi_restore_state
  68:Src/info_screen.c ****         // u8g2_DrawStr(&u8g2, 55, 51, "000"); //Variable
 290              		.loc 1 68 9 is_stmt 1 view .LVU63
 291 003a 0A49     		ldr	r1, .L20+20
 292 003c 2046     		mov	r0, r4
 293 003e FFF7FEFF 		bl	u8g2_SetFont
 294              	.LVL20:
  70:Src/info_screen.c ****         break;
 295              		.loc 1 70 9 view .LVU64
 296 0042 6B46     		mov	r3, sp
 297 0044 3322     		movs	r2, #51
 298 0046 3721     		movs	r1, #55
 299 0048 2046     		mov	r0, r4
 300 004a FFF7FEFF 		bl	u8g2_DrawStr
 301              	.LVL21:
  71:Src/info_screen.c ****     case 1:
 302              		.loc 1 71 9 view .LVU65
 303              		.loc 1 77 1 is_stmt 0 view .LVU66
 304 004e F2E7     		b	.L16
 305              	.L21:
 306              		.align	2
 307              	.L20:
 308 0050 00000000 		.word	filt_data
 309 0054 00000000 		.word	u8g2
 310 0058 00000000 		.word	u8g2_font_5x8_tr
 311 005c 00000000 		.word	.LC3
 312 0060 08000000 		.word	.LC4
 313 0064 00000000 		.word	u8g2_font_5x7_tr
 314              		.cfi_endproc
 315              	.LFE68:
 317              		.section	.text.Flow,"ax",%progbits
 318              		.align	1
 319              		.global	Flow
 320              		.syntax unified
ARM GAS  C:\Users\behun\AppData\Local\Temp\ccxWaUuy.s 			page 8


 321              		.thumb
 322              		.thumb_func
 323              		.fpu softvfp
 325              	Flow:
 326              	.LVL22:
 327              	.LFB69:
  78:Src/info_screen.c **** void Flow(uint8_t FlowStatus)
  79:Src/info_screen.c **** {
 328              		.loc 1 79 1 is_stmt 1 view -0
 329              		.cfi_startproc
 330              		@ args = 0, pretend = 0, frame = 0
 331              		@ frame_needed = 0, uses_anonymous_args = 0
 332              		.loc 1 79 1 is_stmt 0 view .LVU68
 333 0000 38B5     		push	{r3, r4, r5, lr}
 334              	.LCFI10:
 335              		.cfi_def_cfa_offset 16
 336              		.cfi_offset 3, -16
 337              		.cfi_offset 4, -12
 338              		.cfi_offset 5, -8
 339              		.cfi_offset 14, -4
 340 0002 0546     		mov	r5, r0
  80:Src/info_screen.c ****     u8g2_SetFont(&u8g2, u8g2_font_5x8_mf);
 341              		.loc 1 80 5 is_stmt 1 view .LVU69
 342 0004 174C     		ldr	r4, .L26
 343 0006 1849     		ldr	r1, .L26+4
 344 0008 2046     		mov	r0, r4
 345              	.LVL23:
 346              		.loc 1 80 5 is_stmt 0 view .LVU70
 347 000a FFF7FEFF 		bl	u8g2_SetFont
 348              	.LVL24:
  81:Src/info_screen.c ****     u8g2_DrawStr(&u8g2, 3, 61, "Flow  :");
 349              		.loc 1 81 5 is_stmt 1 view .LVU71
 350 000e 174B     		ldr	r3, .L26+8
 351 0010 3D22     		movs	r2, #61
 352 0012 0321     		movs	r1, #3
 353 0014 2046     		mov	r0, r4
 354 0016 FFF7FEFF 		bl	u8g2_DrawStr
 355              	.LVL25:
  82:Src/info_screen.c ****     u8g2_SetFont(&u8g2, u8g2_font_5x7_mf);
 356              		.loc 1 82 5 view .LVU72
 357 001a 1549     		ldr	r1, .L26+12
 358 001c 2046     		mov	r0, r4
 359 001e FFF7FEFF 		bl	u8g2_SetFont
 360              	.LVL26:
  83:Src/info_screen.c ****     u8g2_DrawStr(&u8g2, 77, 61, "m/s");
 361              		.loc 1 83 5 view .LVU73
 362 0022 144B     		ldr	r3, .L26+16
 363 0024 3D22     		movs	r2, #61
 364 0026 4D21     		movs	r1, #77
 365 0028 2046     		mov	r0, r4
 366 002a FFF7FEFF 		bl	u8g2_DrawStr
 367              	.LVL27:
  84:Src/info_screen.c ****     switch (FlowStatus)
 368              		.loc 1 84 5 view .LVU74
 369 002e 05B1     		cbz	r5, .L25
 370              	.L22:
  85:Src/info_screen.c ****     {
ARM GAS  C:\Users\behun\AppData\Local\Temp\ccxWaUuy.s 			page 9


  86:Src/info_screen.c ****     case 0:
  87:Src/info_screen.c ****         u8g2_SetFont(&u8g2, u8g2_font_5x7_tr);
  88:Src/info_screen.c ****         u8g2_DrawStr(&u8g2, 46, 61, "00"); //Variable
  89:Src/info_screen.c ****         u8g2_DrawStr(&u8g2, 56, 61, ".");
  90:Src/info_screen.c ****         u8g2_DrawStr(&u8g2, 60, 61, "00"); //Variable
  91:Src/info_screen.c ****         break;
  92:Src/info_screen.c ****     case 1:
  93:Src/info_screen.c ****         break;
  94:Src/info_screen.c ****     default:
  95:Src/info_screen.c ****         break;
  96:Src/info_screen.c ****     }
  97:Src/info_screen.c **** }
 371              		.loc 1 97 1 is_stmt 0 view .LVU75
 372 0030 38BD     		pop	{r3, r4, r5, pc}
 373              	.L25:
  87:Src/info_screen.c ****         u8g2_DrawStr(&u8g2, 46, 61, "00"); //Variable
 374              		.loc 1 87 9 is_stmt 1 view .LVU76
 375 0032 1149     		ldr	r1, .L26+20
 376 0034 2046     		mov	r0, r4
 377 0036 FFF7FEFF 		bl	u8g2_SetFont
 378              	.LVL28:
  88:Src/info_screen.c ****         u8g2_DrawStr(&u8g2, 56, 61, ".");
 379              		.loc 1 88 9 view .LVU77
 380 003a 104D     		ldr	r5, .L26+24
 381 003c 2B46     		mov	r3, r5
 382 003e 3D22     		movs	r2, #61
 383 0040 2E21     		movs	r1, #46
 384 0042 2046     		mov	r0, r4
 385 0044 FFF7FEFF 		bl	u8g2_DrawStr
 386              	.LVL29:
  89:Src/info_screen.c ****         u8g2_DrawStr(&u8g2, 60, 61, "00"); //Variable
 387              		.loc 1 89 9 view .LVU78
 388 0048 0D4B     		ldr	r3, .L26+28
 389 004a 3D22     		movs	r2, #61
 390 004c 3821     		movs	r1, #56
 391 004e 2046     		mov	r0, r4
 392 0050 FFF7FEFF 		bl	u8g2_DrawStr
 393              	.LVL30:
  90:Src/info_screen.c ****         break;
 394              		.loc 1 90 9 view .LVU79
 395 0054 2B46     		mov	r3, r5
 396 0056 3D22     		movs	r2, #61
 397 0058 3C21     		movs	r1, #60
 398 005a 2046     		mov	r0, r4
 399 005c FFF7FEFF 		bl	u8g2_DrawStr
 400              	.LVL31:
  91:Src/info_screen.c ****     case 1:
 401              		.loc 1 91 9 view .LVU80
 402              		.loc 1 97 1 is_stmt 0 view .LVU81
 403 0060 E6E7     		b	.L22
 404              	.L27:
 405 0062 00BF     		.align	2
 406              	.L26:
 407 0064 00000000 		.word	u8g2
 408 0068 00000000 		.word	u8g2_font_5x8_mf
 409 006c 00000000 		.word	.LC5
 410 0070 00000000 		.word	u8g2_font_5x7_mf
ARM GAS  C:\Users\behun\AppData\Local\Temp\ccxWaUuy.s 			page 10


 411 0074 08000000 		.word	.LC6
 412 0078 00000000 		.word	u8g2_font_5x7_tr
 413 007c 0C000000 		.word	.LC7
 414 0080 10000000 		.word	.LC8
 415              		.cfi_endproc
 416              	.LFE69:
 418              		.section	.text.Temperature,"ax",%progbits
 419              		.align	1
 420              		.global	Temperature
 421              		.syntax unified
 422              		.thumb
 423              		.thumb_func
 424              		.fpu softvfp
 426              	Temperature:
 427              	.LVL32:
 428              	.LFB70:
  98:Src/info_screen.c **** void Temperature(uint8_t TempStatus)
  99:Src/info_screen.c **** {
 429              		.loc 1 99 1 is_stmt 1 view -0
 430              		.cfi_startproc
 431              		@ args = 0, pretend = 0, frame = 0
 432              		@ frame_needed = 0, uses_anonymous_args = 0
 433              		.loc 1 99 1 is_stmt 0 view .LVU83
 434 0000 30B5     		push	{r4, r5, lr}
 435              	.LCFI11:
 436              		.cfi_def_cfa_offset 12
 437              		.cfi_offset 4, -12
 438              		.cfi_offset 5, -8
 439              		.cfi_offset 14, -4
 440 0002 83B0     		sub	sp, sp, #12
 441              	.LCFI12:
 442              		.cfi_def_cfa_offset 24
 443 0004 0546     		mov	r5, r0
 100:Src/info_screen.c ****     u8g2_DrawBitmap(&u8g2, 97, 26, bmp_temp.width / 8, bmp_temp.height, bmp_temp.data);
 444              		.loc 1 100 5 is_stmt 1 view .LVU84
 445              		.loc 1 100 44 is_stmt 0 view .LVU85
 446 0006 184A     		ldr	r2, .L33
 447 0008 1378     		ldrb	r3, [r2]	@ zero_extendqisi2
 448              		.loc 1 100 5 view .LVU86
 449 000a 184C     		ldr	r4, .L33+4
 450 000c 5168     		ldr	r1, [r2, #4]
 451 000e 0191     		str	r1, [sp, #4]
 452 0010 5278     		ldrb	r2, [r2, #1]	@ zero_extendqisi2
 453 0012 0092     		str	r2, [sp]
 454 0014 DB08     		lsrs	r3, r3, #3
 455 0016 1A22     		movs	r2, #26
 456 0018 6121     		movs	r1, #97
 457 001a 2046     		mov	r0, r4
 458              	.LVL33:
 459              		.loc 1 100 5 view .LVU87
 460 001c FFF7FEFF 		bl	u8g2_DrawBitmap
 461              	.LVL34:
 101:Src/info_screen.c ****     u8g2_SetFont(&u8g2, u8g2_font_5x7_tr);
 462              		.loc 1 101 5 is_stmt 1 view .LVU88
 463 0020 1349     		ldr	r1, .L33+8
 464 0022 2046     		mov	r0, r4
 465 0024 FFF7FEFF 		bl	u8g2_SetFont
ARM GAS  C:\Users\behun\AppData\Local\Temp\ccxWaUuy.s 			page 11


 466              	.LVL35:
 102:Src/info_screen.c ****     u8g2_DrawStr(&u8g2, 119, 29, ".");
 467              		.loc 1 102 5 view .LVU89
 468 0028 124B     		ldr	r3, .L33+12
 469 002a 1D22     		movs	r2, #29
 470 002c 7721     		movs	r1, #119
 471 002e 2046     		mov	r0, r4
 472 0030 FFF7FEFF 		bl	u8g2_DrawStr
 473              	.LVL36:
 103:Src/info_screen.c ****     u8g2_DrawStr(&u8g2, 122, 35, "C");
 474              		.loc 1 103 5 view .LVU90
 475 0034 104B     		ldr	r3, .L33+16
 476 0036 2322     		movs	r2, #35
 477 0038 7A21     		movs	r1, #122
 478 003a 2046     		mov	r0, r4
 479 003c FFF7FEFF 		bl	u8g2_DrawStr
 480              	.LVL37:
 104:Src/info_screen.c ****     switch (TempStatus)
 481              		.loc 1 104 5 view .LVU91
 482 0040 1DB1     		cbz	r5, .L29
 483 0042 012D     		cmp	r5, #1
 484 0044 08D0     		beq	.L30
 485              	.L28:
 105:Src/info_screen.c ****     {
 106:Src/info_screen.c ****     case 0:
 107:Src/info_screen.c ****         u8g2_DrawStr(&u8g2, 110, 35, "75");
 108:Src/info_screen.c ****         break;
 109:Src/info_screen.c ****     case 1:
 110:Src/info_screen.c ****         u8g2_DrawStr(&u8g2, 110, 35, "00"); //variable x
 111:Src/info_screen.c ****         break;
 112:Src/info_screen.c ****     default:
 113:Src/info_screen.c ****         break;
 114:Src/info_screen.c ****     }
 115:Src/info_screen.c **** }
 486              		.loc 1 115 1 is_stmt 0 view .LVU92
 487 0046 03B0     		add	sp, sp, #12
 488              	.LCFI13:
 489              		.cfi_remember_state
 490              		.cfi_def_cfa_offset 12
 491              		@ sp needed
 492 0048 30BD     		pop	{r4, r5, pc}
 493              	.L29:
 494              	.LCFI14:
 495              		.cfi_restore_state
 107:Src/info_screen.c ****         break;
 496              		.loc 1 107 9 is_stmt 1 view .LVU93
 497 004a 0C4B     		ldr	r3, .L33+20
 498 004c 2322     		movs	r2, #35
 499 004e 6E21     		movs	r1, #110
 500 0050 0648     		ldr	r0, .L33+4
 501 0052 FFF7FEFF 		bl	u8g2_DrawStr
 502              	.LVL38:
 108:Src/info_screen.c ****     case 1:
 503              		.loc 1 108 9 view .LVU94
 504 0056 F6E7     		b	.L28
 505              	.L30:
 110:Src/info_screen.c ****         break;
ARM GAS  C:\Users\behun\AppData\Local\Temp\ccxWaUuy.s 			page 12


 506              		.loc 1 110 9 view .LVU95
 507 0058 094B     		ldr	r3, .L33+24
 508 005a 2322     		movs	r2, #35
 509 005c 6E21     		movs	r1, #110
 510 005e 0348     		ldr	r0, .L33+4
 511 0060 FFF7FEFF 		bl	u8g2_DrawStr
 512              	.LVL39:
 111:Src/info_screen.c ****     default:
 513              		.loc 1 111 9 view .LVU96
 514              		.loc 1 115 1 is_stmt 0 view .LVU97
 515 0064 EFE7     		b	.L28
 516              	.L34:
 517 0066 00BF     		.align	2
 518              	.L33:
 519 0068 00000000 		.word	bmp_temp
 520 006c 00000000 		.word	u8g2
 521 0070 00000000 		.word	u8g2_font_5x7_tr
 522 0074 10000000 		.word	.LC8
 523 0078 00000000 		.word	.LC9
 524 007c 04000000 		.word	.LC10
 525 0080 0C000000 		.word	.LC7
 526              		.cfi_endproc
 527              	.LFE70:
 529              		.section	.text.Door,"ax",%progbits
 530              		.align	1
 531              		.global	Door
 532              		.syntax unified
 533              		.thumb
 534              		.thumb_func
 535              		.fpu softvfp
 537              	Door:
 538              	.LVL40:
 539              	.LFB71:
 116:Src/info_screen.c **** void Door(uint8_t DStatus)
 117:Src/info_screen.c **** {
 540              		.loc 1 117 1 is_stmt 1 view -0
 541              		.cfi_startproc
 542              		@ args = 0, pretend = 0, frame = 0
 543              		@ frame_needed = 0, uses_anonymous_args = 0
 544              		.loc 1 117 1 is_stmt 0 view .LVU99
 545 0000 30B5     		push	{r4, r5, lr}
 546              	.LCFI15:
 547              		.cfi_def_cfa_offset 12
 548              		.cfi_offset 4, -12
 549              		.cfi_offset 5, -8
 550              		.cfi_offset 14, -4
 551 0002 83B0     		sub	sp, sp, #12
 552              	.LCFI16:
 553              		.cfi_def_cfa_offset 24
 554 0004 0446     		mov	r4, r0
 118:Src/info_screen.c ****     u8g2_SetFont(&u8g2, u8g2_font_5x8_mf);
 555              		.loc 1 118 5 is_stmt 1 view .LVU100
 556 0006 224D     		ldr	r5, .L41
 557 0008 2249     		ldr	r1, .L41+4
 558 000a 2846     		mov	r0, r5
 559              	.LVL41:
 560              		.loc 1 118 5 is_stmt 0 view .LVU101
ARM GAS  C:\Users\behun\AppData\Local\Temp\ccxWaUuy.s 			page 13


 561 000c FFF7FEFF 		bl	u8g2_SetFont
 562              	.LVL42:
 119:Src/info_screen.c ****     u8g2_DrawStr(&u8g2, 108, 61, "Door");
 563              		.loc 1 119 5 is_stmt 1 view .LVU102
 564 0010 214B     		ldr	r3, .L41+8
 565 0012 3D22     		movs	r2, #61
 566 0014 6C21     		movs	r1, #108
 567 0016 2846     		mov	r0, r5
 568 0018 FFF7FEFF 		bl	u8g2_DrawStr
 569              	.LVL43:
 120:Src/info_screen.c ****     switch (DStatus)
 570              		.loc 1 120 5 view .LVU103
 571 001c 012C     		cmp	r4, #1
 572 001e 0ED0     		beq	.L36
 573 0020 63B2     		sxtb	r3, r4
 574 0022 1BB1     		cbz	r3, .L37
 575 0024 022C     		cmp	r4, #2
 576 0026 1BD0     		beq	.L38
 577              	.L35:
 121:Src/info_screen.c ****     {
 122:Src/info_screen.c ****     case 0:
 123:Src/info_screen.c ****         u8g2_DrawBox(&u8g2, 113, 50, 9, 3); //0
 124:Src/info_screen.c ****         break;
 125:Src/info_screen.c ****     case 1:
 126:Src/info_screen.c ****         u8g2_DrawBox(&u8g2, 113, 50, 9, 3); //0
 127:Src/info_screen.c ****         u8g2_DrawBox(&u8g2, 113, 46, 9, 3); //1
 128:Src/info_screen.c ****         break;
 129:Src/info_screen.c ****     case 2:
 130:Src/info_screen.c ****         u8g2_DrawBox(&u8g2, 113, 50, 9, 3); //0
 131:Src/info_screen.c ****         u8g2_DrawBox(&u8g2, 113, 46, 9, 3); //1
 132:Src/info_screen.c ****         u8g2_DrawBox(&u8g2, 113, 42, 9, 3); //2
 133:Src/info_screen.c ****         break;
 134:Src/info_screen.c ****     default:
 135:Src/info_screen.c ****         break;
 136:Src/info_screen.c ****     }
 137:Src/info_screen.c **** }
 578              		.loc 1 137 1 is_stmt 0 view .LVU104
 579 0028 03B0     		add	sp, sp, #12
 580              	.LCFI17:
 581              		.cfi_remember_state
 582              		.cfi_def_cfa_offset 12
 583              		@ sp needed
 584 002a 30BD     		pop	{r4, r5, pc}
 585              	.L37:
 586              	.LCFI18:
 587              		.cfi_restore_state
 123:Src/info_screen.c ****         break;
 588              		.loc 1 123 9 is_stmt 1 view .LVU105
 589 002c 0323     		movs	r3, #3
 590 002e 0093     		str	r3, [sp]
 591 0030 0923     		movs	r3, #9
 592 0032 3222     		movs	r2, #50
 593 0034 7121     		movs	r1, #113
 594 0036 1648     		ldr	r0, .L41
 595 0038 FFF7FEFF 		bl	u8g2_DrawBox
 596              	.LVL44:
 124:Src/info_screen.c ****     case 1:
ARM GAS  C:\Users\behun\AppData\Local\Temp\ccxWaUuy.s 			page 14


 597              		.loc 1 124 9 view .LVU106
 598 003c F4E7     		b	.L35
 599              	.L36:
 126:Src/info_screen.c ****         u8g2_DrawBox(&u8g2, 113, 46, 9, 3); //1
 600              		.loc 1 126 9 view .LVU107
 601 003e 144C     		ldr	r4, .L41
 602 0040 0325     		movs	r5, #3
 603 0042 0095     		str	r5, [sp]
 604 0044 0923     		movs	r3, #9
 605 0046 3222     		movs	r2, #50
 606 0048 7121     		movs	r1, #113
 607 004a 2046     		mov	r0, r4
 608 004c FFF7FEFF 		bl	u8g2_DrawBox
 609              	.LVL45:
 127:Src/info_screen.c ****         break;
 610              		.loc 1 127 9 view .LVU108
 611 0050 0095     		str	r5, [sp]
 612 0052 0923     		movs	r3, #9
 613 0054 2E22     		movs	r2, #46
 614 0056 7121     		movs	r1, #113
 615 0058 2046     		mov	r0, r4
 616 005a FFF7FEFF 		bl	u8g2_DrawBox
 617              	.LVL46:
 128:Src/info_screen.c ****     case 2:
 618              		.loc 1 128 9 view .LVU109
 619 005e E3E7     		b	.L35
 620              	.L38:
 130:Src/info_screen.c ****         u8g2_DrawBox(&u8g2, 113, 46, 9, 3); //1
 621              		.loc 1 130 9 view .LVU110
 622 0060 0B4C     		ldr	r4, .L41
 623 0062 0325     		movs	r5, #3
 624 0064 0095     		str	r5, [sp]
 625 0066 0923     		movs	r3, #9
 626 0068 3222     		movs	r2, #50
 627 006a 7121     		movs	r1, #113
 628 006c 2046     		mov	r0, r4
 629 006e FFF7FEFF 		bl	u8g2_DrawBox
 630              	.LVL47:
 131:Src/info_screen.c ****         u8g2_DrawBox(&u8g2, 113, 42, 9, 3); //2
 631              		.loc 1 131 9 view .LVU111
 632 0072 0095     		str	r5, [sp]
 633 0074 0923     		movs	r3, #9
 634 0076 2E22     		movs	r2, #46
 635 0078 7121     		movs	r1, #113
 636 007a 2046     		mov	r0, r4
 637 007c FFF7FEFF 		bl	u8g2_DrawBox
 638              	.LVL48:
 132:Src/info_screen.c ****         break;
 639              		.loc 1 132 9 view .LVU112
 640 0080 0095     		str	r5, [sp]
 641 0082 0923     		movs	r3, #9
 642 0084 2A22     		movs	r2, #42
 643 0086 7121     		movs	r1, #113
 644 0088 2046     		mov	r0, r4
 645 008a FFF7FEFF 		bl	u8g2_DrawBox
 646              	.LVL49:
 133:Src/info_screen.c ****     default:
ARM GAS  C:\Users\behun\AppData\Local\Temp\ccxWaUuy.s 			page 15


 647              		.loc 1 133 9 view .LVU113
 648              		.loc 1 137 1 is_stmt 0 view .LVU114
 649 008e CBE7     		b	.L35
 650              	.L42:
 651              		.align	2
 652              	.L41:
 653 0090 00000000 		.word	u8g2
 654 0094 00000000 		.word	u8g2_font_5x8_mf
 655 0098 00000000 		.word	.LC11
 656              		.cfi_endproc
 657              	.LFE71:
 659              		.section	.text.Frame_Door,"ax",%progbits
 660              		.align	1
 661              		.global	Frame_Door
 662              		.syntax unified
 663              		.thumb
 664              		.thumb_func
 665              		.fpu softvfp
 667              	Frame_Door:
 668              	.LFB73:
 138:Src/info_screen.c **** void Info_Screen_Manage(void)
 139:Src/info_screen.c **** {
 140:Src/info_screen.c ****     SysTime(Info_Scr.SysTime);
 141:Src/info_screen.c ****     Filter_Pa(Info_Scr.Filter_Pa);
 142:Src/info_screen.c ****     Flow(Info_Scr.Flow);
 143:Src/info_screen.c ****     Door(Info_Scr.Door);
 144:Src/info_screen.c ****     Temperature(Info_Scr.Temp);
 145:Src/info_screen.c ****     u8g2_DrawHLine(&u8g2, 29, 40, 70);
 146:Src/info_screen.c ****     Frame_Door();
 147:Src/info_screen.c **** }
 148:Src/info_screen.c **** void Frame_Door(void)
 149:Src/info_screen.c **** {
 669              		.loc 1 149 1 is_stmt 1 view -0
 670              		.cfi_startproc
 671              		@ args = 0, pretend = 0, frame = 0
 672              		@ frame_needed = 0, uses_anonymous_args = 0
 673 0000 30B5     		push	{r4, r5, lr}
 674              	.LCFI19:
 675              		.cfi_def_cfa_offset 12
 676              		.cfi_offset 4, -12
 677              		.cfi_offset 5, -8
 678              		.cfi_offset 14, -4
 679 0002 83B0     		sub	sp, sp, #12
 680              	.LCFI20:
 681              		.cfi_def_cfa_offset 24
 150:Src/info_screen.c ****     u8g2_DrawHVLine(&u8g2, 109, 40, 13, 1);
 682              		.loc 1 150 5 view .LVU116
 683 0004 0B4C     		ldr	r4, .L45
 684 0006 0125     		movs	r5, #1
 685 0008 0095     		str	r5, [sp]
 686 000a 0D23     		movs	r3, #13
 687 000c 2822     		movs	r2, #40
 688 000e 6D21     		movs	r1, #109
 689 0010 2046     		mov	r0, r4
 690 0012 FFF7FEFF 		bl	u8g2_DrawHVLine
 691              	.LVL50:
 151:Src/info_screen.c ****     u8g2_DrawHVLine(&u8g2, 125, 40, 13, 1);
ARM GAS  C:\Users\behun\AppData\Local\Temp\ccxWaUuy.s 			page 16


 692              		.loc 1 151 5 view .LVU117
 693 0016 0095     		str	r5, [sp]
 694 0018 0D23     		movs	r3, #13
 695 001a 2822     		movs	r2, #40
 696 001c 7D21     		movs	r1, #125
 697 001e 2046     		mov	r0, r4
 698 0020 FFF7FEFF 		bl	u8g2_DrawHVLine
 699              	.LVL51:
 152:Src/info_screen.c ****     u8g2_DrawHLine(&u8g2, 110, 40, 16);
 700              		.loc 1 152 5 view .LVU118
 701 0024 1023     		movs	r3, #16
 702 0026 2822     		movs	r2, #40
 703 0028 6E21     		movs	r1, #110
 704 002a 2046     		mov	r0, r4
 705 002c FFF7FEFF 		bl	u8g2_DrawHLine
 706              	.LVL52:
 153:Src/info_screen.c **** }
 707              		.loc 1 153 1 is_stmt 0 view .LVU119
 708 0030 03B0     		add	sp, sp, #12
 709              	.LCFI21:
 710              		.cfi_def_cfa_offset 12
 711              		@ sp needed
 712 0032 30BD     		pop	{r4, r5, pc}
 713              	.L46:
 714              		.align	2
 715              	.L45:
 716 0034 00000000 		.word	u8g2
 717              		.cfi_endproc
 718              	.LFE73:
 720              		.section	.text.Info_Screen_Manage,"ax",%progbits
 721              		.align	1
 722              		.global	Info_Screen_Manage
 723              		.syntax unified
 724              		.thumb
 725              		.thumb_func
 726              		.fpu softvfp
 728              	Info_Screen_Manage:
 729              	.LFB72:
 139:Src/info_screen.c ****     SysTime(Info_Scr.SysTime);
 730              		.loc 1 139 1 is_stmt 1 view -0
 731              		.cfi_startproc
 732              		@ args = 0, pretend = 0, frame = 0
 733              		@ frame_needed = 0, uses_anonymous_args = 0
 734 0000 10B5     		push	{r4, lr}
 735              	.LCFI22:
 736              		.cfi_def_cfa_offset 8
 737              		.cfi_offset 4, -8
 738              		.cfi_offset 14, -4
 140:Src/info_screen.c ****     Filter_Pa(Info_Scr.Filter_Pa);
 739              		.loc 1 140 5 view .LVU121
 740 0002 0C4C     		ldr	r4, .L49
 741 0004 2078     		ldrb	r0, [r4]	@ zero_extendqisi2
 742 0006 FFF7FEFF 		bl	SysTime
 743              	.LVL53:
 141:Src/info_screen.c ****     Flow(Info_Scr.Flow);
 744              		.loc 1 141 5 view .LVU122
 745 000a A078     		ldrb	r0, [r4, #2]	@ zero_extendqisi2
ARM GAS  C:\Users\behun\AppData\Local\Temp\ccxWaUuy.s 			page 17


 746 000c FFF7FEFF 		bl	Filter_Pa
 747              	.LVL54:
 142:Src/info_screen.c ****     Door(Info_Scr.Door);
 748              		.loc 1 142 5 view .LVU123
 749 0010 2079     		ldrb	r0, [r4, #4]	@ zero_extendqisi2
 750 0012 FFF7FEFF 		bl	Flow
 751              	.LVL55:
 143:Src/info_screen.c ****     Temperature(Info_Scr.Temp);
 752              		.loc 1 143 5 view .LVU124
 753 0016 E079     		ldrb	r0, [r4, #7]	@ zero_extendqisi2
 754 0018 FFF7FEFF 		bl	Door
 755              	.LVL56:
 144:Src/info_screen.c ****     u8g2_DrawHLine(&u8g2, 29, 40, 70);
 756              		.loc 1 144 5 view .LVU125
 757 001c A079     		ldrb	r0, [r4, #6]	@ zero_extendqisi2
 758 001e FFF7FEFF 		bl	Temperature
 759              	.LVL57:
 145:Src/info_screen.c ****     Frame_Door();
 760              		.loc 1 145 5 view .LVU126
 761 0022 4623     		movs	r3, #70
 762 0024 2822     		movs	r2, #40
 763 0026 1D21     		movs	r1, #29
 764 0028 0348     		ldr	r0, .L49+4
 765 002a FFF7FEFF 		bl	u8g2_DrawHLine
 766              	.LVL58:
 146:Src/info_screen.c **** }
 767              		.loc 1 146 5 view .LVU127
 768 002e FFF7FEFF 		bl	Frame_Door
 769              	.LVL59:
 147:Src/info_screen.c **** void Frame_Door(void)
 770              		.loc 1 147 1 is_stmt 0 view .LVU128
 771 0032 10BD     		pop	{r4, pc}
 772              	.L50:
 773              		.align	2
 774              	.L49:
 775 0034 00000000 		.word	Info_Scr
 776 0038 00000000 		.word	u8g2
 777              		.cfi_endproc
 778              	.LFE72:
 780              		.comm	Info_Scr,12,4
 781              		.comm	u8g2,128,4
 782              		.comm	bmp_temp,8,4
 783              		.section	.rodata.Door.str1.4,"aMS",%progbits,1
 784              		.align	2
 785              	.LC11:
 786 0000 446F6F72 		.ascii	"Door\000"
 786      00
 787              		.section	.rodata.Filter_Pa.str1.4,"aMS",%progbits,1
 788              		.align	2
 789              	.LC3:
 790 0000 46696C74 		.ascii	"Filter:\000"
 790      65723A00 
 791              	.LC4:
 792 0008 506100   		.ascii	"Pa\000"
 793              		.section	.rodata.Flow.str1.4,"aMS",%progbits,1
 794              		.align	2
 795              	.LC5:
ARM GAS  C:\Users\behun\AppData\Local\Temp\ccxWaUuy.s 			page 18


 796 0000 466C6F77 		.ascii	"Flow  :\000"
 796      20203A00 
 797              	.LC6:
 798 0008 6D2F7300 		.ascii	"m/s\000"
 799              	.LC7:
 800 000c 303000   		.ascii	"00\000"
 801 000f 00       		.space	1
 802              	.LC8:
 803 0010 2E00     		.ascii	".\000"
 804              		.section	.rodata.SysTime.str1.4,"aMS",%progbits,1
 805              		.align	2
 806              	.LC0:
 807 0000 25303264 		.ascii	"%02d:%02d\000"
 807      3A253032 
 807      6400
 808 000a 0000     		.space	2
 809              	.LC1:
 810 000c 25303264 		.ascii	"%02d %02d\000"
 810      20253032 
 810      6400
 811 0016 0000     		.space	2
 812              	.LC2:
 813 0018 25303264 		.ascii	"%02d.%02d.%04d\000"
 813      2E253032 
 813      642E2530 
 813      346400
 814              		.section	.rodata.Temperature.str1.4,"aMS",%progbits,1
 815              		.align	2
 816              	.LC9:
 817 0000 4300     		.ascii	"C\000"
 818 0002 0000     		.space	2
 819              	.LC10:
 820 0004 373500   		.ascii	"75\000"
 821              		.text
 822              	.Letext0:
 823              		.file 2 "c:\\program files (x86)\\gnu tools arm embedded\\8 2019-q3-update\\arm-none-eabi\\include
 824              		.file 3 "c:\\program files (x86)\\gnu tools arm embedded\\8 2019-q3-update\\arm-none-eabi\\include
 825              		.file 4 "Drivers/CMSIS/Include/core_cm3.h"
 826              		.file 5 "Drivers/CMSIS/Device/ST/STM32F1xx/Include/system_stm32f1xx.h"
 827              		.file 6 "Drivers/CMSIS/Device/ST/STM32F1xx/Include/stm32f103xe.h"
 828              		.file 7 "c:\\program files (x86)\\gnu tools arm embedded\\8 2019-q3-update\\lib\\gcc\\arm-none-eab
 829              		.file 8 "c:\\program files (x86)\\gnu tools arm embedded\\8 2019-q3-update\\arm-none-eabi\\include
 830              		.file 9 "c:\\program files (x86)\\gnu tools arm embedded\\8 2019-q3-update\\arm-none-eabi\\include
 831              		.file 10 "c:\\program files (x86)\\gnu tools arm embedded\\8 2019-q3-update\\arm-none-eabi\\includ
 832              		.file 11 "Drivers/STM32F1xx_HAL_Driver/Inc/stm32f1xx_hal_def.h"
 833              		.file 12 "Drivers/STM32F1xx_HAL_Driver/Inc/stm32f1xx_hal_rtc.h"
 834              		.file 13 "Drivers/STM32F1xx_HAL_Driver/Inc/stm32f1xx_hal.h"
 835              		.file 14 "Inc/info_screen.h"
 836              		.file 15 "u8g2/csrc/u8x8.h"
 837              		.file 16 "u8g2/csrc/u8g2.h"
 838              		.file 17 "Inc/user_bitmap.h"
 839              		.file 18 "c:\\program files (x86)\\gnu tools arm embedded\\8 2019-q3-update\\arm-none-eabi\\includ
 840              		.file 19 "Inc/clock_rtc.h"
 841              		.file 20 "Inc/filter_data.h"
 842              		.file 21 "c:\\program files (x86)\\gnu tools arm embedded\\8 2019-q3-update\\arm-none-eabi\\includ
 843              		.file 22 "c:\\program files (x86)\\gnu tools arm embedded\\8 2019-q3-update\\arm-none-eabi\\includ
ARM GAS  C:\Users\behun\AppData\Local\Temp\ccxWaUuy.s 			page 19


DEFINED SYMBOLS
                            *ABS*:00000000 info_screen.c
C:\Users\behun\AppData\Local\Temp\ccxWaUuy.s:16     .text.Info_Screen_Init:00000000 $t
C:\Users\behun\AppData\Local\Temp\ccxWaUuy.s:24     .text.Info_Screen_Init:00000000 Info_Screen_Init
C:\Users\behun\AppData\Local\Temp\ccxWaUuy.s:74     .text.Info_Screen_Init:00000020 $d
                            *COM*:0000000c Info_Scr
C:\Users\behun\AppData\Local\Temp\ccxWaUuy.s:79     .text.SysTime:00000000 $t
C:\Users\behun\AppData\Local\Temp\ccxWaUuy.s:86     .text.SysTime:00000000 SysTime
C:\Users\behun\AppData\Local\Temp\ccxWaUuy.s:210    .text.SysTime:00000088 $d
                            *COM*:00000080 u8g2
C:\Users\behun\AppData\Local\Temp\ccxWaUuy.s:221    .text.Filter_Pa:00000000 $t
C:\Users\behun\AppData\Local\Temp\ccxWaUuy.s:228    .text.Filter_Pa:00000000 Filter_Pa
C:\Users\behun\AppData\Local\Temp\ccxWaUuy.s:308    .text.Filter_Pa:00000050 $d
C:\Users\behun\AppData\Local\Temp\ccxWaUuy.s:318    .text.Flow:00000000 $t
C:\Users\behun\AppData\Local\Temp\ccxWaUuy.s:325    .text.Flow:00000000 Flow
C:\Users\behun\AppData\Local\Temp\ccxWaUuy.s:407    .text.Flow:00000064 $d
C:\Users\behun\AppData\Local\Temp\ccxWaUuy.s:419    .text.Temperature:00000000 $t
C:\Users\behun\AppData\Local\Temp\ccxWaUuy.s:426    .text.Temperature:00000000 Temperature
C:\Users\behun\AppData\Local\Temp\ccxWaUuy.s:519    .text.Temperature:00000068 $d
                            *COM*:00000008 bmp_temp
C:\Users\behun\AppData\Local\Temp\ccxWaUuy.s:530    .text.Door:00000000 $t
C:\Users\behun\AppData\Local\Temp\ccxWaUuy.s:537    .text.Door:00000000 Door
C:\Users\behun\AppData\Local\Temp\ccxWaUuy.s:653    .text.Door:00000090 $d
C:\Users\behun\AppData\Local\Temp\ccxWaUuy.s:660    .text.Frame_Door:00000000 $t
C:\Users\behun\AppData\Local\Temp\ccxWaUuy.s:667    .text.Frame_Door:00000000 Frame_Door
C:\Users\behun\AppData\Local\Temp\ccxWaUuy.s:716    .text.Frame_Door:00000034 $d
C:\Users\behun\AppData\Local\Temp\ccxWaUuy.s:721    .text.Info_Screen_Manage:00000000 $t
C:\Users\behun\AppData\Local\Temp\ccxWaUuy.s:728    .text.Info_Screen_Manage:00000000 Info_Screen_Manage
C:\Users\behun\AppData\Local\Temp\ccxWaUuy.s:775    .text.Info_Screen_Manage:00000034 $d
C:\Users\behun\AppData\Local\Temp\ccxWaUuy.s:784    .rodata.Door.str1.4:00000000 $d
C:\Users\behun\AppData\Local\Temp\ccxWaUuy.s:788    .rodata.Filter_Pa.str1.4:00000000 $d
C:\Users\behun\AppData\Local\Temp\ccxWaUuy.s:794    .rodata.Flow.str1.4:00000000 $d
C:\Users\behun\AppData\Local\Temp\ccxWaUuy.s:805    .rodata.SysTime.str1.4:00000000 $d
C:\Users\behun\AppData\Local\Temp\ccxWaUuy.s:815    .rodata.Temperature.str1.4:00000000 $d

UNDEFINED SYMBOLS
HAL_GetTick
u8g2_SetFont
sprintf
u8g2_DrawStr
localTime
u8g2_font_inr21_mf
u8g2_font_5x7_tr
itoa
filt_data
u8g2_font_5x8_tr
u8g2_font_5x8_mf
u8g2_font_5x7_mf
u8g2_DrawBitmap
u8g2_DrawBox
u8g2_DrawHVLine
u8g2_DrawHLine
