ARM GAS  /var/folders/rk/zpr83dd14lx588t7kb0yv2b40000gn/T//cckyPisd.s 			page 1


   1              		.cpu cortex-m3
   2              		.eabi_attribute 20, 1
   3              		.eabi_attribute 21, 1
   4              		.eabi_attribute 23, 3
   5              		.eabi_attribute 24, 1
   6              		.eabi_attribute 25, 1
   7              		.eabi_attribute 26, 1
   8              		.eabi_attribute 30, 1
   9              		.eabi_attribute 34, 1
  10              		.eabi_attribute 18, 4
  11              		.file	"info_screen.c"
  12              		.text
  13              	.Ltext0:
  14              		.cfi_sections	.debug_frame
  15              		.section	.text.Info_Screen_Init,"ax",%progbits
  16              		.align	1
  17              		.global	Info_Screen_Init
  18              		.syntax unified
  19              		.thumb
  20              		.thumb_func
  21              		.fpu softvfp
  23              	Info_Screen_Init:
  24              	.LFB66:
  25              		.file 1 "Src/info_screen.c"
   1:Src/info_screen.c **** #include "info_screen.h"
   2:Src/info_screen.c **** #include "u8g2.h"
   3:Src/info_screen.c **** #include "user_bitmap.h"
   4:Src/info_screen.c **** #include "sm5852.h"
   5:Src/info_screen.c **** #include "system.h"
   6:Src/info_screen.c **** 
   7:Src/info_screen.c **** INFO_SCREEN_STR Info_Scr;
   8:Src/info_screen.c **** 
   9:Src/info_screen.c **** void Info_Screen_Init(void)
  10:Src/info_screen.c **** {   
  26              		.loc 1 10 0
  27              		.cfi_startproc
  28              		@ args = 0, pretend = 0, frame = 0
  29              		@ frame_needed = 0, uses_anonymous_args = 0
  30 0000 10B5     		push	{r4, lr}
  31              	.LCFI0:
  32              		.cfi_def_cfa_offset 8
  33              		.cfi_offset 4, -8
  34              		.cfi_offset 14, -4
  11:Src/info_screen.c ****     Info_Scr.dot = 0;
  35              		.loc 1 11 0
  36 0002 034C     		ldr	r4, .L3
  37 0004 0023     		movs	r3, #0
  38 0006 2370     		strb	r3, [r4]
  12:Src/info_screen.c ****     Info_Scr.tick = HAL_GetTick();
  39              		.loc 1 12 0
  40 0008 FFF7FEFF 		bl	HAL_GetTick
  41              	.LVL0:
  42 000c 6060     		str	r0, [r4, #4]
  13:Src/info_screen.c **** }
  43              		.loc 1 13 0
  44 000e 10BD     		pop	{r4, pc}
  45              	.L4:
ARM GAS  /var/folders/rk/zpr83dd14lx588t7kb0yv2b40000gn/T//cckyPisd.s 			page 2


  46              		.align	2
  47              	.L3:
  48 0010 00000000 		.word	Info_Scr
  49              		.cfi_endproc
  50              	.LFE66:
  52              		.section	.text.RTC_Time,"ax",%progbits
  53              		.align	1
  54              		.global	RTC_Time
  55              		.syntax unified
  56              		.thumb
  57              		.thumb_func
  58              		.fpu softvfp
  60              	RTC_Time:
  61              	.LFB67:
  14:Src/info_screen.c **** void RTC_Time(DATE_TIME now)
  15:Src/info_screen.c **** {   
  62              		.loc 1 15 0
  63              		.cfi_startproc
  64              		@ args = 0, pretend = 0, frame = 40
  65              		@ frame_needed = 0, uses_anonymous_args = 0
  66 0000 10B5     		push	{r4, lr}
  67              	.LCFI1:
  68              		.cfi_def_cfa_offset 8
  69              		.cfi_offset 4, -8
  70              		.cfi_offset 14, -4
  71 0002 8CB0     		sub	sp, sp, #48
  72              	.LCFI2:
  73              		.cfi_def_cfa_offset 56
  74 0004 02AB     		add	r3, sp, #8
  75 0006 83E80300 		stm	r3, {r0, r1}
  16:Src/info_screen.c ****     uint8_t buff[30];
  17:Src/info_screen.c ****     if(HAL_GetTick() - Info_Scr.tick > 300)
  76              		.loc 1 17 0
  77 000a FFF7FEFF 		bl	HAL_GetTick
  78              	.LVL1:
  79 000e 274B     		ldr	r3, .L12
  80 0010 5B68     		ldr	r3, [r3, #4]
  81 0012 C01A     		subs	r0, r0, r3
  82 0014 B0F5967F 		cmp	r0, #300
  83 0018 34D8     		bhi	.L10
  84              	.L6:
  18:Src/info_screen.c ****     {   
  19:Src/info_screen.c ****         Info_Scr.dot = !Info_Scr.dot;
  20:Src/info_screen.c ****         Info_Scr.tick = HAL_GetTick();
  21:Src/info_screen.c ****     }
  22:Src/info_screen.c ****     Info_Scr.dot?sprintf(buff, "%02d:%02d", now.hour, now.min):sprintf(buff, "%02d %02d", now.hour,
  85              		.loc 1 22 0
  86 001a 244B     		ldr	r3, .L12
  87 001c 1B78     		ldrb	r3, [r3]	@ zero_extendqisi2
  88 001e 002B     		cmp	r3, #0
  89 0020 3AD1     		bne	.L11
  90              		.loc 1 22 0 is_stmt 0 discriminator 2
  91 0022 9DF90E30 		ldrsb	r3, [sp, #14]
  92 0026 9DF90D20 		ldrsb	r2, [sp, #13]
  93 002a 2149     		ldr	r1, .L12+4
  94 002c 04A8     		add	r0, sp, #16
  95 002e FFF7FEFF 		bl	sprintf
ARM GAS  /var/folders/rk/zpr83dd14lx588t7kb0yv2b40000gn/T//cckyPisd.s 			page 3


  96              	.LVL2:
  97              	.L8:
  23:Src/info_screen.c ****     u8g2_SetFont(&u8g2, u8g2_font_10x20_t_cyrillic);
  98              		.loc 1 23 0 is_stmt 1
  99 0032 204C     		ldr	r4, .L12+8
 100 0034 2049     		ldr	r1, .L12+12
 101 0036 2046     		mov	r0, r4
 102 0038 FFF7FEFF 		bl	u8g2_SetFont
 103              	.LVL3:
  24:Src/info_screen.c ****     u8g2_DrawStr(&u8g2, 5, 16, buff);
 104              		.loc 1 24 0
 105 003c 04AB     		add	r3, sp, #16
 106 003e 1022     		movs	r2, #16
 107 0040 0521     		movs	r1, #5
 108 0042 2046     		mov	r0, r4
 109 0044 FFF7FEFF 		bl	u8g2_DrawStr
 110              	.LVL4:
  25:Src/info_screen.c ****     u8g2_DrawHVLine(&u8g2, 20, 22, 80, 22);
 111              		.loc 1 25 0
 112 0048 1622     		movs	r2, #22
 113 004a 0092     		str	r2, [sp]
 114 004c 5023     		movs	r3, #80
 115 004e 1421     		movs	r1, #20
 116 0050 2046     		mov	r0, r4
 117 0052 FFF7FEFF 		bl	u8g2_DrawHVLine
 118              	.LVL5:
  26:Src/info_screen.c ****     u8g2_SetFont(&u8g2, u8g2_font_5x7_tr);
 119              		.loc 1 26 0
 120 0056 1949     		ldr	r1, .L12+16
 121 0058 2046     		mov	r0, r4
 122 005a FFF7FEFF 		bl	u8g2_SetFont
 123              	.LVL6:
  27:Src/info_screen.c ****     sprintf(buff, "%02d/%02d/%04d", now.mday, now.month, now.year);
 124              		.loc 1 27 0
 125 005e 9DF90B20 		ldrsb	r2, [sp, #11]
 126 0062 9DF90A30 		ldrsb	r3, [sp, #10]
 127 0066 BDF90810 		ldrsh	r1, [sp, #8]
 128 006a 0091     		str	r1, [sp]
 129 006c 1449     		ldr	r1, .L12+20
 130 006e 04A8     		add	r0, sp, #16
 131 0070 FFF7FEFF 		bl	sprintf
 132              	.LVL7:
  28:Src/info_screen.c ****     u8g2_DrawStr(&u8g2, 78, 12, buff);
 133              		.loc 1 28 0
 134 0074 04AB     		add	r3, sp, #16
 135 0076 0C22     		movs	r2, #12
 136 0078 4E21     		movs	r1, #78
 137 007a 2046     		mov	r0, r4
 138 007c FFF7FEFF 		bl	u8g2_DrawStr
 139              	.LVL8:
  29:Src/info_screen.c **** }
 140              		.loc 1 29 0
 141 0080 0CB0     		add	sp, sp, #48
 142              	.LCFI3:
 143              		.cfi_remember_state
 144              		.cfi_def_cfa_offset 8
 145              		@ sp needed
ARM GAS  /var/folders/rk/zpr83dd14lx588t7kb0yv2b40000gn/T//cckyPisd.s 			page 4


 146 0082 10BD     		pop	{r4, pc}
 147              	.L10:
 148              	.LCFI4:
 149              		.cfi_restore_state
  19:Src/info_screen.c ****         Info_Scr.tick = HAL_GetTick();
 150              		.loc 1 19 0
 151 0084 094C     		ldr	r4, .L12
 152 0086 2378     		ldrb	r3, [r4]	@ zero_extendqisi2
 153 0088 B3FA83F3 		clz	r3, r3
 154 008c 5B09     		lsrs	r3, r3, #5
 155 008e 2370     		strb	r3, [r4]
  20:Src/info_screen.c ****     }
 156              		.loc 1 20 0
 157 0090 FFF7FEFF 		bl	HAL_GetTick
 158              	.LVL9:
 159 0094 6060     		str	r0, [r4, #4]
 160 0096 C0E7     		b	.L6
 161              	.L11:
  22:Src/info_screen.c ****     u8g2_SetFont(&u8g2, u8g2_font_10x20_t_cyrillic);
 162              		.loc 1 22 0 discriminator 1
 163 0098 9DF90E30 		ldrsb	r3, [sp, #14]
 164 009c 9DF90D20 		ldrsb	r2, [sp, #13]
 165 00a0 0849     		ldr	r1, .L12+24
 166 00a2 04A8     		add	r0, sp, #16
 167 00a4 FFF7FEFF 		bl	sprintf
 168              	.LVL10:
 169 00a8 C3E7     		b	.L8
 170              	.L13:
 171 00aa 00BF     		.align	2
 172              	.L12:
 173 00ac 00000000 		.word	Info_Scr
 174 00b0 0C000000 		.word	.LC1
 175 00b4 00000000 		.word	u8g2
 176 00b8 00000000 		.word	u8g2_font_10x20_t_cyrillic
 177 00bc 00000000 		.word	u8g2_font_5x7_tr
 178 00c0 18000000 		.word	.LC2
 179 00c4 00000000 		.word	.LC0
 180              		.cfi_endproc
 181              	.LFE67:
 183              		.global	__aeabi_fcmpgt
 184              		.global	__aeabi_f2d
 185              		.section	.text.ExhaustFilter,"ax",%progbits
 186              		.align	1
 187              		.global	ExhaustFilter
 188              		.syntax unified
 189              		.thumb
 190              		.thumb_func
 191              		.fpu softvfp
 193              	ExhaustFilter:
 194              	.LFB68:
  30:Src/info_screen.c **** 
  31:Src/info_screen.c **** void ExhaustFilter(float value)
  32:Src/info_screen.c **** {
 195              		.loc 1 32 0
 196              		.cfi_startproc
 197              		@ args = 0, pretend = 0, frame = 16
 198              		@ frame_needed = 0, uses_anonymous_args = 0
ARM GAS  /var/folders/rk/zpr83dd14lx588t7kb0yv2b40000gn/T//cckyPisd.s 			page 5


 199              	.LVL11:
 200 0000 30B5     		push	{r4, r5, lr}
 201              	.LCFI5:
 202              		.cfi_def_cfa_offset 12
 203              		.cfi_offset 4, -12
 204              		.cfi_offset 5, -8
 205              		.cfi_offset 14, -4
 206 0002 85B0     		sub	sp, sp, #20
 207              	.LCFI6:
 208              		.cfi_def_cfa_offset 32
 209 0004 0446     		mov	r4, r0
  33:Src/info_screen.c ****     uint8_t buff[10];
  34:Src/info_screen.c ****     u8g2_SetFont(&u8g2, u8g2_font_5x7_tr);
 210              		.loc 1 34 0
 211 0006 144D     		ldr	r5, .L18
 212 0008 1449     		ldr	r1, .L18+4
 213 000a 2846     		mov	r0, r5
 214              	.LVL12:
 215 000c FFF7FEFF 		bl	u8g2_SetFont
 216              	.LVL13:
  35:Src/info_screen.c ****     u8g2_DrawStr(&u8g2, 3, 34, "E.Filter:");
 217              		.loc 1 35 0
 218 0010 134B     		ldr	r3, .L18+8
 219 0012 2222     		movs	r2, #34
 220 0014 0321     		movs	r1, #3
 221 0016 2846     		mov	r0, r5
 222 0018 FFF7FEFF 		bl	u8g2_DrawStr
 223              	.LVL14:
  36:Src/info_screen.c ****     if(value > 999)
 224              		.loc 1 36 0
 225 001c 1149     		ldr	r1, .L18+12
 226 001e 2046     		mov	r0, r4
 227 0020 FFF7FEFF 		bl	__aeabi_fcmpgt
 228              	.LVL15:
 229 0024 00B1     		cbz	r0, .L15
  37:Src/info_screen.c ****         value = 999;
 230              		.loc 1 37 0
 231 0026 0F4C     		ldr	r4, .L18+12
 232              	.LVL16:
 233              	.L15:
  38:Src/info_screen.c ****     sprintf(buff, "%03.0f", value);
 234              		.loc 1 38 0
 235 0028 2046     		mov	r0, r4
 236 002a FFF7FEFF 		bl	__aeabi_f2d
 237              	.LVL17:
 238 002e 0246     		mov	r2, r0
 239 0030 0B46     		mov	r3, r1
 240 0032 0D49     		ldr	r1, .L18+16
 241 0034 01A8     		add	r0, sp, #4
 242 0036 FFF7FEFF 		bl	sprintf
 243              	.LVL18:
  39:Src/info_screen.c ****     u8g2_DrawStr(&u8g2, 53, 34, buff);
 244              		.loc 1 39 0
 245 003a 074C     		ldr	r4, .L18
 246              	.LVL19:
 247 003c 01AB     		add	r3, sp, #4
 248 003e 2222     		movs	r2, #34
ARM GAS  /var/folders/rk/zpr83dd14lx588t7kb0yv2b40000gn/T//cckyPisd.s 			page 6


 249 0040 3521     		movs	r1, #53
 250 0042 2046     		mov	r0, r4
 251 0044 FFF7FEFF 		bl	u8g2_DrawStr
 252              	.LVL20:
  40:Src/info_screen.c ****     u8g2_DrawStr(&u8g2, 77, 34, "Pa");
 253              		.loc 1 40 0
 254 0048 084B     		ldr	r3, .L18+20
 255 004a 2222     		movs	r2, #34
 256 004c 4D21     		movs	r1, #77
 257 004e 2046     		mov	r0, r4
 258 0050 FFF7FEFF 		bl	u8g2_DrawStr
 259              	.LVL21:
  41:Src/info_screen.c **** }
 260              		.loc 1 41 0
 261 0054 05B0     		add	sp, sp, #20
 262              	.LCFI7:
 263              		.cfi_def_cfa_offset 12
 264              		@ sp needed
 265 0056 30BD     		pop	{r4, r5, pc}
 266              	.L19:
 267              		.align	2
 268              	.L18:
 269 0058 00000000 		.word	u8g2
 270 005c 00000000 		.word	u8g2_font_5x7_tr
 271 0060 00000000 		.word	.LC3
 272 0064 00C07944 		.word	1148829696
 273 0068 0C000000 		.word	.LC4
 274 006c 14000000 		.word	.LC5
 275              		.cfi_endproc
 276              	.LFE68:
 278              		.section	.text.DownflowFilter,"ax",%progbits
 279              		.align	1
 280              		.global	DownflowFilter
 281              		.syntax unified
 282              		.thumb
 283              		.thumb_func
 284              		.fpu softvfp
 286              	DownflowFilter:
 287              	.LFB69:
  42:Src/info_screen.c **** 
  43:Src/info_screen.c **** void DownflowFilter(float value)
  44:Src/info_screen.c **** {
 288              		.loc 1 44 0
 289              		.cfi_startproc
 290              		@ args = 0, pretend = 0, frame = 16
 291              		@ frame_needed = 0, uses_anonymous_args = 0
 292              	.LVL22:
 293 0000 30B5     		push	{r4, r5, lr}
 294              	.LCFI8:
 295              		.cfi_def_cfa_offset 12
 296              		.cfi_offset 4, -12
 297              		.cfi_offset 5, -8
 298              		.cfi_offset 14, -4
 299 0002 85B0     		sub	sp, sp, #20
 300              	.LCFI9:
 301              		.cfi_def_cfa_offset 32
 302 0004 0446     		mov	r4, r0
ARM GAS  /var/folders/rk/zpr83dd14lx588t7kb0yv2b40000gn/T//cckyPisd.s 			page 7


  45:Src/info_screen.c ****     uint8_t buff[10];
  46:Src/info_screen.c ****     u8g2_SetFont(&u8g2, u8g2_font_5x7_tr);
 303              		.loc 1 46 0
 304 0006 144D     		ldr	r5, .L24
 305 0008 1449     		ldr	r1, .L24+4
 306 000a 2846     		mov	r0, r5
 307              	.LVL23:
 308 000c FFF7FEFF 		bl	u8g2_SetFont
 309              	.LVL24:
  47:Src/info_screen.c ****     u8g2_DrawStr(&u8g2, 3, 43, "D.Filter:");
 310              		.loc 1 47 0
 311 0010 134B     		ldr	r3, .L24+8
 312 0012 2B22     		movs	r2, #43
 313 0014 0321     		movs	r1, #3
 314 0016 2846     		mov	r0, r5
 315 0018 FFF7FEFF 		bl	u8g2_DrawStr
 316              	.LVL25:
  48:Src/info_screen.c ****     if(value > 999)
 317              		.loc 1 48 0
 318 001c 1149     		ldr	r1, .L24+12
 319 001e 2046     		mov	r0, r4
 320 0020 FFF7FEFF 		bl	__aeabi_fcmpgt
 321              	.LVL26:
 322 0024 00B1     		cbz	r0, .L21
  49:Src/info_screen.c ****         value = 999;
 323              		.loc 1 49 0
 324 0026 0F4C     		ldr	r4, .L24+12
 325              	.LVL27:
 326              	.L21:
  50:Src/info_screen.c ****     sprintf(buff, "%03.0f", value);
 327              		.loc 1 50 0
 328 0028 2046     		mov	r0, r4
 329 002a FFF7FEFF 		bl	__aeabi_f2d
 330              	.LVL28:
 331 002e 0246     		mov	r2, r0
 332 0030 0B46     		mov	r3, r1
 333 0032 0D49     		ldr	r1, .L24+16
 334 0034 01A8     		add	r0, sp, #4
 335 0036 FFF7FEFF 		bl	sprintf
 336              	.LVL29:
  51:Src/info_screen.c ****     u8g2_DrawStr(&u8g2, 53, 43, buff);
 337              		.loc 1 51 0
 338 003a 074C     		ldr	r4, .L24
 339              	.LVL30:
 340 003c 01AB     		add	r3, sp, #4
 341 003e 2B22     		movs	r2, #43
 342 0040 3521     		movs	r1, #53
 343 0042 2046     		mov	r0, r4
 344 0044 FFF7FEFF 		bl	u8g2_DrawStr
 345              	.LVL31:
  52:Src/info_screen.c ****     u8g2_DrawStr(&u8g2, 77, 43, "Pa");
 346              		.loc 1 52 0
 347 0048 084B     		ldr	r3, .L24+20
 348 004a 2B22     		movs	r2, #43
 349 004c 4D21     		movs	r1, #77
 350 004e 2046     		mov	r0, r4
 351 0050 FFF7FEFF 		bl	u8g2_DrawStr
ARM GAS  /var/folders/rk/zpr83dd14lx588t7kb0yv2b40000gn/T//cckyPisd.s 			page 8


 352              	.LVL32:
  53:Src/info_screen.c **** }
 353              		.loc 1 53 0
 354 0054 05B0     		add	sp, sp, #20
 355              	.LCFI10:
 356              		.cfi_def_cfa_offset 12
 357              		@ sp needed
 358 0056 30BD     		pop	{r4, r5, pc}
 359              	.L25:
 360              		.align	2
 361              	.L24:
 362 0058 00000000 		.word	u8g2
 363 005c 00000000 		.word	u8g2_font_5x7_tr
 364 0060 00000000 		.word	.LC6
 365 0064 00C07944 		.word	1148829696
 366 0068 0C000000 		.word	.LC4
 367 006c 14000000 		.word	.LC5
 368              		.cfi_endproc
 369              	.LFE69:
 371              		.global	__aeabi_dmul
 372              		.global	__aeabi_ddiv
 373              		.section	.text.InFlow,"ax",%progbits
 374              		.align	1
 375              		.global	InFlow
 376              		.syntax unified
 377              		.thumb
 378              		.thumb_func
 379              		.fpu softvfp
 381              	InFlow:
 382              	.LFB70:
  54:Src/info_screen.c **** 
  55:Src/info_screen.c **** void InFlow(float value)
  56:Src/info_screen.c **** {
 383              		.loc 1 56 0
 384              		.cfi_startproc
 385              		@ args = 0, pretend = 0, frame = 16
 386              		@ frame_needed = 0, uses_anonymous_args = 0
 387              	.LVL33:
 388 0000 30B5     		push	{r4, r5, lr}
 389              	.LCFI11:
 390              		.cfi_def_cfa_offset 12
 391              		.cfi_offset 4, -12
 392              		.cfi_offset 5, -8
 393              		.cfi_offset 14, -4
 394 0002 85B0     		sub	sp, sp, #20
 395              	.LCFI12:
 396              		.cfi_def_cfa_offset 32
 397 0004 0446     		mov	r4, r0
  57:Src/info_screen.c ****     uint8_t buff[10];
  58:Src/info_screen.c ****     u8g2_SetFont(&u8g2, u8g2_font_5x7_tr);
 398              		.loc 1 58 0
 399 0006 1C4D     		ldr	r5, .L30+8
 400 0008 1C49     		ldr	r1, .L30+12
 401 000a 2846     		mov	r0, r5
 402              	.LVL34:
 403 000c FFF7FEFF 		bl	u8g2_SetFont
 404              	.LVL35:
ARM GAS  /var/folders/rk/zpr83dd14lx588t7kb0yv2b40000gn/T//cckyPisd.s 			page 9


  59:Src/info_screen.c ****     u8g2_DrawStr(&u8g2, 2, 52, "InFlow:");
 405              		.loc 1 59 0
 406 0010 1B4B     		ldr	r3, .L30+16
 407 0012 3422     		movs	r2, #52
 408 0014 0221     		movs	r1, #2
 409 0016 2846     		mov	r0, r5
 410 0018 FFF7FEFF 		bl	u8g2_DrawStr
 411              	.LVL36:
  60:Src/info_screen.c ****     if(value > 999)
 412              		.loc 1 60 0
 413 001c 1949     		ldr	r1, .L30+20
 414 001e 2046     		mov	r0, r4
 415 0020 FFF7FEFF 		bl	__aeabi_fcmpgt
 416              	.LVL37:
 417 0024 00B1     		cbz	r0, .L27
  61:Src/info_screen.c ****         value = 999;
 418              		.loc 1 61 0
 419 0026 174C     		ldr	r4, .L30+20
 420              	.LVL38:
 421              	.L27:
  62:Src/info_screen.c ****     sprintf(buff, "%02.1f", (value*0.8/480));
 422              		.loc 1 62 0
 423 0028 2046     		mov	r0, r4
 424 002a FFF7FEFF 		bl	__aeabi_f2d
 425              	.LVL39:
 426 002e 10A3     		adr	r3, .L30
 427 0030 D3E90023 		ldrd	r2, [r3]
 428 0034 FFF7FEFF 		bl	__aeabi_dmul
 429              	.LVL40:
 430 0038 0022     		movs	r2, #0
 431 003a 134B     		ldr	r3, .L30+24
 432 003c FFF7FEFF 		bl	__aeabi_ddiv
 433              	.LVL41:
 434 0040 0246     		mov	r2, r0
 435 0042 0B46     		mov	r3, r1
 436 0044 1149     		ldr	r1, .L30+28
 437 0046 01A8     		add	r0, sp, #4
 438 0048 FFF7FEFF 		bl	sprintf
 439              	.LVL42:
  63:Src/info_screen.c ****     u8g2_DrawStr(&u8g2, 53, 52, buff);
 440              		.loc 1 63 0
 441 004c 0A4C     		ldr	r4, .L30+8
 442              	.LVL43:
 443 004e 01AB     		add	r3, sp, #4
 444 0050 3422     		movs	r2, #52
 445 0052 3521     		movs	r1, #53
 446 0054 2046     		mov	r0, r4
 447 0056 FFF7FEFF 		bl	u8g2_DrawStr
 448              	.LVL44:
  64:Src/info_screen.c ****     u8g2_DrawStr(&u8g2, 77, 52, "m/s");
 449              		.loc 1 64 0
 450 005a 0D4B     		ldr	r3, .L30+32
 451 005c 3422     		movs	r2, #52
 452 005e 4D21     		movs	r1, #77
 453 0060 2046     		mov	r0, r4
 454 0062 FFF7FEFF 		bl	u8g2_DrawStr
 455              	.LVL45:
ARM GAS  /var/folders/rk/zpr83dd14lx588t7kb0yv2b40000gn/T//cckyPisd.s 			page 10


  65:Src/info_screen.c **** }
 456              		.loc 1 65 0
 457 0066 05B0     		add	sp, sp, #20
 458              	.LCFI13:
 459              		.cfi_def_cfa_offset 12
 460              		@ sp needed
 461 0068 30BD     		pop	{r4, r5, pc}
 462              	.L31:
 463 006a 00BFAFF3 		.align	3
 463      0080
 464              	.L30:
 465 0070 9A999999 		.word	2576980378
 466 0074 9999E93F 		.word	1072273817
 467 0078 00000000 		.word	u8g2
 468 007c 00000000 		.word	u8g2_font_5x7_tr
 469 0080 00000000 		.word	.LC7
 470 0084 00C07944 		.word	1148829696
 471 0088 00007E40 		.word	1081999360
 472 008c 08000000 		.word	.LC8
 473 0090 10000000 		.word	.LC9
 474              		.cfi_endproc
 475              	.LFE70:
 477              		.section	.text.DownFlow,"ax",%progbits
 478              		.align	1
 479              		.global	DownFlow
 480              		.syntax unified
 481              		.thumb
 482              		.thumb_func
 483              		.fpu softvfp
 485              	DownFlow:
 486              	.LFB71:
  66:Src/info_screen.c **** 
  67:Src/info_screen.c **** void DownFlow(float value)
  68:Src/info_screen.c **** {
 487              		.loc 1 68 0
 488              		.cfi_startproc
 489              		@ args = 0, pretend = 0, frame = 16
 490              		@ frame_needed = 0, uses_anonymous_args = 0
 491              	.LVL46:
 492 0000 30B5     		push	{r4, r5, lr}
 493              	.LCFI14:
 494              		.cfi_def_cfa_offset 12
 495              		.cfi_offset 4, -12
 496              		.cfi_offset 5, -8
 497              		.cfi_offset 14, -4
 498 0002 85B0     		sub	sp, sp, #20
 499              	.LCFI15:
 500              		.cfi_def_cfa_offset 32
 501 0004 0446     		mov	r4, r0
  69:Src/info_screen.c ****     uint8_t buff[10];
  70:Src/info_screen.c ****     u8g2_SetFont(&u8g2, u8g2_font_5x7_tr);
 502              		.loc 1 70 0
 503 0006 1C4D     		ldr	r5, .L36+8
 504 0008 1C49     		ldr	r1, .L36+12
 505 000a 2846     		mov	r0, r5
 506              	.LVL47:
 507 000c FFF7FEFF 		bl	u8g2_SetFont
ARM GAS  /var/folders/rk/zpr83dd14lx588t7kb0yv2b40000gn/T//cckyPisd.s 			page 11


 508              	.LVL48:
  71:Src/info_screen.c ****     u8g2_DrawStr(&u8g2, 2, 61, "D.Flow:");
 509              		.loc 1 71 0
 510 0010 1B4B     		ldr	r3, .L36+16
 511 0012 3D22     		movs	r2, #61
 512 0014 0221     		movs	r1, #2
 513 0016 2846     		mov	r0, r5
 514 0018 FFF7FEFF 		bl	u8g2_DrawStr
 515              	.LVL49:
  72:Src/info_screen.c ****     if(value > 999)
 516              		.loc 1 72 0
 517 001c 1949     		ldr	r1, .L36+20
 518 001e 2046     		mov	r0, r4
 519 0020 FFF7FEFF 		bl	__aeabi_fcmpgt
 520              	.LVL50:
 521 0024 00B1     		cbz	r0, .L33
  73:Src/info_screen.c ****         value = 999;
 522              		.loc 1 73 0
 523 0026 174C     		ldr	r4, .L36+20
 524              	.LVL51:
 525              	.L33:
  74:Src/info_screen.c ****     sprintf(buff, "%02.1f", (value*0.8/480));
 526              		.loc 1 74 0
 527 0028 2046     		mov	r0, r4
 528 002a FFF7FEFF 		bl	__aeabi_f2d
 529              	.LVL52:
 530 002e 10A3     		adr	r3, .L36
 531 0030 D3E90023 		ldrd	r2, [r3]
 532 0034 FFF7FEFF 		bl	__aeabi_dmul
 533              	.LVL53:
 534 0038 0022     		movs	r2, #0
 535 003a 134B     		ldr	r3, .L36+24
 536 003c FFF7FEFF 		bl	__aeabi_ddiv
 537              	.LVL54:
 538 0040 0246     		mov	r2, r0
 539 0042 0B46     		mov	r3, r1
 540 0044 1149     		ldr	r1, .L36+28
 541 0046 01A8     		add	r0, sp, #4
 542 0048 FFF7FEFF 		bl	sprintf
 543              	.LVL55:
  75:Src/info_screen.c ****     u8g2_DrawStr(&u8g2, 53, 61, buff);
 544              		.loc 1 75 0
 545 004c 0A4C     		ldr	r4, .L36+8
 546              	.LVL56:
 547 004e 01AB     		add	r3, sp, #4
 548 0050 3D22     		movs	r2, #61
 549 0052 3521     		movs	r1, #53
 550 0054 2046     		mov	r0, r4
 551 0056 FFF7FEFF 		bl	u8g2_DrawStr
 552              	.LVL57:
  76:Src/info_screen.c ****     u8g2_DrawStr(&u8g2, 77, 61, "m/s");
 553              		.loc 1 76 0
 554 005a 0D4B     		ldr	r3, .L36+32
 555 005c 3D22     		movs	r2, #61
 556 005e 4D21     		movs	r1, #77
 557 0060 2046     		mov	r0, r4
 558 0062 FFF7FEFF 		bl	u8g2_DrawStr
ARM GAS  /var/folders/rk/zpr83dd14lx588t7kb0yv2b40000gn/T//cckyPisd.s 			page 12


 559              	.LVL58:
  77:Src/info_screen.c **** }
 560              		.loc 1 77 0
 561 0066 05B0     		add	sp, sp, #20
 562              	.LCFI16:
 563              		.cfi_def_cfa_offset 12
 564              		@ sp needed
 565 0068 30BD     		pop	{r4, r5, pc}
 566              	.L37:
 567 006a 00BFAFF3 		.align	3
 567      0080
 568              	.L36:
 569 0070 9A999999 		.word	2576980378
 570 0074 9999E93F 		.word	1072273817
 571 0078 00000000 		.word	u8g2
 572 007c 00000000 		.word	u8g2_font_5x7_tr
 573 0080 00000000 		.word	.LC10
 574 0084 00C07944 		.word	1148829696
 575 0088 00007E40 		.word	1081999360
 576 008c 08000000 		.word	.LC8
 577 0090 10000000 		.word	.LC9
 578              		.cfi_endproc
 579              	.LFE71:
 581              		.section	.text.Door,"ax",%progbits
 582              		.align	1
 583              		.global	Door
 584              		.syntax unified
 585              		.thumb
 586              		.thumb_func
 587              		.fpu softvfp
 589              	Door:
 590              	.LFB72:
  78:Src/info_screen.c **** 
  79:Src/info_screen.c **** void Door(uint8_t DStatus)
  80:Src/info_screen.c **** {
 591              		.loc 1 80 0
 592              		.cfi_startproc
 593              		@ args = 0, pretend = 0, frame = 0
 594              		@ frame_needed = 0, uses_anonymous_args = 0
 595              	.LVL59:
 596 0000 70B5     		push	{r4, r5, r6, lr}
 597              	.LCFI17:
 598              		.cfi_def_cfa_offset 16
 599              		.cfi_offset 4, -16
 600              		.cfi_offset 5, -12
 601              		.cfi_offset 6, -8
 602              		.cfi_offset 14, -4
 603 0002 82B0     		sub	sp, sp, #8
 604              	.LCFI18:
 605              		.cfi_def_cfa_offset 24
 606 0004 0646     		mov	r6, r0
  81:Src/info_screen.c ****     u8g2_SetFont(&u8g2, u8g2_font_5x8_mf);
 607              		.loc 1 81 0
 608 0006 3B4D     		ldr	r5, .L46
 609 0008 3B4C     		ldr	r4, .L46+4
 610 000a 2946     		mov	r1, r5
 611 000c 2046     		mov	r0, r4
ARM GAS  /var/folders/rk/zpr83dd14lx588t7kb0yv2b40000gn/T//cckyPisd.s 			page 13


 612              	.LVL60:
 613 000e FFF7FEFF 		bl	u8g2_SetFont
 614              	.LVL61:
  82:Src/info_screen.c ****     u8g2_SetFont(&u8g2, u8g2_font_5x8_mf);
 615              		.loc 1 82 0
 616 0012 2946     		mov	r1, r5
 617 0014 2046     		mov	r0, r4
 618 0016 FFF7FEFF 		bl	u8g2_SetFont
 619              	.LVL62:
  83:Src/info_screen.c ****     u8g2_DrawStr(&u8g2, 108, 61, "Door");
 620              		.loc 1 83 0
 621 001a 384B     		ldr	r3, .L46+8
 622 001c 3D22     		movs	r2, #61
 623 001e 6C21     		movs	r1, #108
 624 0020 2046     		mov	r0, r4
 625 0022 FFF7FEFF 		bl	u8g2_DrawStr
 626              	.LVL63:
  84:Src/info_screen.c ****     u8g2_DrawHVLine(&u8g2, 109, 40, 13, 1);
 627              		.loc 1 84 0
 628 0026 0125     		movs	r5, #1
 629 0028 0095     		str	r5, [sp]
 630 002a 0D23     		movs	r3, #13
 631 002c 2822     		movs	r2, #40
 632 002e 6D21     		movs	r1, #109
 633 0030 2046     		mov	r0, r4
 634 0032 FFF7FEFF 		bl	u8g2_DrawHVLine
 635              	.LVL64:
  85:Src/info_screen.c ****     u8g2_DrawHVLine(&u8g2, 125, 40, 13, 1);
 636              		.loc 1 85 0
 637 0036 0095     		str	r5, [sp]
 638 0038 0D23     		movs	r3, #13
 639 003a 2822     		movs	r2, #40
 640 003c 7D21     		movs	r1, #125
 641 003e 2046     		mov	r0, r4
 642 0040 FFF7FEFF 		bl	u8g2_DrawHVLine
 643              	.LVL65:
  86:Src/info_screen.c ****     u8g2_DrawHLine(&u8g2, 110, 40, 16);
 644              		.loc 1 86 0
 645 0044 1023     		movs	r3, #16
 646 0046 2822     		movs	r2, #40
 647 0048 6E21     		movs	r1, #110
 648 004a 2046     		mov	r0, r4
 649 004c FFF7FEFF 		bl	u8g2_DrawHLine
 650              	.LVL66:
  87:Src/info_screen.c ****     u8g2_DrawBox(&u8g2, 113, 50, 9, 3); //Close the door at level 1
 651              		.loc 1 87 0
 652 0050 0325     		movs	r5, #3
 653 0052 0095     		str	r5, [sp]
 654 0054 0923     		movs	r3, #9
 655 0056 3222     		movs	r2, #50
 656 0058 7121     		movs	r1, #113
 657 005a 2046     		mov	r0, r4
 658 005c FFF7FEFF 		bl	u8g2_DrawBox
 659              	.LVL67:
  88:Src/info_screen.c ****     u8g2_DrawBox(&u8g2, 113, 46, 9, 3); //Close the door at level 2
 660              		.loc 1 88 0
 661 0060 0095     		str	r5, [sp]
ARM GAS  /var/folders/rk/zpr83dd14lx588t7kb0yv2b40000gn/T//cckyPisd.s 			page 14


 662 0062 0923     		movs	r3, #9
 663 0064 2E22     		movs	r2, #46
 664 0066 7121     		movs	r1, #113
 665 0068 2046     		mov	r0, r4
 666 006a FFF7FEFF 		bl	u8g2_DrawBox
 667              	.LVL68:
  89:Src/info_screen.c ****     u8g2_DrawBox(&u8g2, 113, 42, 9, 3); //Close the door at level 3
 668              		.loc 1 89 0
 669 006e 0095     		str	r5, [sp]
 670 0070 0923     		movs	r3, #9
 671 0072 2A22     		movs	r2, #42
 672 0074 7121     		movs	r1, #113
 673 0076 2046     		mov	r0, r4
 674 0078 FFF7FEFF 		bl	u8g2_DrawBox
 675              	.LVL69:
  90:Src/info_screen.c ****     switch (DStatus)
 676              		.loc 1 90 0
 677 007c AE42     		cmp	r6, r5
 678 007e 1AD8     		bhi	.L38
 679 0080 DFE806F0 		tbb	[pc, r6]
 680              	.L41:
 681 0084 02       		.byte	(.L40-.L41)/2
 682 0085 1B       		.byte	(.L42-.L41)/2
 683 0086 22       		.byte	(.L43-.L41)/2
 684 0087 29       		.byte	(.L44-.L41)/2
 685              		.p2align 1
 686              	.L40:
  91:Src/info_screen.c ****     {
  92:Src/info_screen.c ****         case 0:
  93:Src/info_screen.c ****             u8g2_DrawBox(&u8g2, 113, 50, 9, 3); //Close the door at level 1
 687              		.loc 1 93 0
 688 0088 1B4C     		ldr	r4, .L46+4
 689 008a 0325     		movs	r5, #3
 690 008c 0095     		str	r5, [sp]
 691 008e 0923     		movs	r3, #9
 692 0090 3222     		movs	r2, #50
 693 0092 7121     		movs	r1, #113
 694 0094 2046     		mov	r0, r4
 695 0096 FFF7FEFF 		bl	u8g2_DrawBox
 696              	.LVL70:
  94:Src/info_screen.c ****             u8g2_DrawBox(&u8g2, 113, 46, 9, 3); //Close the door at level 2
 697              		.loc 1 94 0
 698 009a 0095     		str	r5, [sp]
 699 009c 0923     		movs	r3, #9
 700 009e 2E22     		movs	r2, #46
 701 00a0 7121     		movs	r1, #113
 702 00a2 2046     		mov	r0, r4
 703 00a4 FFF7FEFF 		bl	u8g2_DrawBox
 704              	.LVL71:
  95:Src/info_screen.c ****             u8g2_DrawBox(&u8g2, 113, 42, 9, 3); //Close the door at level 3
 705              		.loc 1 95 0
 706 00a8 0095     		str	r5, [sp]
 707 00aa 0923     		movs	r3, #9
 708 00ac 2A22     		movs	r2, #42
 709 00ae 7121     		movs	r1, #113
 710 00b0 2046     		mov	r0, r4
 711 00b2 FFF7FEFF 		bl	u8g2_DrawBox
ARM GAS  /var/folders/rk/zpr83dd14lx588t7kb0yv2b40000gn/T//cckyPisd.s 			page 15


 712              	.LVL72:
 713              	.L38:
  96:Src/info_screen.c ****             break;
  97:Src/info_screen.c ****         case 1:
  98:Src/info_screen.c ****             u8g2_DrawStr(&u8g2, 113, 56, "   "); //Open the door at level 1
  99:Src/info_screen.c ****             break;
 100:Src/info_screen.c ****         case 2:
 101:Src/info_screen.c ****             u8g2_DrawStr(&u8g2, 113, 52, "   "); //Open the door at level 2
 102:Src/info_screen.c ****             break;
 103:Src/info_screen.c ****         case 3:
 104:Src/info_screen.c ****             u8g2_DrawStr(&u8g2, 113, 48, "   "); //Open the door at level 3
 105:Src/info_screen.c ****             u8g2_DrawStr(&u8g2, 113, 56, "   ");
 106:Src/info_screen.c ****             break;
 107:Src/info_screen.c ****         default:
 108:Src/info_screen.c ****             break;
 109:Src/info_screen.c ****     }
 110:Src/info_screen.c **** }
 714              		.loc 1 110 0
 715 00b6 02B0     		add	sp, sp, #8
 716              	.LCFI19:
 717              		.cfi_remember_state
 718              		.cfi_def_cfa_offset 16
 719              		@ sp needed
 720 00b8 70BD     		pop	{r4, r5, r6, pc}
 721              	.L42:
 722              	.LCFI20:
 723              		.cfi_restore_state
  98:Src/info_screen.c ****             break;
 724              		.loc 1 98 0
 725 00ba 114B     		ldr	r3, .L46+12
 726 00bc 3822     		movs	r2, #56
 727 00be 7121     		movs	r1, #113
 728 00c0 0D48     		ldr	r0, .L46+4
 729 00c2 FFF7FEFF 		bl	u8g2_DrawStr
 730              	.LVL73:
  99:Src/info_screen.c ****         case 2:
 731              		.loc 1 99 0
 732 00c6 F6E7     		b	.L38
 733              	.L43:
 101:Src/info_screen.c ****             break;
 734              		.loc 1 101 0
 735 00c8 0D4B     		ldr	r3, .L46+12
 736 00ca 3422     		movs	r2, #52
 737 00cc 7121     		movs	r1, #113
 738 00ce 0A48     		ldr	r0, .L46+4
 739 00d0 FFF7FEFF 		bl	u8g2_DrawStr
 740              	.LVL74:
 102:Src/info_screen.c ****         case 3:
 741              		.loc 1 102 0
 742 00d4 EFE7     		b	.L38
 743              	.L44:
 104:Src/info_screen.c ****             u8g2_DrawStr(&u8g2, 113, 56, "   ");
 744              		.loc 1 104 0
 745 00d6 0A4D     		ldr	r5, .L46+12
 746 00d8 074C     		ldr	r4, .L46+4
 747 00da 2B46     		mov	r3, r5
 748 00dc 3022     		movs	r2, #48
ARM GAS  /var/folders/rk/zpr83dd14lx588t7kb0yv2b40000gn/T//cckyPisd.s 			page 16


 749 00de 7121     		movs	r1, #113
 750 00e0 2046     		mov	r0, r4
 751 00e2 FFF7FEFF 		bl	u8g2_DrawStr
 752              	.LVL75:
 105:Src/info_screen.c ****             break;
 753              		.loc 1 105 0
 754 00e6 2B46     		mov	r3, r5
 755 00e8 3822     		movs	r2, #56
 756 00ea 7121     		movs	r1, #113
 757 00ec 2046     		mov	r0, r4
 758 00ee FFF7FEFF 		bl	u8g2_DrawStr
 759              	.LVL76:
 760              		.loc 1 110 0
 761 00f2 E0E7     		b	.L38
 762              	.L47:
 763              		.align	2
 764              	.L46:
 765 00f4 00000000 		.word	u8g2_font_5x8_mf
 766 00f8 00000000 		.word	u8g2
 767 00fc 00000000 		.word	.LC11
 768 0100 08000000 		.word	.LC12
 769              		.cfi_endproc
 770              	.LFE72:
 772              		.section	.text.Temperature,"ax",%progbits
 773              		.align	1
 774              		.global	Temperature
 775              		.syntax unified
 776              		.thumb
 777              		.thumb_func
 778              		.fpu softvfp
 780              	Temperature:
 781              	.LFB73:
 111:Src/info_screen.c **** 
 112:Src/info_screen.c **** void Temperature(float temp)
 113:Src/info_screen.c **** {
 782              		.loc 1 113 0
 783              		.cfi_startproc
 784              		@ args = 0, pretend = 0, frame = 16
 785              		@ frame_needed = 0, uses_anonymous_args = 0
 786              	.LVL77:
 787 0000 30B5     		push	{r4, r5, lr}
 788              	.LCFI21:
 789              		.cfi_def_cfa_offset 12
 790              		.cfi_offset 4, -12
 791              		.cfi_offset 5, -8
 792              		.cfi_offset 14, -4
 793 0002 87B0     		sub	sp, sp, #28
 794              	.LCFI22:
 795              		.cfi_def_cfa_offset 40
 796 0004 0546     		mov	r5, r0
 114:Src/info_screen.c ****     uint8_t buff[10];
 115:Src/info_screen.c ****     u8g2_DrawBitmap(&u8g2, 90, 22, bmp_temp.width / 8, bmp_temp.height, bmp_temp.data);
 797              		.loc 1 115 0
 798 0006 194A     		ldr	r2, .L50
 799 0008 1378     		ldrb	r3, [r2]	@ zero_extendqisi2
 800 000a 194C     		ldr	r4, .L50+4
 801 000c 5168     		ldr	r1, [r2, #4]
ARM GAS  /var/folders/rk/zpr83dd14lx588t7kb0yv2b40000gn/T//cckyPisd.s 			page 17


 802 000e 0191     		str	r1, [sp, #4]
 803 0010 5278     		ldrb	r2, [r2, #1]	@ zero_extendqisi2
 804 0012 0092     		str	r2, [sp]
 805 0014 DB08     		lsrs	r3, r3, #3
 806 0016 1622     		movs	r2, #22
 807 0018 5A21     		movs	r1, #90
 808 001a 2046     		mov	r0, r4
 809              	.LVL78:
 810 001c FFF7FEFF 		bl	u8g2_DrawBitmap
 811              	.LVL79:
 116:Src/info_screen.c ****     u8g2_SetFont(&u8g2, u8g2_font_5x7_tr);
 812              		.loc 1 116 0
 813 0020 1449     		ldr	r1, .L50+8
 814 0022 2046     		mov	r0, r4
 815 0024 FFF7FEFF 		bl	u8g2_SetFont
 816              	.LVL80:
 117:Src/info_screen.c ****     u8g2_DrawStr(&u8g2, 110, 36, "C");
 817              		.loc 1 117 0
 818 0028 134B     		ldr	r3, .L50+12
 819 002a 2422     		movs	r2, #36
 820 002c 6E21     		movs	r1, #110
 821 002e 2046     		mov	r0, r4
 822 0030 FFF7FEFF 		bl	u8g2_DrawStr
 823              	.LVL81:
 118:Src/info_screen.c ****     sprintf(buff, "%02.1f", temp);
 824              		.loc 1 118 0
 825 0034 2846     		mov	r0, r5
 826 0036 FFF7FEFF 		bl	__aeabi_f2d
 827              	.LVL82:
 828 003a 0246     		mov	r2, r0
 829 003c 0B46     		mov	r3, r1
 830 003e 0F49     		ldr	r1, .L50+16
 831 0040 03A8     		add	r0, sp, #12
 832 0042 FFF7FEFF 		bl	sprintf
 833              	.LVL83:
 119:Src/info_screen.c ****     u8g2_DrawStr(&u8g2, 105, 28, buff);
 834              		.loc 1 119 0
 835 0046 03AB     		add	r3, sp, #12
 836 0048 1C22     		movs	r2, #28
 837 004a 6921     		movs	r1, #105
 838 004c 2046     		mov	r0, r4
 839 004e FFF7FEFF 		bl	u8g2_DrawStr
 840              	.LVL84:
 120:Src/info_screen.c ****     u8g2_SetFont(&u8g2, u8g2_font_unifont_t_symbols);
 841              		.loc 1 120 0
 842 0052 0B49     		ldr	r1, .L50+20
 843 0054 2046     		mov	r0, r4
 844 0056 FFF7FEFF 		bl	u8g2_SetFont
 845              	.LVL85:
 121:Src/info_screen.c ****     u8g2_DrawGlyph(&u8g2, 104, 44, 0x00b0);
 846              		.loc 1 121 0
 847 005a B023     		movs	r3, #176
 848 005c 2C22     		movs	r2, #44
 849 005e 6821     		movs	r1, #104
 850 0060 2046     		mov	r0, r4
 851 0062 FFF7FEFF 		bl	u8g2_DrawGlyph
 852              	.LVL86:
ARM GAS  /var/folders/rk/zpr83dd14lx588t7kb0yv2b40000gn/T//cckyPisd.s 			page 18


 122:Src/info_screen.c **** }
 853              		.loc 1 122 0
 854 0066 07B0     		add	sp, sp, #28
 855              	.LCFI23:
 856              		.cfi_def_cfa_offset 12
 857              		@ sp needed
 858 0068 30BD     		pop	{r4, r5, pc}
 859              	.LVL87:
 860              	.L51:
 861 006a 00BF     		.align	2
 862              	.L50:
 863 006c 00000000 		.word	bmp_temp
 864 0070 00000000 		.word	u8g2
 865 0074 00000000 		.word	u8g2_font_5x7_tr
 866 0078 00000000 		.word	.LC13
 867 007c 08000000 		.word	.LC8
 868 0080 00000000 		.word	u8g2_font_unifont_t_symbols
 869              		.cfi_endproc
 870              	.LFE73:
 872              		.section	.text.Info_Screen_Manage,"ax",%progbits
 873              		.align	1
 874              		.global	Info_Screen_Manage
 875              		.syntax unified
 876              		.thumb
 877              		.thumb_func
 878              		.fpu softvfp
 880              	Info_Screen_Manage:
 881              	.LFB74:
 123:Src/info_screen.c **** 
 124:Src/info_screen.c **** void Info_Screen_Manage(void)
 125:Src/info_screen.c **** {
 882              		.loc 1 125 0
 883              		.cfi_startproc
 884              		@ args = 0, pretend = 0, frame = 0
 885              		@ frame_needed = 0, uses_anonymous_args = 0
 886 0000 38B5     		push	{r3, r4, r5, lr}
 887              	.LCFI24:
 888              		.cfi_def_cfa_offset 16
 889              		.cfi_offset 3, -16
 890              		.cfi_offset 4, -12
 891              		.cfi_offset 5, -8
 892              		.cfi_offset 14, -4
 126:Src/info_screen.c ****     RTC_Time(localTime);
 893              		.loc 1 126 0
 894 0002 0D4B     		ldr	r3, .L54
 895 0004 1868     		ldr	r0, [r3]	@ unaligned
 896 0006 5968     		ldr	r1, [r3, #4]	@ unaligned
 897 0008 FFF7FEFF 		bl	RTC_Time
 898              	.LVL88:
 127:Src/info_screen.c ****     ExhaustFilter(sm5852_1.pressure);
 899              		.loc 1 127 0
 900 000c 0B4C     		ldr	r4, .L54+4
 901 000e A068     		ldr	r0, [r4, #8]	@ float
 902 0010 FFF7FEFF 		bl	ExhaustFilter
 903              	.LVL89:
 128:Src/info_screen.c ****     DownflowFilter(sm5852_2.pressure);
 904              		.loc 1 128 0
ARM GAS  /var/folders/rk/zpr83dd14lx588t7kb0yv2b40000gn/T//cckyPisd.s 			page 19


 905 0014 0A4D     		ldr	r5, .L54+8
 906 0016 A868     		ldr	r0, [r5, #8]	@ float
 907 0018 FFF7FEFF 		bl	DownflowFilter
 908              	.LVL90:
 129:Src/info_screen.c ****     InFlow(sm5852_1.pressure);
 909              		.loc 1 129 0
 910 001c A068     		ldr	r0, [r4, #8]	@ float
 911 001e FFF7FEFF 		bl	InFlow
 912              	.LVL91:
 130:Src/info_screen.c ****     DownFlow(sm5852_2.pressure);
 913              		.loc 1 130 0
 914 0022 A868     		ldr	r0, [r5, #8]	@ float
 915 0024 FFF7FEFF 		bl	DownFlow
 916              	.LVL92:
 131:Src/info_screen.c ****     Temperature(sm5852_1.temp);
 917              		.loc 1 131 0
 918 0028 E068     		ldr	r0, [r4, #12]	@ float
 919 002a FFF7FEFF 		bl	Temperature
 920              	.LVL93:
 132:Src/info_screen.c ****     Door(dev.doorLevel);
 921              		.loc 1 132 0
 922 002e 054B     		ldr	r3, .L54+12
 923 0030 5878     		ldrb	r0, [r3, #1]	@ zero_extendqisi2
 924 0032 FFF7FEFF 		bl	Door
 925              	.LVL94:
 133:Src/info_screen.c **** }
 926              		.loc 1 133 0
 927 0036 38BD     		pop	{r3, r4, r5, pc}
 928              	.L55:
 929              		.align	2
 930              	.L54:
 931 0038 00000000 		.word	localTime
 932 003c 00000000 		.word	sm5852_1
 933 0040 00000000 		.word	sm5852_2
 934 0044 00000000 		.word	dev
 935              		.cfi_endproc
 936              	.LFE74:
 938              		.comm	Info_Scr,8,4
 939              		.comm	bmp_temp,8,4
 940              		.section	.rodata.Door.str1.4,"aMS",%progbits,1
 941              		.align	2
 942              	.LC11:
 943 0000 446F6F72 		.ascii	"Door\000"
 943      00
 944 0005 000000   		.space	3
 945              	.LC12:
 946 0008 20202000 		.ascii	"   \000"
 947              		.section	.rodata.DownFlow.str1.4,"aMS",%progbits,1
 948              		.align	2
 949              	.LC10:
 950 0000 442E466C 		.ascii	"D.Flow:\000"
 950      6F773A00 
 951              		.section	.rodata.DownflowFilter.str1.4,"aMS",%progbits,1
 952              		.align	2
 953              	.LC6:
 954 0000 442E4669 		.ascii	"D.Filter:\000"
 954      6C746572 
ARM GAS  /var/folders/rk/zpr83dd14lx588t7kb0yv2b40000gn/T//cckyPisd.s 			page 20


 954      3A00
 955              		.section	.rodata.ExhaustFilter.str1.4,"aMS",%progbits,1
 956              		.align	2
 957              	.LC3:
 958 0000 452E4669 		.ascii	"E.Filter:\000"
 958      6C746572 
 958      3A00
 959 000a 0000     		.space	2
 960              	.LC4:
 961 000c 2530332E 		.ascii	"%03.0f\000"
 961      306600
 962 0013 00       		.space	1
 963              	.LC5:
 964 0014 506100   		.ascii	"Pa\000"
 965              		.section	.rodata.InFlow.str1.4,"aMS",%progbits,1
 966              		.align	2
 967              	.LC7:
 968 0000 496E466C 		.ascii	"InFlow:\000"
 968      6F773A00 
 969              	.LC8:
 970 0008 2530322E 		.ascii	"%02.1f\000"
 970      316600
 971 000f 00       		.space	1
 972              	.LC9:
 973 0010 6D2F7300 		.ascii	"m/s\000"
 974              		.section	.rodata.RTC_Time.str1.4,"aMS",%progbits,1
 975              		.align	2
 976              	.LC0:
 977 0000 25303264 		.ascii	"%02d:%02d\000"
 977      3A253032 
 977      6400
 978 000a 0000     		.space	2
 979              	.LC1:
 980 000c 25303264 		.ascii	"%02d %02d\000"
 980      20253032 
 980      6400
 981 0016 0000     		.space	2
 982              	.LC2:
 983 0018 25303264 		.ascii	"%02d/%02d/%04d\000"
 983      2F253032 
 983      642F2530 
 983      346400
 984              		.section	.rodata.Temperature.str1.4,"aMS",%progbits,1
 985              		.align	2
 986              	.LC13:
 987 0000 4300     		.ascii	"C\000"
 988              		.text
 989              	.Letext0:
 990              		.file 2 "/usr/local/gcc_arm/gcc-arm-none-eabi-7-2017-q4-major/arm-none-eabi/include/machine/_defau
 991              		.file 3 "/usr/local/gcc_arm/gcc-arm-none-eabi-7-2017-q4-major/arm-none-eabi/include/sys/_stdint.h"
 992              		.file 4 "Drivers/CMSIS/Include/core_cm3.h"
 993              		.file 5 "Drivers/CMSIS/Device/ST/STM32F1xx/Include/system_stm32f1xx.h"
 994              		.file 6 "Drivers/CMSIS/Device/ST/STM32F1xx/Include/stm32f103xe.h"
 995              		.file 7 "/usr/local/gcc_arm/gcc-arm-none-eabi-7-2017-q4-major/arm-none-eabi/include/sys/lock.h"
 996              		.file 8 "/usr/local/gcc_arm/gcc-arm-none-eabi-7-2017-q4-major/arm-none-eabi/include/sys/_types.h"
 997              		.file 9 "/usr/local/gcc_arm/gcc-arm-none-eabi-7-2017-q4-major/lib/gcc/arm-none-eabi/7.2.1/include/
 998              		.file 10 "/usr/local/gcc_arm/gcc-arm-none-eabi-7-2017-q4-major/arm-none-eabi/include/sys/reent.h"
ARM GAS  /var/folders/rk/zpr83dd14lx588t7kb0yv2b40000gn/T//cckyPisd.s 			page 21


 999              		.file 11 "Drivers/STM32F1xx_HAL_Driver/Inc/stm32f1xx_hal_def.h"
 1000              		.file 12 "Drivers/STM32F1xx_HAL_Driver/Inc/stm32f1xx_hal_dma.h"
 1001              		.file 13 "Drivers/STM32F1xx_HAL_Driver/Inc/stm32f1xx_hal_i2c.h"
 1002              		.file 14 "Drivers/STM32F1xx_HAL_Driver/Inc/stm32f1xx_hal_rtc.h"
 1003              		.file 15 "Drivers/STM32F1xx_HAL_Driver/Inc/stm32f1xx_hal.h"
 1004              		.file 16 "u8g2/csrc/u8x8.h"
 1005              		.file 17 "u8g2/csrc/u8g2.h"
 1006              		.file 18 "Inc/main.h"
 1007              		.file 19 "/usr/local/gcc_arm/gcc-arm-none-eabi-7-2017-q4-major/arm-none-eabi/include/time.h"
 1008              		.file 20 "Inc/clock_rtc.h"
 1009              		.file 21 "Inc/info_screen.h"
 1010              		.file 22 "Inc/user_bitmap.h"
 1011              		.file 23 "Inc/sm5852.h"
 1012              		.file 24 "Inc/system.h"
 1013              		.file 25 "/usr/local/gcc_arm/gcc-arm-none-eabi-7-2017-q4-major/arm-none-eabi/include/stdio.h"
ARM GAS  /var/folders/rk/zpr83dd14lx588t7kb0yv2b40000gn/T//cckyPisd.s 			page 22


DEFINED SYMBOLS
                            *ABS*:0000000000000000 info_screen.c
/var/folders/rk/zpr83dd14lx588t7kb0yv2b40000gn/T//cckyPisd.s:16     .text.Info_Screen_Init:0000000000000000 $t
/var/folders/rk/zpr83dd14lx588t7kb0yv2b40000gn/T//cckyPisd.s:23     .text.Info_Screen_Init:0000000000000000 Info_Screen_Init
/var/folders/rk/zpr83dd14lx588t7kb0yv2b40000gn/T//cckyPisd.s:48     .text.Info_Screen_Init:0000000000000010 $d
                            *COM*:0000000000000008 Info_Scr
/var/folders/rk/zpr83dd14lx588t7kb0yv2b40000gn/T//cckyPisd.s:53     .text.RTC_Time:0000000000000000 $t
/var/folders/rk/zpr83dd14lx588t7kb0yv2b40000gn/T//cckyPisd.s:60     .text.RTC_Time:0000000000000000 RTC_Time
/var/folders/rk/zpr83dd14lx588t7kb0yv2b40000gn/T//cckyPisd.s:173    .text.RTC_Time:00000000000000ac $d
/var/folders/rk/zpr83dd14lx588t7kb0yv2b40000gn/T//cckyPisd.s:186    .text.ExhaustFilter:0000000000000000 $t
/var/folders/rk/zpr83dd14lx588t7kb0yv2b40000gn/T//cckyPisd.s:193    .text.ExhaustFilter:0000000000000000 ExhaustFilter
/var/folders/rk/zpr83dd14lx588t7kb0yv2b40000gn/T//cckyPisd.s:269    .text.ExhaustFilter:0000000000000058 $d
/var/folders/rk/zpr83dd14lx588t7kb0yv2b40000gn/T//cckyPisd.s:279    .text.DownflowFilter:0000000000000000 $t
/var/folders/rk/zpr83dd14lx588t7kb0yv2b40000gn/T//cckyPisd.s:286    .text.DownflowFilter:0000000000000000 DownflowFilter
/var/folders/rk/zpr83dd14lx588t7kb0yv2b40000gn/T//cckyPisd.s:362    .text.DownflowFilter:0000000000000058 $d
/var/folders/rk/zpr83dd14lx588t7kb0yv2b40000gn/T//cckyPisd.s:374    .text.InFlow:0000000000000000 $t
/var/folders/rk/zpr83dd14lx588t7kb0yv2b40000gn/T//cckyPisd.s:381    .text.InFlow:0000000000000000 InFlow
/var/folders/rk/zpr83dd14lx588t7kb0yv2b40000gn/T//cckyPisd.s:465    .text.InFlow:0000000000000070 $d
/var/folders/rk/zpr83dd14lx588t7kb0yv2b40000gn/T//cckyPisd.s:478    .text.DownFlow:0000000000000000 $t
/var/folders/rk/zpr83dd14lx588t7kb0yv2b40000gn/T//cckyPisd.s:485    .text.DownFlow:0000000000000000 DownFlow
/var/folders/rk/zpr83dd14lx588t7kb0yv2b40000gn/T//cckyPisd.s:569    .text.DownFlow:0000000000000070 $d
/var/folders/rk/zpr83dd14lx588t7kb0yv2b40000gn/T//cckyPisd.s:582    .text.Door:0000000000000000 $t
/var/folders/rk/zpr83dd14lx588t7kb0yv2b40000gn/T//cckyPisd.s:589    .text.Door:0000000000000000 Door
/var/folders/rk/zpr83dd14lx588t7kb0yv2b40000gn/T//cckyPisd.s:681    .text.Door:0000000000000084 $d
/var/folders/rk/zpr83dd14lx588t7kb0yv2b40000gn/T//cckyPisd.s:685    .text.Door:0000000000000088 $t
/var/folders/rk/zpr83dd14lx588t7kb0yv2b40000gn/T//cckyPisd.s:765    .text.Door:00000000000000f4 $d
/var/folders/rk/zpr83dd14lx588t7kb0yv2b40000gn/T//cckyPisd.s:773    .text.Temperature:0000000000000000 $t
/var/folders/rk/zpr83dd14lx588t7kb0yv2b40000gn/T//cckyPisd.s:780    .text.Temperature:0000000000000000 Temperature
/var/folders/rk/zpr83dd14lx588t7kb0yv2b40000gn/T//cckyPisd.s:863    .text.Temperature:000000000000006c $d
                            *COM*:0000000000000008 bmp_temp
/var/folders/rk/zpr83dd14lx588t7kb0yv2b40000gn/T//cckyPisd.s:873    .text.Info_Screen_Manage:0000000000000000 $t
/var/folders/rk/zpr83dd14lx588t7kb0yv2b40000gn/T//cckyPisd.s:880    .text.Info_Screen_Manage:0000000000000000 Info_Screen_Manage
/var/folders/rk/zpr83dd14lx588t7kb0yv2b40000gn/T//cckyPisd.s:931    .text.Info_Screen_Manage:0000000000000038 $d
/var/folders/rk/zpr83dd14lx588t7kb0yv2b40000gn/T//cckyPisd.s:941    .rodata.Door.str1.4:0000000000000000 $d
/var/folders/rk/zpr83dd14lx588t7kb0yv2b40000gn/T//cckyPisd.s:948    .rodata.DownFlow.str1.4:0000000000000000 $d
/var/folders/rk/zpr83dd14lx588t7kb0yv2b40000gn/T//cckyPisd.s:952    .rodata.DownflowFilter.str1.4:0000000000000000 $d
/var/folders/rk/zpr83dd14lx588t7kb0yv2b40000gn/T//cckyPisd.s:956    .rodata.ExhaustFilter.str1.4:0000000000000000 $d
/var/folders/rk/zpr83dd14lx588t7kb0yv2b40000gn/T//cckyPisd.s:966    .rodata.InFlow.str1.4:0000000000000000 $d
/var/folders/rk/zpr83dd14lx588t7kb0yv2b40000gn/T//cckyPisd.s:975    .rodata.RTC_Time.str1.4:0000000000000000 $d
/var/folders/rk/zpr83dd14lx588t7kb0yv2b40000gn/T//cckyPisd.s:985    .rodata.Temperature.str1.4:0000000000000000 $d

UNDEFINED SYMBOLS
HAL_GetTick
sprintf
u8g2_SetFont
u8g2_DrawStr
u8g2_DrawHVLine
u8g2
u8g2_font_10x20_t_cyrillic
u8g2_font_5x7_tr
__aeabi_fcmpgt
__aeabi_f2d
__aeabi_dmul
__aeabi_ddiv
u8g2_DrawHLine
u8g2_DrawBox
u8g2_font_5x8_mf
ARM GAS  /var/folders/rk/zpr83dd14lx588t7kb0yv2b40000gn/T//cckyPisd.s 			page 23


u8g2_DrawBitmap
u8g2_DrawGlyph
u8g2_font_unifont_t_symbols
localTime
sm5852_1
sm5852_2
dev
