ARM GAS  C:\Users\behun\AppData\Local\Temp\ccPLZKpN.s 			page 1


   1              		.cpu cortex-m3
   2              		.eabi_attribute 20, 1
   3              		.eabi_attribute 21, 1
   4              		.eabi_attribute 23, 3
   5              		.eabi_attribute 24, 1
   6              		.eabi_attribute 25, 1
   7              		.eabi_attribute 26, 1
   8              		.eabi_attribute 30, 1
   9              		.eabi_attribute 34, 1
  10              		.eabi_attribute 18, 4
  11              		.file	"input.c"
  12              		.text
  13              	.Ltext0:
  14              		.cfi_sections	.debug_frame
  15              		.section	.text.Input_Init,"ax",%progbits
  16              		.align	1
  17              		.global	Input_Init
  18              		.arch armv7-m
  19              		.syntax unified
  20              		.thumb
  21              		.thumb_func
  22              		.fpu softvfp
  24              	Input_Init:
  25              	.LFB66:
  26              		.file 1 "Src/input.c"
   1:Src/input.c   **** #include "input.h"
   2:Src/input.c   **** #include "output.h"
   3:Src/input.c   **** #include "main_screen.h"
   4:Src/input.c   **** #include "info_screen.h"
   5:Src/input.c   **** 
   6:Src/input.c   **** INPUT_STRUCT input;
   7:Src/input.c   **** extern uint8_t toggle;
   8:Src/input.c   **** 
   9:Src/input.c   **** void Input_Init(void)
  10:Src/input.c   **** {
  27              		.loc 1 10 1 view -0
  28              		.cfi_startproc
  29              		@ args = 0, pretend = 0, frame = 16
  30              		@ frame_needed = 0, uses_anonymous_args = 0
  31 0000 10B5     		push	{r4, lr}
  32              	.LCFI0:
  33              		.cfi_def_cfa_offset 8
  34              		.cfi_offset 4, -8
  35              		.cfi_offset 14, -4
  36 0002 84B0     		sub	sp, sp, #16
  37              	.LCFI1:
  38              		.cfi_def_cfa_offset 24
  11:Src/input.c   ****     GPIO_InitTypeDef GPIO_InitStruct = {0};
  39              		.loc 1 11 5 view .LVU1
  40              		.loc 1 11 22 is_stmt 0 view .LVU2
  41 0004 0024     		movs	r4, #0
  42 0006 0194     		str	r4, [sp, #4]
  43 0008 0394     		str	r4, [sp, #12]
  12:Src/input.c   ****     GPIO_InitStruct.Pin = In1_Pin | In2_Pin | In3_Pin | In4_Pin | In5_Pin | In6_Pin;
  44              		.loc 1 12 5 is_stmt 1 view .LVU3
  45              		.loc 1 12 25 is_stmt 0 view .LVU4
  46 000a 3F23     		movs	r3, #63
ARM GAS  C:\Users\behun\AppData\Local\Temp\ccPLZKpN.s 			page 2


  47 000c 0093     		str	r3, [sp]
  13:Src/input.c   ****     GPIO_InitStruct.Mode = GPIO_MODE_INPUT;
  48              		.loc 1 13 5 is_stmt 1 view .LVU5
  14:Src/input.c   ****     GPIO_InitStruct.Pull = GPIO_PULLUP;
  49              		.loc 1 14 5 view .LVU6
  50              		.loc 1 14 26 is_stmt 0 view .LVU7
  51 000e 0123     		movs	r3, #1
  52 0010 0293     		str	r3, [sp, #8]
  15:Src/input.c   ****     HAL_GPIO_Init(GPIOC, &GPIO_InitStruct);
  53              		.loc 1 15 5 is_stmt 1 view .LVU8
  54 0012 6946     		mov	r1, sp
  55 0014 0C48     		ldr	r0, .L6
  56 0016 FFF7FEFF 		bl	HAL_GPIO_Init
  57              	.LVL0:
  16:Src/input.c   **** 
  17:Src/input.c   ****     for (input.name = 0; input.name < NUM_INPUT; input.name++)
  58              		.loc 1 17 5 view .LVU9
  59              		.loc 1 17 21 is_stmt 0 view .LVU10
  60 001a 0C4B     		ldr	r3, .L6+4
  61 001c 1C70     		strb	r4, [r3]
  62              	.L2:
  63              		.loc 1 17 31 discriminator 1 view .LVU11
  64 001e 0B4B     		ldr	r3, .L6+4
  65 0020 1B78     		ldrb	r3, [r3]	@ zero_extendqisi2
  66              		.loc 1 17 5 discriminator 1 view .LVU12
  67 0022 052B     		cmp	r3, #5
  68 0024 0AD8     		bhi	.L5
  18:Src/input.c   ****     {
  19:Src/input.c   ****         input.ext[input.name].active = input.ext[input.name].actived = IN_RELEASE;
  69              		.loc 1 19 9 is_stmt 1 discriminator 3 view .LVU13
  70              		.loc 1 19 70 is_stmt 0 discriminator 3 view .LVU14
  71 0026 0948     		ldr	r0, .L6+4
  72 0028 00EB8302 		add	r2, r0, r3, lsl #2
  73 002c 0021     		movs	r1, #0
  74 002e 5170     		strb	r1, [r2, #1]
  75              		.loc 1 19 38 discriminator 3 view .LVU15
  76 0030 9170     		strb	r1, [r2, #2]
  20:Src/input.c   ****         input.ext[input.name].waitRelease = 0;
  77              		.loc 1 20 9 is_stmt 1 discriminator 3 view .LVU16
  78              		.loc 1 20 43 is_stmt 0 discriminator 3 view .LVU17
  79 0032 D170     		strb	r1, [r2, #3]
  21:Src/input.c   ****         input.ext[input.name].cnt = 0;
  80              		.loc 1 21 9 is_stmt 1 discriminator 3 view .LVU18
  81              		.loc 1 21 35 is_stmt 0 discriminator 3 view .LVU19
  82 0034 1171     		strb	r1, [r2, #4]
  17:Src/input.c   ****     {
  83              		.loc 1 17 60 discriminator 3 view .LVU20
  84 0036 0133     		adds	r3, r3, #1
  85 0038 0370     		strb	r3, [r0]
  86 003a F0E7     		b	.L2
  87              	.L5:
  22:Src/input.c   ****     }
  23:Src/input.c   ****     input.tick = HAL_GetTick();
  88              		.loc 1 23 5 is_stmt 1 view .LVU21
  89              		.loc 1 23 18 is_stmt 0 view .LVU22
  90 003c FFF7FEFF 		bl	HAL_GetTick
  91              	.LVL1:
ARM GAS  C:\Users\behun\AppData\Local\Temp\ccPLZKpN.s 			page 3


  92              		.loc 1 23 16 view .LVU23
  93 0040 024B     		ldr	r3, .L6+4
  94 0042 D861     		str	r0, [r3, #28]
  24:Src/input.c   **** }
  95              		.loc 1 24 1 view .LVU24
  96 0044 04B0     		add	sp, sp, #16
  97              	.LCFI2:
  98              		.cfi_def_cfa_offset 8
  99              		@ sp needed
 100 0046 10BD     		pop	{r4, pc}
 101              	.L7:
 102              		.align	2
 103              	.L6:
 104 0048 00100140 		.word	1073811456
 105 004c 00000000 		.word	input
 106              		.cfi_endproc
 107              	.LFE66:
 109              		.section	.text.Input_Get,"ax",%progbits
 110              		.align	1
 111              		.global	Input_Get
 112              		.syntax unified
 113              		.thumb
 114              		.thumb_func
 115              		.fpu softvfp
 117              	Input_Get:
 118              	.LVL2:
 119              	.LFB67:
  25:Src/input.c   **** 
  26:Src/input.c   **** void Input_Get(uint8_t port_id)
  27:Src/input.c   **** {
 120              		.loc 1 27 1 is_stmt 1 view -0
 121              		.cfi_startproc
 122              		@ args = 0, pretend = 0, frame = 0
 123              		@ frame_needed = 0, uses_anonymous_args = 0
 124              		.loc 1 27 1 is_stmt 0 view .LVU26
 125 0000 10B5     		push	{r4, lr}
 126              	.LCFI3:
 127              		.cfi_def_cfa_offset 8
 128              		.cfi_offset 4, -8
 129              		.cfi_offset 14, -4
 130 0002 0446     		mov	r4, r0
  28:Src/input.c   ****     uint16_t inputGet;
 131              		.loc 1 28 5 is_stmt 1 view .LVU27
  29:Src/input.c   ****     switch (port_id)
 132              		.loc 1 29 5 view .LVU28
 133 0004 0528     		cmp	r0, #5
 134 0006 0ED8     		bhi	.L9
 135 0008 DFE800F0 		tbb	[pc, r0]
 136              	.L11:
 137 000c 03       		.byte	(.L16-.L11)/2
 138 000d 24       		.byte	(.L15-.L11)/2
 139 000e 35       		.byte	(.L14-.L11)/2
 140 000f 46       		.byte	(.L13-.L11)/2
 141 0010 57       		.byte	(.L12-.L11)/2
 142 0011 68       		.byte	(.L10-.L11)/2
 143              		.p2align 1
 144              	.L16:
ARM GAS  C:\Users\behun\AppData\Local\Temp\ccPLZKpN.s 			page 4


  30:Src/input.c   ****     {
  31:Src/input.c   ****     case 0:
  32:Src/input.c   ****         inputGet = In1();
 145              		.loc 1 32 9 view .LVU29
 146              		.loc 1 32 20 is_stmt 0 view .LVU30
 147 0012 0121     		movs	r1, #1
 148 0014 3F48     		ldr	r0, .L27
 149              	.LVL3:
 150              		.loc 1 32 20 view .LVU31
 151 0016 FFF7FEFF 		bl	HAL_GPIO_ReadPin
 152              	.LVL4:
  33:Src/input.c   ****         if (inputGet == !In1_Pin)
 153              		.loc 1 33 9 is_stmt 1 view .LVU32
 154              		.loc 1 33 12 is_stmt 0 view .LVU33
 155 001a A8B9     		cbnz	r0, .L17
  34:Src/input.c   ****             input.ext[port_id].active = IN_ACTIVE;
 156              		.loc 1 34 13 is_stmt 1 view .LVU34
 157              		.loc 1 34 39 is_stmt 0 view .LVU35
 158 001c 3E4B     		ldr	r3, .L27+4
 159 001e 03EB8403 		add	r3, r3, r4, lsl #2
 160 0022 0122     		movs	r2, #1
 161 0024 9A70     		strb	r2, [r3, #2]
 162              	.LVL5:
 163              	.L9:
  35:Src/input.c   ****         else
  36:Src/input.c   ****             input.ext[port_id].active = IN_RELEASE;
  37:Src/input.c   ****         break;
  38:Src/input.c   ****     case 1:
  39:Src/input.c   ****         inputGet = In2();
  40:Src/input.c   ****         if (inputGet == !In2_Pin)
  41:Src/input.c   ****             input.ext[port_id].active = IN_ACTIVE;
  42:Src/input.c   ****         else
  43:Src/input.c   ****             input.ext[port_id].active = IN_RELEASE;
  44:Src/input.c   ****         break;
  45:Src/input.c   ****     case 2:
  46:Src/input.c   ****         inputGet = In3();
  47:Src/input.c   ****         if (inputGet == !In3_Pin)
  48:Src/input.c   ****             input.ext[port_id].active = IN_ACTIVE;
  49:Src/input.c   ****         else
  50:Src/input.c   ****             input.ext[port_id].active = IN_RELEASE;
  51:Src/input.c   ****         break;
  52:Src/input.c   ****     case 3:
  53:Src/input.c   ****         inputGet = In4();
  54:Src/input.c   ****         if (inputGet == !In4_Pin)
  55:Src/input.c   ****             input.ext[port_id].active = IN_ACTIVE;
  56:Src/input.c   ****         else
  57:Src/input.c   ****             input.ext[port_id].active = IN_RELEASE;
  58:Src/input.c   ****         break;
  59:Src/input.c   ****     case 4:
  60:Src/input.c   ****         inputGet = In5();
  61:Src/input.c   ****         if (inputGet == !In5_Pin)
  62:Src/input.c   ****             input.ext[port_id].active = IN_ACTIVE;
  63:Src/input.c   ****         else
  64:Src/input.c   ****             input.ext[port_id].active = IN_RELEASE;
  65:Src/input.c   ****         break;
  66:Src/input.c   ****     case 5:
  67:Src/input.c   ****         inputGet = In6();
ARM GAS  C:\Users\behun\AppData\Local\Temp\ccPLZKpN.s 			page 5


  68:Src/input.c   ****         if (inputGet == !In6_Pin)
  69:Src/input.c   ****             input.ext[port_id].active = IN_ACTIVE;
  70:Src/input.c   ****         else
  71:Src/input.c   ****             input.ext[port_id].active = IN_RELEASE;
  72:Src/input.c   ****         break;
  73:Src/input.c   ****     }
  74:Src/input.c   ****     if (input.ext[port_id].active != input.ext[port_id].actived)
 164              		.loc 1 74 5 is_stmt 1 view .LVU36
 165              		.loc 1 74 27 is_stmt 0 view .LVU37
 166 0026 3C4B     		ldr	r3, .L27+4
 167 0028 03EB8403 		add	r3, r3, r4, lsl #2
 168 002c 9A78     		ldrb	r2, [r3, #2]	@ zero_extendqisi2
 169              		.loc 1 74 56 view .LVU38
 170 002e 5B78     		ldrb	r3, [r3, #1]	@ zero_extendqisi2
 171              		.loc 1 74 8 view .LVU39
 172 0030 9A42     		cmp	r2, r3
 173 0032 69D0     		beq	.L23
  75:Src/input.c   ****     {
  76:Src/input.c   ****         ++(input.ext[port_id].cnt);
 174              		.loc 1 76 9 is_stmt 1 view .LVU40
 175              		.loc 1 76 30 is_stmt 0 view .LVU41
 176 0034 384A     		ldr	r2, .L27+4
 177 0036 02EB8402 		add	r2, r2, r4, lsl #2
 178 003a 1379     		ldrb	r3, [r2, #4]	@ zero_extendqisi2
 179              		.loc 1 76 9 view .LVU42
 180 003c 0133     		adds	r3, r3, #1
 181 003e DBB2     		uxtb	r3, r3
 182 0040 1371     		strb	r3, [r2, #4]
  77:Src/input.c   ****         if (input.ext[port_id].cnt == NUM_OF_SAMPLE_INPUT)
 183              		.loc 1 77 9 is_stmt 1 view .LVU43
 184              		.loc 1 77 12 is_stmt 0 view .LVU44
 185 0042 052B     		cmp	r3, #5
 186 0044 5BD0     		beq	.L26
 187              	.L8:
  78:Src/input.c   ****         {
  79:Src/input.c   ****             input.ext[port_id].actived = input.ext[port_id].active;
  80:Src/input.c   ****             input.ext[port_id].cnt = 0;
  81:Src/input.c   ****         }
  82:Src/input.c   ****     }
  83:Src/input.c   ****     else
  84:Src/input.c   ****     {
  85:Src/input.c   ****         input.ext[port_id].cnt = 0;
  86:Src/input.c   ****     }
  87:Src/input.c   **** }
 188              		.loc 1 87 1 view .LVU45
 189 0046 10BD     		pop	{r4, pc}
 190              	.LVL6:
 191              	.L17:
  36:Src/input.c   ****         break;
 192              		.loc 1 36 13 is_stmt 1 view .LVU46
  36:Src/input.c   ****         break;
 193              		.loc 1 36 39 is_stmt 0 view .LVU47
 194 0048 334B     		ldr	r3, .L27+4
 195 004a 03EB8403 		add	r3, r3, r4, lsl #2
 196 004e 0022     		movs	r2, #0
 197 0050 9A70     		strb	r2, [r3, #2]
 198 0052 E8E7     		b	.L9
ARM GAS  C:\Users\behun\AppData\Local\Temp\ccPLZKpN.s 			page 6


 199              	.LVL7:
 200              	.L15:
  39:Src/input.c   ****         if (inputGet == !In2_Pin)
 201              		.loc 1 39 9 is_stmt 1 view .LVU48
  39:Src/input.c   ****         if (inputGet == !In2_Pin)
 202              		.loc 1 39 20 is_stmt 0 view .LVU49
 203 0054 0221     		movs	r1, #2
 204 0056 2F48     		ldr	r0, .L27
 205              	.LVL8:
  39:Src/input.c   ****         if (inputGet == !In2_Pin)
 206              		.loc 1 39 20 view .LVU50
 207 0058 FFF7FEFF 		bl	HAL_GPIO_ReadPin
 208              	.LVL9:
  40:Src/input.c   ****             input.ext[port_id].active = IN_ACTIVE;
 209              		.loc 1 40 9 is_stmt 1 view .LVU51
  40:Src/input.c   ****             input.ext[port_id].active = IN_ACTIVE;
 210              		.loc 1 40 12 is_stmt 0 view .LVU52
 211 005c 28B9     		cbnz	r0, .L18
  41:Src/input.c   ****         else
 212              		.loc 1 41 13 is_stmt 1 view .LVU53
  41:Src/input.c   ****         else
 213              		.loc 1 41 39 is_stmt 0 view .LVU54
 214 005e 2E4B     		ldr	r3, .L27+4
 215 0060 03EB8403 		add	r3, r3, r4, lsl #2
 216 0064 0122     		movs	r2, #1
 217 0066 9A70     		strb	r2, [r3, #2]
 218 0068 DDE7     		b	.L9
 219              	.L18:
  43:Src/input.c   ****         break;
 220              		.loc 1 43 13 is_stmt 1 view .LVU55
  43:Src/input.c   ****         break;
 221              		.loc 1 43 39 is_stmt 0 view .LVU56
 222 006a 2B4B     		ldr	r3, .L27+4
 223 006c 03EB8403 		add	r3, r3, r4, lsl #2
 224 0070 0022     		movs	r2, #0
 225 0072 9A70     		strb	r2, [r3, #2]
 226 0074 D7E7     		b	.L9
 227              	.LVL10:
 228              	.L14:
  46:Src/input.c   ****         if (inputGet == !In3_Pin)
 229              		.loc 1 46 9 is_stmt 1 view .LVU57
  46:Src/input.c   ****         if (inputGet == !In3_Pin)
 230              		.loc 1 46 20 is_stmt 0 view .LVU58
 231 0076 0421     		movs	r1, #4
 232 0078 2648     		ldr	r0, .L27
 233              	.LVL11:
  46:Src/input.c   ****         if (inputGet == !In3_Pin)
 234              		.loc 1 46 20 view .LVU59
 235 007a FFF7FEFF 		bl	HAL_GPIO_ReadPin
 236              	.LVL12:
  47:Src/input.c   ****             input.ext[port_id].active = IN_ACTIVE;
 237              		.loc 1 47 9 is_stmt 1 view .LVU60
  47:Src/input.c   ****             input.ext[port_id].active = IN_ACTIVE;
 238              		.loc 1 47 12 is_stmt 0 view .LVU61
 239 007e 28B9     		cbnz	r0, .L19
  48:Src/input.c   ****         else
 240              		.loc 1 48 13 is_stmt 1 view .LVU62
ARM GAS  C:\Users\behun\AppData\Local\Temp\ccPLZKpN.s 			page 7


  48:Src/input.c   ****         else
 241              		.loc 1 48 39 is_stmt 0 view .LVU63
 242 0080 254B     		ldr	r3, .L27+4
 243 0082 03EB8403 		add	r3, r3, r4, lsl #2
 244 0086 0122     		movs	r2, #1
 245 0088 9A70     		strb	r2, [r3, #2]
 246 008a CCE7     		b	.L9
 247              	.L19:
  50:Src/input.c   ****         break;
 248              		.loc 1 50 13 is_stmt 1 view .LVU64
  50:Src/input.c   ****         break;
 249              		.loc 1 50 39 is_stmt 0 view .LVU65
 250 008c 224B     		ldr	r3, .L27+4
 251 008e 03EB8403 		add	r3, r3, r4, lsl #2
 252 0092 0022     		movs	r2, #0
 253 0094 9A70     		strb	r2, [r3, #2]
 254 0096 C6E7     		b	.L9
 255              	.LVL13:
 256              	.L13:
  53:Src/input.c   ****         if (inputGet == !In4_Pin)
 257              		.loc 1 53 9 is_stmt 1 view .LVU66
  53:Src/input.c   ****         if (inputGet == !In4_Pin)
 258              		.loc 1 53 20 is_stmt 0 view .LVU67
 259 0098 0821     		movs	r1, #8
 260 009a 1E48     		ldr	r0, .L27
 261              	.LVL14:
  53:Src/input.c   ****         if (inputGet == !In4_Pin)
 262              		.loc 1 53 20 view .LVU68
 263 009c FFF7FEFF 		bl	HAL_GPIO_ReadPin
 264              	.LVL15:
  54:Src/input.c   ****             input.ext[port_id].active = IN_ACTIVE;
 265              		.loc 1 54 9 is_stmt 1 view .LVU69
  54:Src/input.c   ****             input.ext[port_id].active = IN_ACTIVE;
 266              		.loc 1 54 12 is_stmt 0 view .LVU70
 267 00a0 28B9     		cbnz	r0, .L20
  55:Src/input.c   ****         else
 268              		.loc 1 55 13 is_stmt 1 view .LVU71
  55:Src/input.c   ****         else
 269              		.loc 1 55 39 is_stmt 0 view .LVU72
 270 00a2 1D4B     		ldr	r3, .L27+4
 271 00a4 03EB8403 		add	r3, r3, r4, lsl #2
 272 00a8 0122     		movs	r2, #1
 273 00aa 9A70     		strb	r2, [r3, #2]
 274 00ac BBE7     		b	.L9
 275              	.L20:
  57:Src/input.c   ****         break;
 276              		.loc 1 57 13 is_stmt 1 view .LVU73
  57:Src/input.c   ****         break;
 277              		.loc 1 57 39 is_stmt 0 view .LVU74
 278 00ae 1A4B     		ldr	r3, .L27+4
 279 00b0 03EB8403 		add	r3, r3, r4, lsl #2
 280 00b4 0022     		movs	r2, #0
 281 00b6 9A70     		strb	r2, [r3, #2]
 282 00b8 B5E7     		b	.L9
 283              	.LVL16:
 284              	.L12:
  60:Src/input.c   ****         if (inputGet == !In5_Pin)
ARM GAS  C:\Users\behun\AppData\Local\Temp\ccPLZKpN.s 			page 8


 285              		.loc 1 60 9 is_stmt 1 view .LVU75
  60:Src/input.c   ****         if (inputGet == !In5_Pin)
 286              		.loc 1 60 20 is_stmt 0 view .LVU76
 287 00ba 1021     		movs	r1, #16
 288 00bc 1548     		ldr	r0, .L27
 289              	.LVL17:
  60:Src/input.c   ****         if (inputGet == !In5_Pin)
 290              		.loc 1 60 20 view .LVU77
 291 00be FFF7FEFF 		bl	HAL_GPIO_ReadPin
 292              	.LVL18:
  61:Src/input.c   ****             input.ext[port_id].active = IN_ACTIVE;
 293              		.loc 1 61 9 is_stmt 1 view .LVU78
  61:Src/input.c   ****             input.ext[port_id].active = IN_ACTIVE;
 294              		.loc 1 61 12 is_stmt 0 view .LVU79
 295 00c2 28B9     		cbnz	r0, .L21
  62:Src/input.c   ****         else
 296              		.loc 1 62 13 is_stmt 1 view .LVU80
  62:Src/input.c   ****         else
 297              		.loc 1 62 39 is_stmt 0 view .LVU81
 298 00c4 144B     		ldr	r3, .L27+4
 299 00c6 03EB8403 		add	r3, r3, r4, lsl #2
 300 00ca 0122     		movs	r2, #1
 301 00cc 9A70     		strb	r2, [r3, #2]
 302 00ce AAE7     		b	.L9
 303              	.L21:
  64:Src/input.c   ****         break;
 304              		.loc 1 64 13 is_stmt 1 view .LVU82
  64:Src/input.c   ****         break;
 305              		.loc 1 64 39 is_stmt 0 view .LVU83
 306 00d0 114B     		ldr	r3, .L27+4
 307 00d2 03EB8403 		add	r3, r3, r4, lsl #2
 308 00d6 0022     		movs	r2, #0
 309 00d8 9A70     		strb	r2, [r3, #2]
 310 00da A4E7     		b	.L9
 311              	.LVL19:
 312              	.L10:
  67:Src/input.c   ****         if (inputGet == !In6_Pin)
 313              		.loc 1 67 9 is_stmt 1 view .LVU84
  67:Src/input.c   ****         if (inputGet == !In6_Pin)
 314              		.loc 1 67 20 is_stmt 0 view .LVU85
 315 00dc 2021     		movs	r1, #32
 316 00de 0D48     		ldr	r0, .L27
 317              	.LVL20:
  67:Src/input.c   ****         if (inputGet == !In6_Pin)
 318              		.loc 1 67 20 view .LVU86
 319 00e0 FFF7FEFF 		bl	HAL_GPIO_ReadPin
 320              	.LVL21:
  68:Src/input.c   ****             input.ext[port_id].active = IN_ACTIVE;
 321              		.loc 1 68 9 is_stmt 1 view .LVU87
  68:Src/input.c   ****             input.ext[port_id].active = IN_ACTIVE;
 322              		.loc 1 68 12 is_stmt 0 view .LVU88
 323 00e4 28B9     		cbnz	r0, .L22
  69:Src/input.c   ****         else
 324              		.loc 1 69 13 is_stmt 1 view .LVU89
  69:Src/input.c   ****         else
 325              		.loc 1 69 39 is_stmt 0 view .LVU90
 326 00e6 0C4B     		ldr	r3, .L27+4
ARM GAS  C:\Users\behun\AppData\Local\Temp\ccPLZKpN.s 			page 9


 327 00e8 03EB8403 		add	r3, r3, r4, lsl #2
 328 00ec 0122     		movs	r2, #1
 329 00ee 9A70     		strb	r2, [r3, #2]
 330 00f0 99E7     		b	.L9
 331              	.L22:
  71:Src/input.c   ****         break;
 332              		.loc 1 71 13 is_stmt 1 view .LVU91
  71:Src/input.c   ****         break;
 333              		.loc 1 71 39 is_stmt 0 view .LVU92
 334 00f2 094B     		ldr	r3, .L27+4
 335 00f4 03EB8403 		add	r3, r3, r4, lsl #2
 336 00f8 0022     		movs	r2, #0
 337 00fa 9A70     		strb	r2, [r3, #2]
 338 00fc 93E7     		b	.L9
 339              	.LVL22:
 340              	.L26:
  79:Src/input.c   ****             input.ext[port_id].cnt = 0;
 341              		.loc 1 79 13 is_stmt 1 view .LVU93
  79:Src/input.c   ****             input.ext[port_id].cnt = 0;
 342              		.loc 1 79 60 is_stmt 0 view .LVU94
 343 00fe 9378     		ldrb	r3, [r2, #2]	@ zero_extendqisi2
  79:Src/input.c   ****             input.ext[port_id].cnt = 0;
 344              		.loc 1 79 40 view .LVU95
 345 0100 5370     		strb	r3, [r2, #1]
  80:Src/input.c   ****         }
 346              		.loc 1 80 13 is_stmt 1 view .LVU96
  80:Src/input.c   ****         }
 347              		.loc 1 80 36 is_stmt 0 view .LVU97
 348 0102 0023     		movs	r3, #0
 349 0104 1371     		strb	r3, [r2, #4]
 350 0106 9EE7     		b	.L8
 351              	.L23:
  85:Src/input.c   ****     }
 352              		.loc 1 85 9 is_stmt 1 view .LVU98
  85:Src/input.c   ****     }
 353              		.loc 1 85 32 is_stmt 0 view .LVU99
 354 0108 034B     		ldr	r3, .L27+4
 355 010a 03EB8404 		add	r4, r3, r4, lsl #2
 356 010e 0023     		movs	r3, #0
 357 0110 2371     		strb	r3, [r4, #4]
 358              		.loc 1 87 1 view .LVU100
 359 0112 98E7     		b	.L8
 360              	.L28:
 361              		.align	2
 362              	.L27:
 363 0114 00100140 		.word	1073811456
 364 0118 00000000 		.word	input
 365              		.cfi_endproc
 366              	.LFE67:
 368              		.section	.text.Input_Process,"ax",%progbits
 369              		.align	1
 370              		.global	Input_Process
 371              		.syntax unified
 372              		.thumb
 373              		.thumb_func
 374              		.fpu softvfp
 376              	Input_Process:
ARM GAS  C:\Users\behun\AppData\Local\Temp\ccPLZKpN.s 			page 10


 377              	.LFB68:
  88:Src/input.c   **** 
  89:Src/input.c   **** // uint8_t KeyPress(uint8_t id)
  90:Src/input.c   **** // {
  91:Src/input.c   **** // 	return key.ext[id].pressed;
  92:Src/input.c   **** // }
  93:Src/input.c   **** 
  94:Src/input.c   **** uint8_t Input_Process(void)
  95:Src/input.c   **** {
 378              		.loc 1 95 1 is_stmt 1 view -0
 379              		.cfi_startproc
 380              		@ args = 0, pretend = 0, frame = 0
 381              		@ frame_needed = 0, uses_anonymous_args = 0
 382 0000 10B5     		push	{r4, lr}
 383              	.LCFI4:
 384              		.cfi_def_cfa_offset 8
 385              		.cfi_offset 4, -8
 386              		.cfi_offset 14, -4
  96:Src/input.c   ****     uint8_t currentState = 0;
 387              		.loc 1 96 5 view .LVU102
 388              	.LVL23:
  97:Src/input.c   ****     for (input.name = 0; input.name < NUM_INPUT; input.name++)
 389              		.loc 1 97 5 view .LVU103
 390              		.loc 1 97 21 is_stmt 0 view .LVU104
 391 0002 0024     		movs	r4, #0
 392 0004 304B     		ldr	r3, .L54
 393 0006 1C70     		strb	r4, [r3]
 394              		.loc 1 97 5 view .LVU105
 395 0008 31E0     		b	.L30
 396              	.LVL24:
 397              	.L53:
  98:Src/input.c   ****     {
  99:Src/input.c   ****         Input_Get(input.name);
 100:Src/input.c   **** 
 101:Src/input.c   ****         if (input.ext[input.name].actived == IN_ACTIVE)
 102:Src/input.c   ****         {
 103:Src/input.c   ****             if (input.ext[input.name].waitRelease == 0)
 398              		.loc 1 103 13 is_stmt 1 view .LVU106
 399              		.loc 1 103 38 is_stmt 0 view .LVU107
 400 000a 2F49     		ldr	r1, .L54
 401 000c 01EB8301 		add	r1, r1, r3, lsl #2
 402 0010 C978     		ldrb	r1, [r1, #3]	@ zero_extendqisi2
 403              		.loc 1 103 16 view .LVU108
 404 0012 89B9     		cbnz	r1, .L32
 104:Src/input.c   ****             {
 105:Src/input.c   ****                 switch (input.name)
 405              		.loc 1 105 17 is_stmt 1 view .LVU109
 406 0014 042B     		cmp	r3, #4
 407 0016 0CD8     		bhi	.L33
 408 0018 DFE803F0 		tbb	[pc, r3]
 409              	.L35:
 410 001c 03       		.byte	(.L38-.L35)/2
 411 001d 0D       		.byte	(.L49-.L35)/2
 412 001e 05       		.byte	(.L37-.L35)/2
 413 001f 07       		.byte	(.L36-.L35)/2
 414 0020 09       		.byte	(.L34-.L35)/2
 415 0021 00       		.p2align 1
ARM GAS  C:\Users\behun\AppData\Local\Temp\ccPLZKpN.s 			page 11


 416              	.L38:
 106:Src/input.c   ****                 {
 107:Src/input.c   ****                 case IN1:
 108:Src/input.c   ****                     currentState = IN1_ON;
 417              		.loc 1 108 34 is_stmt 0 view .LVU110
 418 0022 1446     		mov	r4, r2
 419              	.LVL25:
 420              		.loc 1 108 34 view .LVU111
 421 0024 08E0     		b	.L32
 422              	.LVL26:
 423              	.L37:
 109:Src/input.c   ****                     // printf("INPUT1\n");
 110:Src/input.c   ****                     break;
 111:Src/input.c   ****                 case IN2:
 112:Src/input.c   ****                     currentState = IN2_ON;
 113:Src/input.c   ****                     // printf("INPUT2\n");
 114:Src/input.c   ****                     break;
 115:Src/input.c   ****                 case IN3:
 116:Src/input.c   ****                     currentState = IN3_ON;
 424              		.loc 1 116 21 is_stmt 1 view .LVU112
 117:Src/input.c   ****                     // printf("INPUT3\n");
 118:Src/input.c   ****                     break;
 425              		.loc 1 118 21 view .LVU113
 116:Src/input.c   ****                     // printf("INPUT3\n");
 426              		.loc 1 116 34 is_stmt 0 view .LVU114
 427 0026 0524     		movs	r4, #5
 428              		.loc 1 118 21 view .LVU115
 429 0028 06E0     		b	.L32
 430              	.LVL27:
 431              	.L36:
 119:Src/input.c   ****                 case IN4:
 120:Src/input.c   ****                     currentState = IN4_ON;
 432              		.loc 1 120 21 is_stmt 1 view .LVU116
 121:Src/input.c   ****                     //  printf("INPUT4\n");
 122:Src/input.c   ****                     break;
 433              		.loc 1 122 21 view .LVU117
 120:Src/input.c   ****                     //  printf("INPUT4\n");
 434              		.loc 1 120 34 is_stmt 0 view .LVU118
 435 002a 0724     		movs	r4, #7
 436              		.loc 1 122 21 view .LVU119
 437 002c 04E0     		b	.L32
 438              	.LVL28:
 439              	.L34:
 123:Src/input.c   ****                 case IN5:
 124:Src/input.c   ****                     currentState = IN5_ON;
 440              		.loc 1 124 21 is_stmt 1 view .LVU120
 125:Src/input.c   ****                     // printf("INPUT5\n");
 126:Src/input.c   ****                     break;
 441              		.loc 1 126 21 view .LVU121
 124:Src/input.c   ****                     // printf("INPUT5\n");
 442              		.loc 1 124 34 is_stmt 0 view .LVU122
 443 002e 0924     		movs	r4, #9
 444              		.loc 1 126 21 view .LVU123
 445 0030 02E0     		b	.L32
 446              	.LVL29:
 447              	.L33:
 127:Src/input.c   ****                 case IN6:
ARM GAS  C:\Users\behun\AppData\Local\Temp\ccPLZKpN.s 			page 12


 128:Src/input.c   ****                     currentState = IN6_ON;
 129:Src/input.c   ****                     // printf("INPUT6\n");
 130:Src/input.c   ****                 default:
 131:Src/input.c   ****                     currentState = NO_INPUT;
 448              		.loc 1 131 21 is_stmt 1 view .LVU124
 132:Src/input.c   ****                     break;
 449              		.loc 1 132 21 view .LVU125
 131:Src/input.c   ****                     break;
 450              		.loc 1 131 34 is_stmt 0 view .LVU126
 451 0032 0C46     		mov	r4, r1
 452              		.loc 1 132 21 view .LVU127
 453 0034 00E0     		b	.L32
 454              	.LVL30:
 455              	.L49:
 112:Src/input.c   ****                     // printf("INPUT2\n");
 456              		.loc 1 112 34 view .LVU128
 457 0036 0324     		movs	r4, #3
 458              	.LVL31:
 459              	.L32:
 133:Src/input.c   ****                 }
 134:Src/input.c   ****             }
 135:Src/input.c   ****             input.ext[input.name].waitRelease = 1;
 460              		.loc 1 135 13 is_stmt 1 view .LVU129
 461              		.loc 1 135 47 is_stmt 0 view .LVU130
 462 0038 234A     		ldr	r2, .L54
 463 003a 02EB8302 		add	r2, r2, r3, lsl #2
 464 003e 0121     		movs	r1, #1
 465 0040 D170     		strb	r1, [r2, #3]
 466 0042 21E0     		b	.L31
 467              	.L47:
 136:Src/input.c   ****         }
 137:Src/input.c   ****         if (input.ext[input.name].actived == IN_RELEASE)
 138:Src/input.c   ****         {
 139:Src/input.c   ****             if (input.ext[input.name].waitRelease == 1)
 140:Src/input.c   ****             {
 141:Src/input.c   ****                 switch (input.name)
 142:Src/input.c   ****                 {
 143:Src/input.c   ****                 case IN1:
 144:Src/input.c   ****                     currentState = IN1_OFF;
 468              		.loc 1 144 34 view .LVU131
 469 0044 0224     		movs	r4, #2
 470              	.LVL32:
 471              		.loc 1 144 34 view .LVU132
 472 0046 0AE0     		b	.L40
 473              	.LVL33:
 474              	.L46:
 145:Src/input.c   ****                     break;
 146:Src/input.c   ****                 case IN2:
 147:Src/input.c   ****                     currentState = IN2_OFF;
 148:Src/input.c   ****                     break;
 149:Src/input.c   ****                 case IN3:
 150:Src/input.c   ****                     currentState = IN3_OFF;
 475              		.loc 1 150 21 is_stmt 1 view .LVU133
 151:Src/input.c   ****                     break;
 476              		.loc 1 151 21 view .LVU134
 150:Src/input.c   ****                     break;
 477              		.loc 1 150 34 is_stmt 0 view .LVU135
ARM GAS  C:\Users\behun\AppData\Local\Temp\ccPLZKpN.s 			page 13


 478 0048 0624     		movs	r4, #6
 479              		.loc 1 151 21 view .LVU136
 480 004a 08E0     		b	.L40
 481              	.LVL34:
 482              	.L45:
 152:Src/input.c   ****                 case IN4:
 153:Src/input.c   ****                     currentState = IN4_OFF;
 483              		.loc 1 153 21 is_stmt 1 view .LVU137
 154:Src/input.c   ****                     break;
 484              		.loc 1 154 21 view .LVU138
 153:Src/input.c   ****                     break;
 485              		.loc 1 153 34 is_stmt 0 view .LVU139
 486 004c 0824     		movs	r4, #8
 487              		.loc 1 154 21 view .LVU140
 488 004e 06E0     		b	.L40
 489              	.LVL35:
 490              	.L44:
 155:Src/input.c   ****                 case IN5:
 156:Src/input.c   ****                     currentState = IN5_OFF;
 491              		.loc 1 156 21 is_stmt 1 view .LVU141
 157:Src/input.c   ****                     break;
 492              		.loc 1 157 21 view .LVU142
 156:Src/input.c   ****                     break;
 493              		.loc 1 156 34 is_stmt 0 view .LVU143
 494 0050 0A24     		movs	r4, #10
 495              		.loc 1 157 21 view .LVU144
 496 0052 04E0     		b	.L40
 497              	.LVL36:
 498              	.L42:
 158:Src/input.c   ****                 case IN6:
 159:Src/input.c   ****                     currentState = IN6_OFF;
 499              		.loc 1 159 21 is_stmt 1 view .LVU145
 160:Src/input.c   ****                     break;
 500              		.loc 1 160 21 view .LVU146
 159:Src/input.c   ****                     break;
 501              		.loc 1 159 34 is_stmt 0 view .LVU147
 502 0054 0C24     		movs	r4, #12
 503              		.loc 1 160 21 view .LVU148
 504 0056 02E0     		b	.L40
 505              	.LVL37:
 506              	.L41:
 161:Src/input.c   ****                 default:
 162:Src/input.c   ****                     currentState = NO_INPUT;
 507              		.loc 1 162 21 is_stmt 1 view .LVU149
 163:Src/input.c   ****                     break;
 508              		.loc 1 163 21 view .LVU150
 162:Src/input.c   ****                     break;
 509              		.loc 1 162 34 is_stmt 0 view .LVU151
 510 0058 1446     		mov	r4, r2
 511              		.loc 1 163 21 view .LVU152
 512 005a 00E0     		b	.L40
 513              	.LVL38:
 514              	.L50:
 147:Src/input.c   ****                     break;
 515              		.loc 1 147 34 view .LVU153
 516 005c 0424     		movs	r4, #4
 517              	.LVL39:
ARM GAS  C:\Users\behun\AppData\Local\Temp\ccPLZKpN.s 			page 14


 518              	.L40:
 164:Src/input.c   ****                 }
 165:Src/input.c   ****             }
 166:Src/input.c   ****             input.ext[input.name].waitRelease = 0;
 519              		.loc 1 166 13 is_stmt 1 view .LVU154
 520              		.loc 1 166 47 is_stmt 0 view .LVU155
 521 005e 1A4A     		ldr	r2, .L54
 522 0060 02EB8302 		add	r2, r2, r3, lsl #2
 523 0064 0021     		movs	r1, #0
 524 0066 D170     		strb	r1, [r2, #3]
 525              	.L39:
  97:Src/input.c   ****     {
 526              		.loc 1 97 60 discriminator 2 view .LVU156
 527 0068 0133     		adds	r3, r3, #1
 528 006a 174A     		ldr	r2, .L54
 529 006c 1370     		strb	r3, [r2]
 530              	.LVL40:
 531              	.L30:
  97:Src/input.c   ****     {
 532              		.loc 1 97 31 discriminator 1 view .LVU157
 533 006e 164B     		ldr	r3, .L54
 534 0070 1878     		ldrb	r0, [r3]	@ zero_extendqisi2
  97:Src/input.c   ****     {
 535              		.loc 1 97 5 discriminator 1 view .LVU158
 536 0072 0528     		cmp	r0, #5
 537 0074 26D8     		bhi	.L52
  99:Src/input.c   **** 
 538              		.loc 1 99 9 is_stmt 1 view .LVU159
 539 0076 FFF7FEFF 		bl	Input_Get
 540              	.LVL41:
 101:Src/input.c   ****         {
 541              		.loc 1 101 9 view .LVU160
 101:Src/input.c   ****         {
 542              		.loc 1 101 28 is_stmt 0 view .LVU161
 543 007a 134A     		ldr	r2, .L54
 544 007c 1378     		ldrb	r3, [r2]	@ zero_extendqisi2
 101:Src/input.c   ****         {
 545              		.loc 1 101 34 view .LVU162
 546 007e 02EB8302 		add	r2, r2, r3, lsl #2
 547 0082 5278     		ldrb	r2, [r2, #1]	@ zero_extendqisi2
 101:Src/input.c   ****         {
 548              		.loc 1 101 12 view .LVU163
 549 0084 012A     		cmp	r2, #1
 550 0086 C0D0     		beq	.L53
 551              	.L31:
 137:Src/input.c   ****         {
 552              		.loc 1 137 9 is_stmt 1 view .LVU164
 137:Src/input.c   ****         {
 553              		.loc 1 137 34 is_stmt 0 view .LVU165
 554 0088 0F4A     		ldr	r2, .L54
 555 008a 02EB8302 		add	r2, r2, r3, lsl #2
 556 008e 5278     		ldrb	r2, [r2, #1]	@ zero_extendqisi2
 137:Src/input.c   ****         {
 557              		.loc 1 137 12 view .LVU166
 558 0090 002A     		cmp	r2, #0
 559 0092 E9D1     		bne	.L39
 139:Src/input.c   ****             {
ARM GAS  C:\Users\behun\AppData\Local\Temp\ccPLZKpN.s 			page 15


 560              		.loc 1 139 13 is_stmt 1 view .LVU167
 139:Src/input.c   ****             {
 561              		.loc 1 139 38 is_stmt 0 view .LVU168
 562 0094 0C49     		ldr	r1, .L54
 563 0096 01EB8301 		add	r1, r1, r3, lsl #2
 564 009a C978     		ldrb	r1, [r1, #3]	@ zero_extendqisi2
 139:Src/input.c   ****             {
 565              		.loc 1 139 16 view .LVU169
 566 009c 0129     		cmp	r1, #1
 567 009e DED1     		bne	.L40
 141:Src/input.c   ****                 {
 568              		.loc 1 141 17 is_stmt 1 view .LVU170
 569 00a0 052B     		cmp	r3, #5
 570 00a2 D9D8     		bhi	.L41
 571 00a4 01A1     		adr	r1, .L43
 572 00a6 51F823F0 		ldr	pc, [r1, r3, lsl #2]
 573 00aa 00BF     		.p2align 2
 574              	.L43:
 575 00ac 45000000 		.word	.L47+1
 576 00b0 5D000000 		.word	.L50+1
 577 00b4 49000000 		.word	.L46+1
 578 00b8 4D000000 		.word	.L45+1
 579 00bc 51000000 		.word	.L44+1
 580 00c0 55000000 		.word	.L42+1
 581              		.p2align 1
 582              	.L52:
 167:Src/input.c   ****         }
 168:Src/input.c   ****     }
 169:Src/input.c   ****     return currentState;
 583              		.loc 1 169 5 view .LVU171
 170:Src/input.c   **** }
 584              		.loc 1 170 1 is_stmt 0 view .LVU172
 585 00c4 2046     		mov	r0, r4
 586 00c6 10BD     		pop	{r4, pc}
 587              	.LVL42:
 588              	.L55:
 589              		.loc 1 170 1 view .LVU173
 590              		.align	2
 591              	.L54:
 592 00c8 00000000 		.word	input
 593              		.cfi_endproc
 594              	.LFE68:
 596              		.section	.text.Input_Manage,"ax",%progbits
 597              		.align	1
 598              		.global	Input_Manage
 599              		.syntax unified
 600              		.thumb
 601              		.thumb_func
 602              		.fpu softvfp
 604              	Input_Manage:
 605              	.LFB69:
 171:Src/input.c   **** 
 172:Src/input.c   **** void Input_Manage(void)
 173:Src/input.c   **** {
 606              		.loc 1 173 1 is_stmt 1 view -0
 607              		.cfi_startproc
 608              		@ args = 0, pretend = 0, frame = 0
ARM GAS  C:\Users\behun\AppData\Local\Temp\ccPLZKpN.s 			page 16


 609              		@ frame_needed = 0, uses_anonymous_args = 0
 610 0000 08B5     		push	{r3, lr}
 611              	.LCFI5:
 612              		.cfi_def_cfa_offset 8
 613              		.cfi_offset 3, -8
 614              		.cfi_offset 14, -4
 174:Src/input.c   ****     if (HAL_GetTick() - input.tick > 1)
 615              		.loc 1 174 5 view .LVU175
 616              		.loc 1 174 9 is_stmt 0 view .LVU176
 617 0002 FFF7FEFF 		bl	HAL_GetTick
 618              	.LVL43:
 619              		.loc 1 174 30 view .LVU177
 620 0006 1D4B     		ldr	r3, .L68
 621 0008 DB69     		ldr	r3, [r3, #28]
 622              		.loc 1 174 23 view .LVU178
 623 000a C01A     		subs	r0, r0, r3
 624              		.loc 1 174 8 view .LVU179
 625 000c 0128     		cmp	r0, #1
 626 000e 00D8     		bhi	.L67
 627              	.L56:
 175:Src/input.c   ****     {
 176:Src/input.c   ****         switch (Input_Process())
 177:Src/input.c   ****         {
 178:Src/input.c   ****         case IN1_ON:
 179:Src/input.c   ****             toggle = 0;
 180:Src/input.c   ****             Info_Scr.Door_Lv0 = 1;
 181:Src/input.c   ****             // printf("IN1 ON\n");
 182:Src/input.c   ****             break;
 183:Src/input.c   ****         case IN2_ON:
 184:Src/input.c   ****         toggle =0;
 185:Src/input.c   ****             Info_Scr.Door_Lv1 = 1;
 186:Src/input.c   ****             // printf("IN2 ON\n");
 187:Src/input.c   ****             break;
 188:Src/input.c   ****         case IN3_ON:
 189:Src/input.c   ****         toggle =0;
 190:Src/input.c   ****             Info_Scr.Door_Lv2 = 1;
 191:Src/input.c   ****             // printf("IN3 ON\n");
 192:Src/input.c   ****             break;
 193:Src/input.c   ****         case IN4_ON:
 194:Src/input.c   ****             // printf("IN4 ON\n");
 195:Src/input.c   ****             break;
 196:Src/input.c   ****         case IN5_ON:
 197:Src/input.c   ****             // printf("IN5 ON\n");
 198:Src/input.c   ****             break;
 199:Src/input.c   ****         case IN6_ON:
 200:Src/input.c   ****             // printf("IN6 ON\n");
 201:Src/input.c   ****             break;
 202:Src/input.c   ****         case IN1_OFF:
 203:Src/input.c   ****         toggle =0;
 204:Src/input.c   ****             Info_Scr.Door_Lv0 = 0;
 205:Src/input.c   ****             // printf("IN1 OFF \n");
 206:Src/input.c   ****             break;
 207:Src/input.c   ****         case IN2_OFF:
 208:Src/input.c   ****         toggle =0;
 209:Src/input.c   ****             Info_Scr.Door_Lv1 = 0;
 210:Src/input.c   ****             // printf("IN2 OFF \n");
 211:Src/input.c   ****             break;
ARM GAS  C:\Users\behun\AppData\Local\Temp\ccPLZKpN.s 			page 17


 212:Src/input.c   ****         case IN3_OFF:
 213:Src/input.c   ****         toggle =0;
 214:Src/input.c   ****             Info_Scr.Door_Lv2 = 0;
 215:Src/input.c   ****             // printf("IN3 OFF \n");
 216:Src/input.c   ****             break;
 217:Src/input.c   ****         case IN4_OFF:
 218:Src/input.c   ****             // printf("IN4 OFF \n");
 219:Src/input.c   ****             break;
 220:Src/input.c   ****         case IN5_OFF:
 221:Src/input.c   ****             // printf("IN5 OFF \n");
 222:Src/input.c   ****             break;
 223:Src/input.c   ****         case IN6_OFF:
 224:Src/input.c   ****             // printf("IN6 OFF \n");
 225:Src/input.c   ****             break;
 226:Src/input.c   ****         default:
 227:Src/input.c   ****             break;
 228:Src/input.c   ****         }
 229:Src/input.c   ****         input.tick = HAL_GetTick();
 230:Src/input.c   ****     }
 231:Src/input.c   **** }...
 628              		.loc 1 231 1 view .LVU180
 629 0010 08BD     		pop	{r3, pc}
 630              	.L67:
 176:Src/input.c   ****         switch (Input_Process())
 631              		.loc 1 176 9 is_stmt 1 view .LVU181
 176:Src/input.c   ****         switch (Input_Process())
 632              		.loc 1 176 17 is_stmt 0 view .LVU182
 633 0012 FFF7FEFF 		bl	Input_Process
 634              	.LVL44:
 176:Src/input.c   ****         switch (Input_Process())
 635              		.loc 1 176 9 view .LVU183
 636 0016 0138     		subs	r0, r0, #1
 637 0018 0528     		cmp	r0, #5
 638 001a 0AD8     		bhi	.L58
 639 001c DFE800F0 		tbb	[pc, r0]
 640              	.L60:
 641 0020 03       		.byte	(.L65-.L60)/2
 642 0021 1C       		.byte	(.L64-.L60)/2
 643 0022 0E       		.byte	(.L63-.L60)/2
 644 0023 22       		.byte	(.L62-.L60)/2
 645 0024 15       		.byte	(.L61-.L60)/2
 646 0025 28       		.byte	(.L59-.L60)/2
 647              		.p2align 1
 648              	.L65:
 179:Src/input.c   ****             toggle = 0;
 649              		.loc 1 179 13 is_stmt 1 view .LVU184
 179:Src/input.c   ****             toggle = 0;
 650              		.loc 1 179 20 is_stmt 0 view .LVU185
 651 0026 164B     		ldr	r3, .L68+4
 652 0028 0022     		movs	r2, #0
 653 002a 1A70     		strb	r2, [r3]
 180:Src/input.c   ****             Info_Scr.Door_Lv0 = 1;
 654              		.loc 1 180 13 is_stmt 1 view .LVU186
 180:Src/input.c   ****             Info_Scr.Door_Lv0 = 1;
 655              		.loc 1 180 31 is_stmt 0 view .LVU187
 656 002c 154B     		ldr	r3, .L68+8
 657 002e 0122     		movs	r2, #1
ARM GAS  C:\Users\behun\AppData\Local\Temp\ccPLZKpN.s 			page 18


 658 0030 DA71     		strb	r2, [r3, #7]
 182:Src/input.c   ****             break;
 659              		.loc 1 182 13 is_stmt 1 view .LVU188
 660              	.L58:
 229:Src/input.c   ****         input.tick = HAL_GetTick();
 661              		.loc 1 229 9 view .LVU189
 229:Src/input.c   ****         input.tick = HAL_GetTick();
 662              		.loc 1 229 22 is_stmt 0 view .LVU190
 663 0032 FFF7FEFF 		bl	HAL_GetTick
 664              	.LVL45:
 229:Src/input.c   ****         input.tick = HAL_GetTick();
 665              		.loc 1 229 20 view .LVU191
 666 0036 114B     		ldr	r3, .L68
 667 0038 D861     		str	r0, [r3, #28]
 668              		.loc 1 231 1 view .LVU192
 669 003a E9E7     		b	.L56
 670              	.L63:
 184:Src/input.c   ****         toggle =0;
 671              		.loc 1 184 9 is_stmt 1 view .LVU193
 184:Src/input.c   ****         toggle =0;
 672              		.loc 1 184 16 is_stmt 0 view .LVU194
 673 003c 104B     		ldr	r3, .L68+4
 674 003e 0022     		movs	r2, #0
 675 0040 1A70     		strb	r2, [r3]
 185:Src/input.c   ****             Info_Scr.Door_Lv1 = 1;
 676              		.loc 1 185 13 is_stmt 1 view .LVU195
 185:Src/input.c   ****             Info_Scr.Door_Lv1 = 1;
 677              		.loc 1 185 31 is_stmt 0 view .LVU196
 678 0042 104B     		ldr	r3, .L68+8
 679 0044 0122     		movs	r2, #1
 680 0046 1A72     		strb	r2, [r3, #8]
 187:Src/input.c   ****             break;
 681              		.loc 1 187 13 is_stmt 1 view .LVU197
 682 0048 F3E7     		b	.L58
 683              	.L61:
 189:Src/input.c   ****         toggle =0;
 684              		.loc 1 189 9 view .LVU198
 189:Src/input.c   ****         toggle =0;
 685              		.loc 1 189 16 is_stmt 0 view .LVU199
 686 004a 0D4B     		ldr	r3, .L68+4
 687 004c 0022     		movs	r2, #0
 688 004e 1A70     		strb	r2, [r3]
 190:Src/input.c   ****             Info_Scr.Door_Lv2 = 1;
 689              		.loc 1 190 13 is_stmt 1 view .LVU200
 190:Src/input.c   ****             Info_Scr.Door_Lv2 = 1;
 690              		.loc 1 190 31 is_stmt 0 view .LVU201
 691 0050 0C4B     		ldr	r3, .L68+8
 692 0052 0122     		movs	r2, #1
 693 0054 5A72     		strb	r2, [r3, #9]
 192:Src/input.c   ****             break;
 694              		.loc 1 192 13 is_stmt 1 view .LVU202
 695 0056 ECE7     		b	.L58
 696              	.L64:
 203:Src/input.c   ****         toggle =0;
 697              		.loc 1 203 9 view .LVU203
 203:Src/input.c   ****         toggle =0;
 698              		.loc 1 203 16 is_stmt 0 view .LVU204
ARM GAS  C:\Users\behun\AppData\Local\Temp\ccPLZKpN.s 			page 19


 699 0058 0023     		movs	r3, #0
 700 005a 094A     		ldr	r2, .L68+4
 701 005c 1370     		strb	r3, [r2]
 204:Src/input.c   ****             Info_Scr.Door_Lv0 = 0;
 702              		.loc 1 204 13 is_stmt 1 view .LVU205
 204:Src/input.c   ****             Info_Scr.Door_Lv0 = 0;
 703              		.loc 1 204 31 is_stmt 0 view .LVU206
 704 005e 094A     		ldr	r2, .L68+8
 705 0060 D371     		strb	r3, [r2, #7]
 206:Src/input.c   ****             break;
 706              		.loc 1 206 13 is_stmt 1 view .LVU207
 707 0062 E6E7     		b	.L58
 708              	.L62:
 208:Src/input.c   ****         toggle =0;
 709              		.loc 1 208 9 view .LVU208
 208:Src/input.c   ****         toggle =0;
 710              		.loc 1 208 16 is_stmt 0 view .LVU209
 711 0064 0023     		movs	r3, #0
 712 0066 064A     		ldr	r2, .L68+4
 713 0068 1370     		strb	r3, [r2]
 209:Src/input.c   ****             Info_Scr.Door_Lv1 = 0;
 714              		.loc 1 209 13 is_stmt 1 view .LVU210
 209:Src/input.c   ****             Info_Scr.Door_Lv1 = 0;
 715              		.loc 1 209 31 is_stmt 0 view .LVU211
 716 006a 064A     		ldr	r2, .L68+8
 717 006c 1372     		strb	r3, [r2, #8]
 211:Src/input.c   ****             break;
 718              		.loc 1 211 13 is_stmt 1 view .LVU212
 719 006e E0E7     		b	.L58
 720              	.L59:
 213:Src/input.c   ****         toggle =0;
 721              		.loc 1 213 9 view .LVU213
 213:Src/input.c   ****         toggle =0;
 722              		.loc 1 213 16 is_stmt 0 view .LVU214
 723 0070 0023     		movs	r3, #0
 724 0072 034A     		ldr	r2, .L68+4
 725 0074 1370     		strb	r3, [r2]
 214:Src/input.c   ****             Info_Scr.Door_Lv2 = 0;
 726              		.loc 1 214 13 is_stmt 1 view .LVU215
 214:Src/input.c   ****             Info_Scr.Door_Lv2 = 0;
 727              		.loc 1 214 31 is_stmt 0 view .LVU216
 728 0076 034A     		ldr	r2, .L68+8
 729 0078 5372     		strb	r3, [r2, #9]
 216:Src/input.c   ****             break;
 730              		.loc 1 216 13 is_stmt 1 view .LVU217
 731 007a DAE7     		b	.L58
 732              	.L69:
 733              		.align	2
 734              	.L68:
 735 007c 00000000 		.word	input
 736 0080 00000000 		.word	toggle
 737 0084 00000000 		.word	Info_Scr
 738              		.cfi_endproc
 739              	.LFE69:
 741              		.comm	input,32,4
 742              		.comm	bmp_temp,8,4
 743              		.text
ARM GAS  C:\Users\behun\AppData\Local\Temp\ccPLZKpN.s 			page 20


 744              	.Letext0:
 745              		.file 2 "c:\\program files (x86)\\gnu tools arm embedded\\8 2019-q3-update\\arm-none-eabi\\include
 746              		.file 3 "c:\\program files (x86)\\gnu tools arm embedded\\8 2019-q3-update\\arm-none-eabi\\include
 747              		.file 4 "Drivers/CMSIS/Include/core_cm3.h"
 748              		.file 5 "Drivers/CMSIS/Device/ST/STM32F1xx/Include/system_stm32f1xx.h"
 749              		.file 6 "Drivers/CMSIS/Device/ST/STM32F1xx/Include/stm32f103xe.h"
 750              		.file 7 "c:\\program files (x86)\\gnu tools arm embedded\\8 2019-q3-update\\lib\\gcc\\arm-none-eab
 751              		.file 8 "c:\\program files (x86)\\gnu tools arm embedded\\8 2019-q3-update\\arm-none-eabi\\include
 752              		.file 9 "c:\\program files (x86)\\gnu tools arm embedded\\8 2019-q3-update\\arm-none-eabi\\include
 753              		.file 10 "c:\\program files (x86)\\gnu tools arm embedded\\8 2019-q3-update\\arm-none-eabi\\includ
 754              		.file 11 "Drivers/STM32F1xx_HAL_Driver/Inc/stm32f1xx_hal_gpio.h"
 755              		.file 12 "Drivers/STM32F1xx_HAL_Driver/Inc/stm32f1xx_hal.h"
 756              		.file 13 "Inc/input.h"
 757              		.file 14 "Inc/user_bitmap.h"
 758              		.file 15 "Inc/main_screen.h"
 759              		.file 16 "Inc/info_screen.h"
ARM GAS  C:\Users\behun\AppData\Local\Temp\ccPLZKpN.s 			page 21


DEFINED SYMBOLS
                            *ABS*:00000000 input.c
C:\Users\behun\AppData\Local\Temp\ccPLZKpN.s:16     .text.Input_Init:00000000 $t
C:\Users\behun\AppData\Local\Temp\ccPLZKpN.s:24     .text.Input_Init:00000000 Input_Init
C:\Users\behun\AppData\Local\Temp\ccPLZKpN.s:104    .text.Input_Init:00000048 $d
                            *COM*:00000020 input
C:\Users\behun\AppData\Local\Temp\ccPLZKpN.s:110    .text.Input_Get:00000000 $t
C:\Users\behun\AppData\Local\Temp\ccPLZKpN.s:117    .text.Input_Get:00000000 Input_Get
C:\Users\behun\AppData\Local\Temp\ccPLZKpN.s:137    .text.Input_Get:0000000c $d
C:\Users\behun\AppData\Local\Temp\ccPLZKpN.s:143    .text.Input_Get:00000012 $t
C:\Users\behun\AppData\Local\Temp\ccPLZKpN.s:363    .text.Input_Get:00000114 $d
C:\Users\behun\AppData\Local\Temp\ccPLZKpN.s:369    .text.Input_Process:00000000 $t
C:\Users\behun\AppData\Local\Temp\ccPLZKpN.s:376    .text.Input_Process:00000000 Input_Process
C:\Users\behun\AppData\Local\Temp\ccPLZKpN.s:410    .text.Input_Process:0000001c $d
C:\Users\behun\AppData\Local\Temp\ccPLZKpN.s:575    .text.Input_Process:000000ac $d
C:\Users\behun\AppData\Local\Temp\ccPLZKpN.s:581    .text.Input_Process:000000c4 $t
C:\Users\behun\AppData\Local\Temp\ccPLZKpN.s:592    .text.Input_Process:000000c8 $d
C:\Users\behun\AppData\Local\Temp\ccPLZKpN.s:597    .text.Input_Manage:00000000 $t
C:\Users\behun\AppData\Local\Temp\ccPLZKpN.s:604    .text.Input_Manage:00000000 Input_Manage
C:\Users\behun\AppData\Local\Temp\ccPLZKpN.s:641    .text.Input_Manage:00000020 $d
C:\Users\behun\AppData\Local\Temp\ccPLZKpN.s:647    .text.Input_Manage:00000026 $t
C:\Users\behun\AppData\Local\Temp\ccPLZKpN.s:735    .text.Input_Manage:0000007c $d
                            *COM*:00000008 bmp_temp
C:\Users\behun\AppData\Local\Temp\ccPLZKpN.s:415    .text.Input_Process:00000021 $d
C:\Users\behun\AppData\Local\Temp\ccPLZKpN.s:415    .text.Input_Process:00000022 $t

UNDEFINED SYMBOLS
HAL_GPIO_Init
HAL_GetTick
HAL_GPIO_ReadPin
toggle
Info_Scr
