ARM GAS  /var/folders/rk/zpr83dd14lx588t7kb0yv2b40000gn/T//cc5YIltn.s 			page 1


   1              		.cpu cortex-m3
   2              		.eabi_attribute 20, 1
   3              		.eabi_attribute 21, 1
   4              		.eabi_attribute 23, 3
   5              		.eabi_attribute 24, 1
   6              		.eabi_attribute 25, 1
   7              		.eabi_attribute 26, 1
   8              		.eabi_attribute 30, 1
   9              		.eabi_attribute 34, 1
  10              		.eabi_attribute 18, 4
  11              		.file	"input.c"
  12              		.text
  13              	.Ltext0:
  14              		.cfi_sections	.debug_frame
  15              		.section	.text.Input_Init,"ax",%progbits
  16              		.align	1
  17              		.global	Input_Init
  18              		.syntax unified
  19              		.thumb
  20              		.thumb_func
  21              		.fpu softvfp
  23              	Input_Init:
  24              	.LFB66:
  25              		.file 1 "Src/input.c"
   1:Src/input.c   **** #include "input.h"
   2:Src/input.c   **** #include "output.h"
   3:Src/input.c   **** #include "main_screen.h"
   4:Src/input.c   **** #include "info_screen.h"
   5:Src/input.c   **** #include "system.h"
   6:Src/input.c   **** 
   7:Src/input.c   **** INPUT_STRUCT input;
   8:Src/input.c   **** 
   9:Src/input.c   **** void Input_Init(void)
  10:Src/input.c   **** {
  26              		.loc 1 10 0
  27              		.cfi_startproc
  28              		@ args = 0, pretend = 0, frame = 16
  29              		@ frame_needed = 0, uses_anonymous_args = 0
  30 0000 10B5     		push	{r4, lr}
  31              	.LCFI0:
  32              		.cfi_def_cfa_offset 8
  33              		.cfi_offset 4, -8
  34              		.cfi_offset 14, -4
  35 0002 84B0     		sub	sp, sp, #16
  36              	.LCFI1:
  37              		.cfi_def_cfa_offset 24
  11:Src/input.c   ****     GPIO_InitTypeDef GPIO_InitStruct = {0};
  38              		.loc 1 11 0
  39 0004 0024     		movs	r4, #0
  40 0006 0194     		str	r4, [sp, #4]
  41 0008 0394     		str	r4, [sp, #12]
  12:Src/input.c   ****     GPIO_InitStruct.Pin = In1_Pin | In2_Pin | In3_Pin | In4_Pin | In5_Pin | In6_Pin;
  42              		.loc 1 12 0
  43 000a 3F23     		movs	r3, #63
  44 000c 0093     		str	r3, [sp]
  13:Src/input.c   ****     GPIO_InitStruct.Mode = GPIO_MODE_INPUT;
  14:Src/input.c   ****     GPIO_InitStruct.Pull = GPIO_PULLUP;
ARM GAS  /var/folders/rk/zpr83dd14lx588t7kb0yv2b40000gn/T//cc5YIltn.s 			page 2


  45              		.loc 1 14 0
  46 000e 0123     		movs	r3, #1
  47 0010 0293     		str	r3, [sp, #8]
  15:Src/input.c   ****     HAL_GPIO_Init(GPIOC, &GPIO_InitStruct);
  48              		.loc 1 15 0
  49 0012 6946     		mov	r1, sp
  50 0014 0C48     		ldr	r0, .L5
  51 0016 FFF7FEFF 		bl	HAL_GPIO_Init
  52              	.LVL0:
  16:Src/input.c   **** 
  17:Src/input.c   ****     for (input.name = 0; input.name < NUM_INPUT; input.name++)
  53              		.loc 1 17 0
  54 001a 0C4B     		ldr	r3, .L5+4
  55 001c 1C70     		strb	r4, [r3]
  56 001e 09E0     		b	.L2
  57              	.L3:
  18:Src/input.c   ****     {
  19:Src/input.c   ****         input.ext[input.name].active = input.ext[input.name].actived = IN_RELEASE;
  58              		.loc 1 19 0 discriminator 3
  59 0020 0A48     		ldr	r0, .L5+4
  60 0022 00EB8302 		add	r2, r0, r3, lsl #2
  61 0026 0021     		movs	r1, #0
  62 0028 5170     		strb	r1, [r2, #1]
  63 002a 9170     		strb	r1, [r2, #2]
  20:Src/input.c   ****         input.ext[input.name].waitRelease = 0;
  64              		.loc 1 20 0 discriminator 3
  65 002c D170     		strb	r1, [r2, #3]
  21:Src/input.c   ****         input.ext[input.name].cnt = 0;
  66              		.loc 1 21 0 discriminator 3
  67 002e 1171     		strb	r1, [r2, #4]
  17:Src/input.c   ****     {
  68              		.loc 1 17 0 discriminator 3
  69 0030 0133     		adds	r3, r3, #1
  70 0032 0370     		strb	r3, [r0]
  71              	.L2:
  17:Src/input.c   ****     {
  72              		.loc 1 17 0 is_stmt 0 discriminator 1
  73 0034 054B     		ldr	r3, .L5+4
  74 0036 1B78     		ldrb	r3, [r3]	@ zero_extendqisi2
  75 0038 052B     		cmp	r3, #5
  76 003a F1D9     		bls	.L3
  22:Src/input.c   ****     }
  23:Src/input.c   ****     input.tick = HAL_GetTick();
  77              		.loc 1 23 0 is_stmt 1
  78 003c FFF7FEFF 		bl	HAL_GetTick
  79              	.LVL1:
  80 0040 024B     		ldr	r3, .L5+4
  81 0042 D861     		str	r0, [r3, #28]
  24:Src/input.c   **** }
  82              		.loc 1 24 0
  83 0044 04B0     		add	sp, sp, #16
  84              	.LCFI2:
  85              		.cfi_def_cfa_offset 8
  86              		@ sp needed
  87 0046 10BD     		pop	{r4, pc}
  88              	.L6:
  89              		.align	2
ARM GAS  /var/folders/rk/zpr83dd14lx588t7kb0yv2b40000gn/T//cc5YIltn.s 			page 3


  90              	.L5:
  91 0048 00100140 		.word	1073811456
  92 004c 00000000 		.word	input
  93              		.cfi_endproc
  94              	.LFE66:
  96              		.section	.text.Input_Get,"ax",%progbits
  97              		.align	1
  98              		.global	Input_Get
  99              		.syntax unified
 100              		.thumb
 101              		.thumb_func
 102              		.fpu softvfp
 104              	Input_Get:
 105              	.LFB67:
  25:Src/input.c   **** 
  26:Src/input.c   **** void Input_Get(uint8_t port_id)
  27:Src/input.c   **** {
 106              		.loc 1 27 0
 107              		.cfi_startproc
 108              		@ args = 0, pretend = 0, frame = 0
 109              		@ frame_needed = 0, uses_anonymous_args = 0
 110              	.LVL2:
 111 0000 10B5     		push	{r4, lr}
 112              	.LCFI3:
 113              		.cfi_def_cfa_offset 8
 114              		.cfi_offset 4, -8
 115              		.cfi_offset 14, -4
 116 0002 0446     		mov	r4, r0
  28:Src/input.c   ****     uint16_t inputGet;
  29:Src/input.c   ****     switch (port_id)
 117              		.loc 1 29 0
 118 0004 0528     		cmp	r0, #5
 119 0006 0ED8     		bhi	.L8
 120 0008 DFE800F0 		tbb	[pc, r0]
 121              	.L10:
 122 000c 03       		.byte	(.L9-.L10)/2
 123 000d 24       		.byte	(.L11-.L10)/2
 124 000e 35       		.byte	(.L12-.L10)/2
 125 000f 46       		.byte	(.L13-.L10)/2
 126 0010 57       		.byte	(.L14-.L10)/2
 127 0011 68       		.byte	(.L15-.L10)/2
 128              		.p2align 1
 129              	.L9:
  30:Src/input.c   ****     {
  31:Src/input.c   ****     case 0:
  32:Src/input.c   ****         inputGet = In1();
 130              		.loc 1 32 0
 131 0012 0121     		movs	r1, #1
 132 0014 3F48     		ldr	r0, .L26
 133              	.LVL3:
 134 0016 FFF7FEFF 		bl	HAL_GPIO_ReadPin
 135              	.LVL4:
  33:Src/input.c   ****         if (inputGet == !In1_Pin)
 136              		.loc 1 33 0
 137 001a A8B9     		cbnz	r0, .L16
  34:Src/input.c   ****             input.ext[port_id].active = IN_ACTIVE;
 138              		.loc 1 34 0
ARM GAS  /var/folders/rk/zpr83dd14lx588t7kb0yv2b40000gn/T//cc5YIltn.s 			page 4


 139 001c 3E4B     		ldr	r3, .L26+4
 140 001e 03EB8403 		add	r3, r3, r4, lsl #2
 141 0022 0122     		movs	r2, #1
 142 0024 9A70     		strb	r2, [r3, #2]
 143              	.LVL5:
 144              	.L8:
  35:Src/input.c   ****         else
  36:Src/input.c   ****             input.ext[port_id].active = IN_RELEASE;
  37:Src/input.c   ****         break;
  38:Src/input.c   ****     case 1:
  39:Src/input.c   ****         inputGet = In2();
  40:Src/input.c   ****         if (inputGet == !In2_Pin)
  41:Src/input.c   ****             input.ext[port_id].active = IN_ACTIVE;
  42:Src/input.c   ****         else
  43:Src/input.c   ****             input.ext[port_id].active = IN_RELEASE;
  44:Src/input.c   ****         break;
  45:Src/input.c   ****     case 2:
  46:Src/input.c   ****         inputGet = In3();
  47:Src/input.c   ****         if (inputGet == !In3_Pin)
  48:Src/input.c   ****             input.ext[port_id].active = IN_ACTIVE;
  49:Src/input.c   ****         else
  50:Src/input.c   ****             input.ext[port_id].active = IN_RELEASE;
  51:Src/input.c   ****         break;
  52:Src/input.c   ****     case 3:
  53:Src/input.c   ****         inputGet = In4();
  54:Src/input.c   ****         if (inputGet == !In4_Pin)
  55:Src/input.c   ****             input.ext[port_id].active = IN_ACTIVE;
  56:Src/input.c   ****         else
  57:Src/input.c   ****             input.ext[port_id].active = IN_RELEASE;
  58:Src/input.c   ****         break;
  59:Src/input.c   ****     case 4:
  60:Src/input.c   ****         inputGet = In5();
  61:Src/input.c   ****         if (inputGet == !In5_Pin)
  62:Src/input.c   ****             input.ext[port_id].active = IN_ACTIVE;
  63:Src/input.c   ****         else
  64:Src/input.c   ****             input.ext[port_id].active = IN_RELEASE;
  65:Src/input.c   ****         break;
  66:Src/input.c   ****     case 5:
  67:Src/input.c   ****         inputGet = In6();
  68:Src/input.c   ****         if (inputGet == !In6_Pin)
  69:Src/input.c   ****             input.ext[port_id].active = IN_ACTIVE;
  70:Src/input.c   ****         else
  71:Src/input.c   ****             input.ext[port_id].active = IN_RELEASE;
  72:Src/input.c   ****         break;
  73:Src/input.c   ****     }
  74:Src/input.c   ****     if (input.ext[port_id].active != input.ext[port_id].actived)
 145              		.loc 1 74 0
 146 0026 3C4B     		ldr	r3, .L26+4
 147 0028 03EB8403 		add	r3, r3, r4, lsl #2
 148 002c 9A78     		ldrb	r2, [r3, #2]	@ zero_extendqisi2
 149 002e 5B78     		ldrb	r3, [r3, #1]	@ zero_extendqisi2
 150 0030 9A42     		cmp	r2, r3
 151 0032 69D0     		beq	.L22
  75:Src/input.c   ****     {
  76:Src/input.c   ****         ++(input.ext[port_id].cnt);
 152              		.loc 1 76 0
 153 0034 384A     		ldr	r2, .L26+4
ARM GAS  /var/folders/rk/zpr83dd14lx588t7kb0yv2b40000gn/T//cc5YIltn.s 			page 5


 154 0036 02EB8402 		add	r2, r2, r4, lsl #2
 155 003a 1379     		ldrb	r3, [r2, #4]	@ zero_extendqisi2
 156 003c 0133     		adds	r3, r3, #1
 157 003e DBB2     		uxtb	r3, r3
 158 0040 1371     		strb	r3, [r2, #4]
  77:Src/input.c   ****         if (input.ext[port_id].cnt == NUM_OF_SAMPLE_INPUT)
 159              		.loc 1 77 0
 160 0042 052B     		cmp	r3, #5
 161 0044 5BD0     		beq	.L25
 162              	.L7:
  78:Src/input.c   ****         {
  79:Src/input.c   ****             input.ext[port_id].actived = input.ext[port_id].active;
  80:Src/input.c   ****             input.ext[port_id].cnt = 0;
  81:Src/input.c   ****         }
  82:Src/input.c   ****     }
  83:Src/input.c   ****     else
  84:Src/input.c   ****     {
  85:Src/input.c   ****         input.ext[port_id].cnt = 0;
  86:Src/input.c   ****     }
  87:Src/input.c   **** }
 163              		.loc 1 87 0
 164 0046 10BD     		pop	{r4, pc}
 165              	.LVL6:
 166              	.L16:
  36:Src/input.c   ****         break;
 167              		.loc 1 36 0
 168 0048 334B     		ldr	r3, .L26+4
 169 004a 03EB8403 		add	r3, r3, r4, lsl #2
 170 004e 0022     		movs	r2, #0
 171 0050 9A70     		strb	r2, [r3, #2]
 172 0052 E8E7     		b	.L8
 173              	.LVL7:
 174              	.L11:
  39:Src/input.c   ****         if (inputGet == !In2_Pin)
 175              		.loc 1 39 0
 176 0054 0221     		movs	r1, #2
 177 0056 2F48     		ldr	r0, .L26
 178              	.LVL8:
 179 0058 FFF7FEFF 		bl	HAL_GPIO_ReadPin
 180              	.LVL9:
  40:Src/input.c   ****             input.ext[port_id].active = IN_ACTIVE;
 181              		.loc 1 40 0
 182 005c 28B9     		cbnz	r0, .L17
  41:Src/input.c   ****         else
 183              		.loc 1 41 0
 184 005e 2E4B     		ldr	r3, .L26+4
 185 0060 03EB8403 		add	r3, r3, r4, lsl #2
 186 0064 0122     		movs	r2, #1
 187 0066 9A70     		strb	r2, [r3, #2]
 188 0068 DDE7     		b	.L8
 189              	.L17:
  43:Src/input.c   ****         break;
 190              		.loc 1 43 0
 191 006a 2B4B     		ldr	r3, .L26+4
 192 006c 03EB8403 		add	r3, r3, r4, lsl #2
 193 0070 0022     		movs	r2, #0
 194 0072 9A70     		strb	r2, [r3, #2]
ARM GAS  /var/folders/rk/zpr83dd14lx588t7kb0yv2b40000gn/T//cc5YIltn.s 			page 6


 195 0074 D7E7     		b	.L8
 196              	.LVL10:
 197              	.L12:
  46:Src/input.c   ****         if (inputGet == !In3_Pin)
 198              		.loc 1 46 0
 199 0076 0421     		movs	r1, #4
 200 0078 2648     		ldr	r0, .L26
 201              	.LVL11:
 202 007a FFF7FEFF 		bl	HAL_GPIO_ReadPin
 203              	.LVL12:
  47:Src/input.c   ****             input.ext[port_id].active = IN_ACTIVE;
 204              		.loc 1 47 0
 205 007e 28B9     		cbnz	r0, .L18
  48:Src/input.c   ****         else
 206              		.loc 1 48 0
 207 0080 254B     		ldr	r3, .L26+4
 208 0082 03EB8403 		add	r3, r3, r4, lsl #2
 209 0086 0122     		movs	r2, #1
 210 0088 9A70     		strb	r2, [r3, #2]
 211 008a CCE7     		b	.L8
 212              	.L18:
  50:Src/input.c   ****         break;
 213              		.loc 1 50 0
 214 008c 224B     		ldr	r3, .L26+4
 215 008e 03EB8403 		add	r3, r3, r4, lsl #2
 216 0092 0022     		movs	r2, #0
 217 0094 9A70     		strb	r2, [r3, #2]
 218 0096 C6E7     		b	.L8
 219              	.LVL13:
 220              	.L13:
  53:Src/input.c   ****         if (inputGet == !In4_Pin)
 221              		.loc 1 53 0
 222 0098 0821     		movs	r1, #8
 223 009a 1E48     		ldr	r0, .L26
 224              	.LVL14:
 225 009c FFF7FEFF 		bl	HAL_GPIO_ReadPin
 226              	.LVL15:
  54:Src/input.c   ****             input.ext[port_id].active = IN_ACTIVE;
 227              		.loc 1 54 0
 228 00a0 28B9     		cbnz	r0, .L19
  55:Src/input.c   ****         else
 229              		.loc 1 55 0
 230 00a2 1D4B     		ldr	r3, .L26+4
 231 00a4 03EB8403 		add	r3, r3, r4, lsl #2
 232 00a8 0122     		movs	r2, #1
 233 00aa 9A70     		strb	r2, [r3, #2]
 234 00ac BBE7     		b	.L8
 235              	.L19:
  57:Src/input.c   ****         break;
 236              		.loc 1 57 0
 237 00ae 1A4B     		ldr	r3, .L26+4
 238 00b0 03EB8403 		add	r3, r3, r4, lsl #2
 239 00b4 0022     		movs	r2, #0
 240 00b6 9A70     		strb	r2, [r3, #2]
 241 00b8 B5E7     		b	.L8
 242              	.LVL16:
 243              	.L14:
ARM GAS  /var/folders/rk/zpr83dd14lx588t7kb0yv2b40000gn/T//cc5YIltn.s 			page 7


  60:Src/input.c   ****         if (inputGet == !In5_Pin)
 244              		.loc 1 60 0
 245 00ba 1021     		movs	r1, #16
 246 00bc 1548     		ldr	r0, .L26
 247              	.LVL17:
 248 00be FFF7FEFF 		bl	HAL_GPIO_ReadPin
 249              	.LVL18:
  61:Src/input.c   ****             input.ext[port_id].active = IN_ACTIVE;
 250              		.loc 1 61 0
 251 00c2 28B9     		cbnz	r0, .L20
  62:Src/input.c   ****         else
 252              		.loc 1 62 0
 253 00c4 144B     		ldr	r3, .L26+4
 254 00c6 03EB8403 		add	r3, r3, r4, lsl #2
 255 00ca 0122     		movs	r2, #1
 256 00cc 9A70     		strb	r2, [r3, #2]
 257 00ce AAE7     		b	.L8
 258              	.L20:
  64:Src/input.c   ****         break;
 259              		.loc 1 64 0
 260 00d0 114B     		ldr	r3, .L26+4
 261 00d2 03EB8403 		add	r3, r3, r4, lsl #2
 262 00d6 0022     		movs	r2, #0
 263 00d8 9A70     		strb	r2, [r3, #2]
 264 00da A4E7     		b	.L8
 265              	.LVL19:
 266              	.L15:
  67:Src/input.c   ****         if (inputGet == !In6_Pin)
 267              		.loc 1 67 0
 268 00dc 2021     		movs	r1, #32
 269 00de 0D48     		ldr	r0, .L26
 270              	.LVL20:
 271 00e0 FFF7FEFF 		bl	HAL_GPIO_ReadPin
 272              	.LVL21:
  68:Src/input.c   ****             input.ext[port_id].active = IN_ACTIVE;
 273              		.loc 1 68 0
 274 00e4 28B9     		cbnz	r0, .L21
  69:Src/input.c   ****         else
 275              		.loc 1 69 0
 276 00e6 0C4B     		ldr	r3, .L26+4
 277 00e8 03EB8403 		add	r3, r3, r4, lsl #2
 278 00ec 0122     		movs	r2, #1
 279 00ee 9A70     		strb	r2, [r3, #2]
 280 00f0 99E7     		b	.L8
 281              	.L21:
  71:Src/input.c   ****         break;
 282              		.loc 1 71 0
 283 00f2 094B     		ldr	r3, .L26+4
 284 00f4 03EB8403 		add	r3, r3, r4, lsl #2
 285 00f8 0022     		movs	r2, #0
 286 00fa 9A70     		strb	r2, [r3, #2]
 287 00fc 93E7     		b	.L8
 288              	.LVL22:
 289              	.L25:
  79:Src/input.c   ****             input.ext[port_id].cnt = 0;
 290              		.loc 1 79 0
 291 00fe 9378     		ldrb	r3, [r2, #2]	@ zero_extendqisi2
ARM GAS  /var/folders/rk/zpr83dd14lx588t7kb0yv2b40000gn/T//cc5YIltn.s 			page 8


 292 0100 5370     		strb	r3, [r2, #1]
  80:Src/input.c   ****         }
 293              		.loc 1 80 0
 294 0102 0023     		movs	r3, #0
 295 0104 1371     		strb	r3, [r2, #4]
 296 0106 9EE7     		b	.L7
 297              	.L22:
  85:Src/input.c   ****     }
 298              		.loc 1 85 0
 299 0108 034B     		ldr	r3, .L26+4
 300 010a 03EB8404 		add	r4, r3, r4, lsl #2
 301 010e 0023     		movs	r3, #0
 302 0110 2371     		strb	r3, [r4, #4]
 303              		.loc 1 87 0
 304 0112 98E7     		b	.L7
 305              	.L27:
 306              		.align	2
 307              	.L26:
 308 0114 00100140 		.word	1073811456
 309 0118 00000000 		.word	input
 310              		.cfi_endproc
 311              	.LFE67:
 313              		.section	.text.Input_Process,"ax",%progbits
 314              		.align	1
 315              		.global	Input_Process
 316              		.syntax unified
 317              		.thumb
 318              		.thumb_func
 319              		.fpu softvfp
 321              	Input_Process:
 322              	.LFB68:
  88:Src/input.c   **** 
  89:Src/input.c   **** // uint8_t KeyPress(uint8_t id)
  90:Src/input.c   **** // {
  91:Src/input.c   **** // 	return key.ext[id].pressed;
  92:Src/input.c   **** // }
  93:Src/input.c   **** 
  94:Src/input.c   **** uint8_t Input_Process(void)
  95:Src/input.c   **** {
 323              		.loc 1 95 0
 324              		.cfi_startproc
 325              		@ args = 0, pretend = 0, frame = 0
 326              		@ frame_needed = 0, uses_anonymous_args = 0
 327 0000 10B5     		push	{r4, lr}
 328              	.LCFI4:
 329              		.cfi_def_cfa_offset 8
 330              		.cfi_offset 4, -8
 331              		.cfi_offset 14, -4
 332              	.LVL23:
  96:Src/input.c   ****     uint8_t currentState = 0;
  97:Src/input.c   ****     for (input.name = 0; input.name < NUM_INPUT; input.name++)
 333              		.loc 1 97 0
 334 0002 0024     		movs	r4, #0
 335 0004 304B     		ldr	r3, .L53
 336 0006 1C70     		strb	r4, [r3]
 337 0008 31E0     		b	.L29
 338              	.LVL24:
ARM GAS  /var/folders/rk/zpr83dd14lx588t7kb0yv2b40000gn/T//cc5YIltn.s 			page 9


 339              	.L52:
  98:Src/input.c   ****     {
  99:Src/input.c   ****         Input_Get(input.name);
 100:Src/input.c   **** 
 101:Src/input.c   ****         if (input.ext[input.name].actived == IN_ACTIVE)
 102:Src/input.c   ****         {
 103:Src/input.c   ****             if (input.ext[input.name].waitRelease == 0)
 340              		.loc 1 103 0
 341 000a 2F49     		ldr	r1, .L53
 342 000c 01EB8301 		add	r1, r1, r3, lsl #2
 343 0010 C978     		ldrb	r1, [r1, #3]	@ zero_extendqisi2
 344 0012 89B9     		cbnz	r1, .L31
 104:Src/input.c   ****             {
 105:Src/input.c   ****                 switch (input.name)
 345              		.loc 1 105 0
 346 0014 042B     		cmp	r3, #4
 347 0016 0CD8     		bhi	.L32
 348 0018 DFE803F0 		tbb	[pc, r3]
 349              	.L34:
 350 001c 03       		.byte	(.L33-.L34)/2
 351 001d 0D       		.byte	(.L48-.L34)/2
 352 001e 05       		.byte	(.L35-.L34)/2
 353 001f 07       		.byte	(.L36-.L34)/2
 354 0020 09       		.byte	(.L37-.L34)/2
 355 0021 00       		.p2align 1
 356              	.L33:
 106:Src/input.c   ****                 {
 107:Src/input.c   ****                 case IN1:
 108:Src/input.c   ****                     currentState = IN1_ON;
 357              		.loc 1 108 0
 358 0022 1446     		mov	r4, r2
 359              	.LVL25:
 360 0024 08E0     		b	.L31
 361              	.LVL26:
 362              	.L35:
 109:Src/input.c   ****                     // printf("INPUT1\n");
 110:Src/input.c   ****                     break;
 111:Src/input.c   ****                 case IN2:
 112:Src/input.c   ****                     currentState = IN2_ON;
 113:Src/input.c   ****                     // printf("INPUT2\n");
 114:Src/input.c   ****                     break;
 115:Src/input.c   ****                 case IN3:
 116:Src/input.c   ****                     currentState = IN3_ON;
 363              		.loc 1 116 0
 364 0026 0524     		movs	r4, #5
 117:Src/input.c   ****                     // printf("INPUT3\n");
 118:Src/input.c   ****                     break;
 365              		.loc 1 118 0
 366 0028 06E0     		b	.L31
 367              	.LVL27:
 368              	.L36:
 119:Src/input.c   ****                 case IN4:
 120:Src/input.c   ****                     currentState = IN4_ON;
 369              		.loc 1 120 0
 370 002a 0724     		movs	r4, #7
 121:Src/input.c   ****                     //  printf("INPUT4\n");
 122:Src/input.c   ****                     break;
ARM GAS  /var/folders/rk/zpr83dd14lx588t7kb0yv2b40000gn/T//cc5YIltn.s 			page 10


 371              		.loc 1 122 0
 372 002c 04E0     		b	.L31
 373              	.LVL28:
 374              	.L37:
 123:Src/input.c   ****                 case IN5:
 124:Src/input.c   ****                     currentState = IN5_ON;
 375              		.loc 1 124 0
 376 002e 0924     		movs	r4, #9
 125:Src/input.c   ****                     // printf("INPUT5\n");
 126:Src/input.c   ****                     break;
 377              		.loc 1 126 0
 378 0030 02E0     		b	.L31
 379              	.LVL29:
 380              	.L32:
 127:Src/input.c   ****                 case IN6:
 128:Src/input.c   ****                     currentState = IN6_ON;
 129:Src/input.c   ****                     // printf("INPUT6\n");
 130:Src/input.c   ****                 default:
 131:Src/input.c   ****                     currentState = NO_INPUT;
 381              		.loc 1 131 0
 382 0032 0C46     		mov	r4, r1
 132:Src/input.c   ****                     break;
 383              		.loc 1 132 0
 384 0034 00E0     		b	.L31
 385              	.LVL30:
 386              	.L48:
 112:Src/input.c   ****                     // printf("INPUT2\n");
 387              		.loc 1 112 0
 388 0036 0324     		movs	r4, #3
 389              	.LVL31:
 390              	.L31:
 133:Src/input.c   ****                 }
 134:Src/input.c   ****             }
 135:Src/input.c   ****             input.ext[input.name].waitRelease = 1;
 391              		.loc 1 135 0
 392 0038 234A     		ldr	r2, .L53
 393 003a 02EB8302 		add	r2, r2, r3, lsl #2
 394 003e 0121     		movs	r1, #1
 395 0040 D170     		strb	r1, [r2, #3]
 396 0042 21E0     		b	.L30
 397              	.L41:
 136:Src/input.c   ****         }
 137:Src/input.c   ****         if (input.ext[input.name].actived == IN_RELEASE)
 138:Src/input.c   ****         {
 139:Src/input.c   ****             if (input.ext[input.name].waitRelease == 1)
 140:Src/input.c   ****             {
 141:Src/input.c   ****                 switch (input.name)
 142:Src/input.c   ****                 {
 143:Src/input.c   ****                 case IN1:
 144:Src/input.c   ****                     currentState = IN1_OFF;
 398              		.loc 1 144 0
 399 0044 0224     		movs	r4, #2
 400              	.LVL32:
 401 0046 0AE0     		b	.L39
 402              	.LVL33:
 403              	.L43:
 145:Src/input.c   ****                     break;
ARM GAS  /var/folders/rk/zpr83dd14lx588t7kb0yv2b40000gn/T//cc5YIltn.s 			page 11


 146:Src/input.c   ****                 case IN2:
 147:Src/input.c   ****                     currentState = IN2_OFF;
 148:Src/input.c   ****                     break;
 149:Src/input.c   ****                 case IN3:
 150:Src/input.c   ****                     currentState = IN3_OFF;
 404              		.loc 1 150 0
 405 0048 0624     		movs	r4, #6
 151:Src/input.c   ****                     break;
 406              		.loc 1 151 0
 407 004a 08E0     		b	.L39
 408              	.LVL34:
 409              	.L44:
 152:Src/input.c   ****                 case IN4:
 153:Src/input.c   ****                     currentState = IN4_OFF;
 410              		.loc 1 153 0
 411 004c 0824     		movs	r4, #8
 154:Src/input.c   ****                     break;
 412              		.loc 1 154 0
 413 004e 06E0     		b	.L39
 414              	.LVL35:
 415              	.L45:
 155:Src/input.c   ****                 case IN5:
 156:Src/input.c   ****                     currentState = IN5_OFF;
 416              		.loc 1 156 0
 417 0050 0A24     		movs	r4, #10
 157:Src/input.c   ****                     break;
 418              		.loc 1 157 0
 419 0052 04E0     		b	.L39
 420              	.LVL36:
 421              	.L46:
 158:Src/input.c   ****                 case IN6:
 159:Src/input.c   ****                     currentState = IN6_OFF;
 422              		.loc 1 159 0
 423 0054 0C24     		movs	r4, #12
 160:Src/input.c   ****                     break;
 424              		.loc 1 160 0
 425 0056 02E0     		b	.L39
 426              	.LVL37:
 427              	.L40:
 161:Src/input.c   ****                 default:
 162:Src/input.c   ****                     currentState = NO_INPUT;
 428              		.loc 1 162 0
 429 0058 1446     		mov	r4, r2
 163:Src/input.c   ****                     break;
 430              		.loc 1 163 0
 431 005a 00E0     		b	.L39
 432              	.LVL38:
 433              	.L49:
 147:Src/input.c   ****                     break;
 434              		.loc 1 147 0
 435 005c 0424     		movs	r4, #4
 436              	.LVL39:
 437              	.L39:
 164:Src/input.c   ****                 }
 165:Src/input.c   ****             }
 166:Src/input.c   ****             input.ext[input.name].waitRelease = 0;
 438              		.loc 1 166 0
ARM GAS  /var/folders/rk/zpr83dd14lx588t7kb0yv2b40000gn/T//cc5YIltn.s 			page 12


 439 005e 1A4A     		ldr	r2, .L53
 440 0060 02EB8302 		add	r2, r2, r3, lsl #2
 441 0064 0021     		movs	r1, #0
 442 0066 D170     		strb	r1, [r2, #3]
 443              	.L38:
  97:Src/input.c   ****     {
 444              		.loc 1 97 0 discriminator 2
 445 0068 0133     		adds	r3, r3, #1
 446 006a 174A     		ldr	r2, .L53
 447 006c 1370     		strb	r3, [r2]
 448              	.LVL40:
 449              	.L29:
  97:Src/input.c   ****     {
 450              		.loc 1 97 0 is_stmt 0 discriminator 1
 451 006e 164B     		ldr	r3, .L53
 452 0070 1878     		ldrb	r0, [r3]	@ zero_extendqisi2
 453 0072 0528     		cmp	r0, #5
 454 0074 26D8     		bhi	.L51
  99:Src/input.c   **** 
 455              		.loc 1 99 0 is_stmt 1
 456 0076 FFF7FEFF 		bl	Input_Get
 457              	.LVL41:
 101:Src/input.c   ****         {
 458              		.loc 1 101 0
 459 007a 134A     		ldr	r2, .L53
 460 007c 1378     		ldrb	r3, [r2]	@ zero_extendqisi2
 461 007e 02EB8302 		add	r2, r2, r3, lsl #2
 462 0082 5278     		ldrb	r2, [r2, #1]	@ zero_extendqisi2
 463 0084 012A     		cmp	r2, #1
 464 0086 C0D0     		beq	.L52
 465              	.L30:
 137:Src/input.c   ****         {
 466              		.loc 1 137 0
 467 0088 0F4A     		ldr	r2, .L53
 468 008a 02EB8302 		add	r2, r2, r3, lsl #2
 469 008e 5278     		ldrb	r2, [r2, #1]	@ zero_extendqisi2
 470 0090 002A     		cmp	r2, #0
 471 0092 E9D1     		bne	.L38
 139:Src/input.c   ****             {
 472              		.loc 1 139 0
 473 0094 0C49     		ldr	r1, .L53
 474 0096 01EB8301 		add	r1, r1, r3, lsl #2
 475 009a C978     		ldrb	r1, [r1, #3]	@ zero_extendqisi2
 476 009c 0129     		cmp	r1, #1
 477 009e DED1     		bne	.L39
 141:Src/input.c   ****                 {
 478              		.loc 1 141 0
 479 00a0 052B     		cmp	r3, #5
 480 00a2 D9D8     		bhi	.L40
 481 00a4 01A1     		adr	r1, .L42
 482 00a6 51F823F0 		ldr	pc, [r1, r3, lsl #2]
 483 00aa 00BF     		.p2align 2
 484              	.L42:
 485 00ac 45000000 		.word	.L41+1
 486 00b0 5D000000 		.word	.L49+1
 487 00b4 49000000 		.word	.L43+1
 488 00b8 4D000000 		.word	.L44+1
ARM GAS  /var/folders/rk/zpr83dd14lx588t7kb0yv2b40000gn/T//cc5YIltn.s 			page 13


 489 00bc 51000000 		.word	.L45+1
 490 00c0 55000000 		.word	.L46+1
 491              		.p2align 1
 492              	.L51:
 167:Src/input.c   ****         }
 168:Src/input.c   ****     }
 169:Src/input.c   ****     return currentState;
 170:Src/input.c   **** }
 493              		.loc 1 170 0
 494 00c4 2046     		mov	r0, r4
 495 00c6 10BD     		pop	{r4, pc}
 496              	.LVL42:
 497              	.L54:
 498              		.align	2
 499              	.L53:
 500 00c8 00000000 		.word	input
 501              		.cfi_endproc
 502              	.LFE68:
 504              		.section	.text.Input_Manage,"ax",%progbits
 505              		.align	1
 506              		.global	Input_Manage
 507              		.syntax unified
 508              		.thumb
 509              		.thumb_func
 510              		.fpu softvfp
 512              	Input_Manage:
 513              	.LFB69:
 171:Src/input.c   **** 
 172:Src/input.c   **** void Input_Manage(void)
 173:Src/input.c   **** {
 514              		.loc 1 173 0
 515              		.cfi_startproc
 516              		@ args = 0, pretend = 0, frame = 0
 517              		@ frame_needed = 0, uses_anonymous_args = 0
 518 0000 08B5     		push	{r3, lr}
 519              	.LCFI5:
 520              		.cfi_def_cfa_offset 8
 521              		.cfi_offset 3, -8
 522              		.cfi_offset 14, -4
 174:Src/input.c   ****     if (HAL_GetTick() - input.tick > 1)
 523              		.loc 1 174 0
 524 0002 FFF7FEFF 		bl	HAL_GetTick
 525              	.LVL43:
 526 0006 204B     		ldr	r3, .L66
 527 0008 DB69     		ldr	r3, [r3, #28]
 528 000a C01A     		subs	r0, r0, r3
 529 000c 0128     		cmp	r0, #1
 530 000e 13D9     		bls	.L55
 175:Src/input.c   ****     {
 176:Src/input.c   ****         switch (Input_Process())
 531              		.loc 1 176 0
 532 0010 FFF7FEFF 		bl	Input_Process
 533              	.LVL44:
 534 0014 0138     		subs	r0, r0, #1
 535 0016 0528     		cmp	r0, #5
 536 0018 0AD8     		bhi	.L57
 537 001a DFE800F0 		tbb	[pc, r0]
ARM GAS  /var/folders/rk/zpr83dd14lx588t7kb0yv2b40000gn/T//cc5YIltn.s 			page 14


 538              	.L59:
 539 001e 03       		.byte	(.L58-.L59)/2
 540 001f 1C       		.byte	(.L60-.L59)/2
 541 0020 0E       		.byte	(.L61-.L59)/2
 542 0021 24       		.byte	(.L62-.L59)/2
 543 0022 15       		.byte	(.L63-.L59)/2
 544 0023 2C       		.byte	(.L64-.L59)/2
 545              		.p2align 1
 546              	.L58:
 177:Src/input.c   ****         {
 178:Src/input.c   ****         case IN1_ON:
 179:Src/input.c   ****             toggle = TIME_PAGE;
 547              		.loc 1 179 0
 548 0024 194B     		ldr	r3, .L66+4
 549 0026 0F22     		movs	r2, #15
 550 0028 1A70     		strb	r2, [r3]
 180:Src/input.c   ****             dev.doorLevel = 1;
 551              		.loc 1 180 0
 552 002a 194B     		ldr	r3, .L66+8
 553 002c 0122     		movs	r2, #1
 554 002e 5A70     		strb	r2, [r3, #1]
 555              	.L57:
 181:Src/input.c   ****             break;
 182:Src/input.c   ****         case IN2_ON:
 183:Src/input.c   ****             toggle = TIME_PAGE;
 184:Src/input.c   ****             dev.doorLevel = 2;
 185:Src/input.c   ****             break;
 186:Src/input.c   ****         case IN3_ON:
 187:Src/input.c   ****             toggle = TIME_PAGE;
 188:Src/input.c   ****             dev.doorLevel = 3;
 189:Src/input.c   ****             break;
 190:Src/input.c   ****         case IN4_ON:
 191:Src/input.c   ****             // printf("IN4 ON\n");
 192:Src/input.c   ****             break;
 193:Src/input.c   ****         case IN5_ON:
 194:Src/input.c   ****             // printf("IN5 ON\n");
 195:Src/input.c   ****             break;
 196:Src/input.c   ****         case IN6_ON:
 197:Src/input.c   ****             // printf("IN6 ON\n");
 198:Src/input.c   ****             break;
 199:Src/input.c   ****         case IN1_OFF:
 200:Src/input.c   ****             dev.doorLevel--;
 201:Src/input.c   ****             toggle = TIME_PAGE;
 202:Src/input.c   ****             break;
 203:Src/input.c   ****         case IN2_OFF:
 204:Src/input.c   ****             dev.doorLevel--;
 205:Src/input.c   ****             toggle = TIME_PAGE;
 206:Src/input.c   ****             break;
 207:Src/input.c   ****         case IN3_OFF:
 208:Src/input.c   ****             dev.doorLevel--;
 209:Src/input.c   ****             toggle = TIME_PAGE;
 210:Src/input.c   ****             break;
 211:Src/input.c   ****         case IN4_OFF:
 212:Src/input.c   ****             break;
 213:Src/input.c   ****         case IN5_OFF:
 214:Src/input.c   ****             break;
 215:Src/input.c   ****         case IN6_OFF:
ARM GAS  /var/folders/rk/zpr83dd14lx588t7kb0yv2b40000gn/T//cc5YIltn.s 			page 15


 216:Src/input.c   ****             break;
 217:Src/input.c   ****         default:
 218:Src/input.c   ****             break;
 219:Src/input.c   ****         }
 220:Src/input.c   ****         input.tick = HAL_GetTick();
 556              		.loc 1 220 0
 557 0030 FFF7FEFF 		bl	HAL_GetTick
 558              	.LVL45:
 559 0034 144B     		ldr	r3, .L66
 560 0036 D861     		str	r0, [r3, #28]
 561              	.L55:
 221:Src/input.c   ****     }
 222:Src/input.c   **** }...
 562              		.loc 1 222 0
 563 0038 08BD     		pop	{r3, pc}
 564              	.L61:
 183:Src/input.c   ****             toggle = TIME_PAGE;
 565              		.loc 1 183 0
 566 003a 144B     		ldr	r3, .L66+4
 567 003c 0F22     		movs	r2, #15
 568 003e 1A70     		strb	r2, [r3]
 184:Src/input.c   ****             dev.doorLevel = 2;
 569              		.loc 1 184 0
 570 0040 134B     		ldr	r3, .L66+8
 571 0042 0222     		movs	r2, #2
 572 0044 5A70     		strb	r2, [r3, #1]
 185:Src/input.c   ****             break;
 573              		.loc 1 185 0
 574 0046 F3E7     		b	.L57
 575              	.L63:
 187:Src/input.c   ****             toggle = TIME_PAGE;
 576              		.loc 1 187 0
 577 0048 104B     		ldr	r3, .L66+4
 578 004a 0F22     		movs	r2, #15
 579 004c 1A70     		strb	r2, [r3]
 188:Src/input.c   ****             dev.doorLevel = 3;
 580              		.loc 1 188 0
 581 004e 104B     		ldr	r3, .L66+8
 582 0050 0322     		movs	r2, #3
 583 0052 5A70     		strb	r2, [r3, #1]
 189:Src/input.c   ****             break;
 584              		.loc 1 189 0
 585 0054 ECE7     		b	.L57
 586              	.L60:
 200:Src/input.c   ****             dev.doorLevel--;
 587              		.loc 1 200 0
 588 0056 0E4A     		ldr	r2, .L66+8
 589 0058 5378     		ldrb	r3, [r2, #1]	@ zero_extendqisi2
 590 005a 013B     		subs	r3, r3, #1
 591 005c 5370     		strb	r3, [r2, #1]
 201:Src/input.c   ****             toggle = TIME_PAGE;
 592              		.loc 1 201 0
 593 005e 0B4B     		ldr	r3, .L66+4
 594 0060 0F22     		movs	r2, #15
 595 0062 1A70     		strb	r2, [r3]
 202:Src/input.c   ****             break;
 596              		.loc 1 202 0
ARM GAS  /var/folders/rk/zpr83dd14lx588t7kb0yv2b40000gn/T//cc5YIltn.s 			page 16


 597 0064 E4E7     		b	.L57
 598              	.L62:
 204:Src/input.c   ****             dev.doorLevel--;
 599              		.loc 1 204 0
 600 0066 0A4A     		ldr	r2, .L66+8
 601 0068 5378     		ldrb	r3, [r2, #1]	@ zero_extendqisi2
 602 006a 013B     		subs	r3, r3, #1
 603 006c 5370     		strb	r3, [r2, #1]
 205:Src/input.c   ****             toggle = TIME_PAGE;
 604              		.loc 1 205 0
 605 006e 074B     		ldr	r3, .L66+4
 606 0070 0F22     		movs	r2, #15
 607 0072 1A70     		strb	r2, [r3]
 206:Src/input.c   ****             break;
 608              		.loc 1 206 0
 609 0074 DCE7     		b	.L57
 610              	.L64:
 208:Src/input.c   ****             dev.doorLevel--;
 611              		.loc 1 208 0
 612 0076 064A     		ldr	r2, .L66+8
 613 0078 5378     		ldrb	r3, [r2, #1]	@ zero_extendqisi2
 614 007a 013B     		subs	r3, r3, #1
 615 007c 5370     		strb	r3, [r2, #1]
 209:Src/input.c   ****             toggle = TIME_PAGE;
 616              		.loc 1 209 0
 617 007e 034B     		ldr	r3, .L66+4
 618 0080 0F22     		movs	r2, #15
 619 0082 1A70     		strb	r2, [r3]
 210:Src/input.c   ****             break;
 620              		.loc 1 210 0
 621 0084 D4E7     		b	.L57
 622              	.L67:
 623 0086 00BF     		.align	2
 624              	.L66:
 625 0088 00000000 		.word	input
 626 008c 00000000 		.word	toggle
 627 0090 00000000 		.word	dev
 628              		.cfi_endproc
 629              	.LFE69:
 631              		.comm	input,32,4
 632              		.comm	bmp_temp,8,4
 633              		.text
 634              	.Letext0:
 635              		.file 2 "/usr/local/gcc_arm/gcc-arm-none-eabi-7-2017-q4-major/arm-none-eabi/include/machine/_defau
 636              		.file 3 "/usr/local/gcc_arm/gcc-arm-none-eabi-7-2017-q4-major/arm-none-eabi/include/sys/_stdint.h"
 637              		.file 4 "Drivers/CMSIS/Include/core_cm3.h"
 638              		.file 5 "Drivers/CMSIS/Device/ST/STM32F1xx/Include/system_stm32f1xx.h"
 639              		.file 6 "Drivers/CMSIS/Device/ST/STM32F1xx/Include/stm32f103xe.h"
 640              		.file 7 "/usr/local/gcc_arm/gcc-arm-none-eabi-7-2017-q4-major/arm-none-eabi/include/sys/lock.h"
 641              		.file 8 "/usr/local/gcc_arm/gcc-arm-none-eabi-7-2017-q4-major/arm-none-eabi/include/sys/_types.h"
 642              		.file 9 "/usr/local/gcc_arm/gcc-arm-none-eabi-7-2017-q4-major/lib/gcc/arm-none-eabi/7.2.1/include/
 643              		.file 10 "/usr/local/gcc_arm/gcc-arm-none-eabi-7-2017-q4-major/arm-none-eabi/include/sys/reent.h"
 644              		.file 11 "Drivers/STM32F1xx_HAL_Driver/Inc/stm32f1xx_hal_def.h"
 645              		.file 12 "Drivers/STM32F1xx_HAL_Driver/Inc/stm32f1xx_hal_gpio.h"
 646              		.file 13 "Drivers/STM32F1xx_HAL_Driver/Inc/stm32f1xx_hal_rtc.h"
 647              		.file 14 "Drivers/STM32F1xx_HAL_Driver/Inc/stm32f1xx_hal.h"
 648              		.file 15 "u8g2/csrc/u8x8.h"
ARM GAS  /var/folders/rk/zpr83dd14lx588t7kb0yv2b40000gn/T//cc5YIltn.s 			page 17


 649              		.file 16 "u8g2/csrc/u8g2.h"
 650              		.file 17 "Inc/main.h"
 651              		.file 18 "Inc/input.h"
 652              		.file 19 "Inc/user_bitmap.h"
 653              		.file 20 "Inc/main_screen.h"
 654              		.file 21 "/usr/local/gcc_arm/gcc-arm-none-eabi-7-2017-q4-major/arm-none-eabi/include/time.h"
 655              		.file 22 "Inc/clock_rtc.h"
 656              		.file 23 "Inc/info_screen.h"
 657              		.file 24 "Inc/system.h"
ARM GAS  /var/folders/rk/zpr83dd14lx588t7kb0yv2b40000gn/T//cc5YIltn.s 			page 18

