ARM GAS  C:\Users\behun\AppData\Local\Temp\ccVALIvU.s 			page 1


   1              		.cpu cortex-m3
   2              		.eabi_attribute 20, 1
   3              		.eabi_attribute 21, 1
   4              		.eabi_attribute 23, 3
   5              		.eabi_attribute 24, 1
   6              		.eabi_attribute 25, 1
   7              		.eabi_attribute 26, 1
   8              		.eabi_attribute 30, 1
   9              		.eabi_attribute 34, 1
  10              		.eabi_attribute 18, 4
  11              		.file	"key.c"
  12              		.text
  13              	.Ltext0:
  14              		.cfi_sections	.debug_frame
  15              		.section	.text.KeyInit,"ax",%progbits
  16              		.align	1
  17              		.global	KeyInit
  18              		.arch armv7-m
  19              		.syntax unified
  20              		.thumb
  21              		.thumb_func
  22              		.fpu softvfp
  24              	KeyInit:
  25              	.LFB66:
  26              		.file 1 "Src/key.c"
   1:Src/key.c     **** #include "key.h"
   2:Src/key.c     **** #include "u8g2.h"
   3:Src/key.c     **** #include "main_screen.h"
   4:Src/key.c     **** #include "buzzer.h"
   5:Src/key.c     **** 
   6:Src/key.c     **** KEY_STRUCT key;
   7:Src/key.c     **** extern uint8_t toggle;
   8:Src/key.c     **** 
   9:Src/key.c     **** void KeyInit(void)
  10:Src/key.c     **** {
  27              		.loc 1 10 1 view -0
  28              		.cfi_startproc
  29              		@ args = 0, pretend = 0, frame = 24
  30              		@ frame_needed = 0, uses_anonymous_args = 0
  31 0000 10B5     		push	{r4, lr}
  32              	.LCFI0:
  33              		.cfi_def_cfa_offset 8
  34              		.cfi_offset 4, -8
  35              		.cfi_offset 14, -4
  36 0002 86B0     		sub	sp, sp, #24
  37              	.LCFI1:
  38              		.cfi_def_cfa_offset 32
  11:Src/key.c     **** 	GPIO_InitTypeDef GPIO_InitStruct = {0};
  39              		.loc 1 11 2 view .LVU1
  40              		.loc 1 11 19 is_stmt 0 view .LVU2
  41 0004 0024     		movs	r4, #0
  42 0006 0394     		str	r4, [sp, #12]
  43 0008 0494     		str	r4, [sp, #16]
  44 000a 0594     		str	r4, [sp, #20]
  12:Src/key.c     **** 
  13:Src/key.c     **** 	__HAL_RCC_GPIOC_CLK_ENABLE();
  45              		.loc 1 13 2 is_stmt 1 view .LVU3
ARM GAS  C:\Users\behun\AppData\Local\Temp\ccVALIvU.s 			page 2


  46              	.LBB2:
  47              		.loc 1 13 2 view .LVU4
  48              		.loc 1 13 2 view .LVU5
  49 000c 144B     		ldr	r3, .L6
  50 000e 9A69     		ldr	r2, [r3, #24]
  51 0010 42F01002 		orr	r2, r2, #16
  52 0014 9A61     		str	r2, [r3, #24]
  53              		.loc 1 13 2 view .LVU6
  54 0016 9B69     		ldr	r3, [r3, #24]
  55 0018 03F01003 		and	r3, r3, #16
  56 001c 0193     		str	r3, [sp, #4]
  57              		.loc 1 13 2 view .LVU7
  58 001e 019B     		ldr	r3, [sp, #4]
  59              	.LBE2:
  14:Src/key.c     **** 
  15:Src/key.c     **** 	/*Configure GPIO pins : PC13 PC10 PC11 PC12 */
  16:Src/key.c     **** 	GPIO_InitStruct.Pin = GPIO_PIN_13 | GPIO_PIN_10 | GPIO_PIN_11 | GPIO_PIN_12;
  60              		.loc 1 16 2 view .LVU8
  61              		.loc 1 16 22 is_stmt 0 view .LVU9
  62 0020 4FF47053 		mov	r3, #15360
  63 0024 0293     		str	r3, [sp, #8]
  17:Src/key.c     **** 	GPIO_InitStruct.Mode = GPIO_MODE_INPUT;
  64              		.loc 1 17 2 is_stmt 1 view .LVU10
  18:Src/key.c     **** 	GPIO_InitStruct.Pull = GPIO_PULLUP;
  65              		.loc 1 18 2 view .LVU11
  66              		.loc 1 18 23 is_stmt 0 view .LVU12
  67 0026 0123     		movs	r3, #1
  68 0028 0493     		str	r3, [sp, #16]
  19:Src/key.c     **** 	HAL_GPIO_Init(GPIOC, &GPIO_InitStruct);
  69              		.loc 1 19 2 is_stmt 1 view .LVU13
  70 002a 02A9     		add	r1, sp, #8
  71 002c 0D48     		ldr	r0, .L6+4
  72 002e FFF7FEFF 		bl	HAL_GPIO_Init
  73              	.LVL0:
  20:Src/key.c     **** 	for (key.name = 0; key.name < NUM_KEY; key.name++)
  74              		.loc 1 20 2 view .LVU14
  75              		.loc 1 20 16 is_stmt 0 view .LVU15
  76 0032 0D4B     		ldr	r3, .L6+8
  77 0034 1C70     		strb	r4, [r3]
  78              	.L2:
  79              		.loc 1 20 24 discriminator 1 view .LVU16
  80 0036 0C4B     		ldr	r3, .L6+8
  81 0038 1B78     		ldrb	r3, [r3]	@ zero_extendqisi2
  82              		.loc 1 20 2 discriminator 1 view .LVU17
  83 003a 032B     		cmp	r3, #3
  84 003c 0AD8     		bhi	.L5
  21:Src/key.c     **** 	{
  22:Src/key.c     **** 		key.ext[key.name].press = key.ext[key.name].pressed = KEY_RELEASE;
  85              		.loc 1 22 3 is_stmt 1 discriminator 3 view .LVU18
  86              		.loc 1 22 55 is_stmt 0 discriminator 3 view .LVU19
  87 003e 0A48     		ldr	r0, .L6+8
  88 0040 00EB8302 		add	r2, r0, r3, lsl #2
  89 0044 0021     		movs	r1, #0
  90 0046 5170     		strb	r1, [r2, #1]
  91              		.loc 1 22 27 discriminator 3 view .LVU20
  92 0048 9170     		strb	r1, [r2, #2]
  23:Src/key.c     **** 		key.ext[key.name].waitRelease = 0;
ARM GAS  C:\Users\behun\AppData\Local\Temp\ccVALIvU.s 			page 3


  93              		.loc 1 23 3 is_stmt 1 discriminator 3 view .LVU21
  94              		.loc 1 23 33 is_stmt 0 discriminator 3 view .LVU22
  95 004a D170     		strb	r1, [r2, #3]
  24:Src/key.c     **** 		key.ext[key.name].cnt = 0;
  96              		.loc 1 24 3 is_stmt 1 discriminator 3 view .LVU23
  97              		.loc 1 24 25 is_stmt 0 discriminator 3 view .LVU24
  98 004c 1171     		strb	r1, [r2, #4]
  20:Src/key.c     **** 	{
  99              		.loc 1 20 49 discriminator 3 view .LVU25
 100 004e 0133     		adds	r3, r3, #1
 101 0050 0370     		strb	r3, [r0]
 102 0052 F0E7     		b	.L2
 103              	.L5:
  25:Src/key.c     **** 	}
  26:Src/key.c     **** 	key.tick = HAL_GetTick();
 104              		.loc 1 26 2 is_stmt 1 view .LVU26
 105              		.loc 1 26 13 is_stmt 0 view .LVU27
 106 0054 FFF7FEFF 		bl	HAL_GetTick
 107              	.LVL1:
 108              		.loc 1 26 11 view .LVU28
 109 0058 034B     		ldr	r3, .L6+8
 110 005a 5861     		str	r0, [r3, #20]
  27:Src/key.c     **** }
 111              		.loc 1 27 1 view .LVU29
 112 005c 06B0     		add	sp, sp, #24
 113              	.LCFI2:
 114              		.cfi_def_cfa_offset 8
 115              		@ sp needed
 116 005e 10BD     		pop	{r4, pc}
 117              	.L7:
 118              		.align	2
 119              	.L6:
 120 0060 00100240 		.word	1073876992
 121 0064 00100140 		.word	1073811456
 122 0068 00000000 		.word	key
 123              		.cfi_endproc
 124              	.LFE66:
 126              		.section	.text.KeyGet,"ax",%progbits
 127              		.align	1
 128              		.global	KeyGet
 129              		.syntax unified
 130              		.thumb
 131              		.thumb_func
 132              		.fpu softvfp
 134              	KeyGet:
 135              	.LVL2:
 136              	.LFB67:
  28:Src/key.c     **** 
  29:Src/key.c     **** void KeyGet(uint8_t port_id)
  30:Src/key.c     **** {
 137              		.loc 1 30 1 is_stmt 1 view -0
 138              		.cfi_startproc
 139              		@ args = 0, pretend = 0, frame = 0
 140              		@ frame_needed = 0, uses_anonymous_args = 0
 141              		.loc 1 30 1 is_stmt 0 view .LVU31
 142 0000 10B5     		push	{r4, lr}
 143              	.LCFI3:
ARM GAS  C:\Users\behun\AppData\Local\Temp\ccVALIvU.s 			page 4


 144              		.cfi_def_cfa_offset 8
 145              		.cfi_offset 4, -8
 146              		.cfi_offset 14, -4
 147 0002 0446     		mov	r4, r0
  31:Src/key.c     **** 	uint16_t keyGet;
 148              		.loc 1 31 2 is_stmt 1 view .LVU32
  32:Src/key.c     **** 	switch (port_id)
 149              		.loc 1 32 2 view .LVU33
 150 0004 0328     		cmp	r0, #3
 151 0006 0ED8     		bhi	.L9
 152 0008 DFE800F0 		tbb	[pc, r0]
 153              	.L11:
 154 000c 02       		.byte	(.L14-.L11)/2
 155 000d 24       		.byte	(.L13-.L11)/2
 156 000e 36       		.byte	(.L12-.L11)/2
 157 000f 48       		.byte	(.L10-.L11)/2
 158              		.p2align 1
 159              	.L14:
  33:Src/key.c     **** 	{
  34:Src/key.c     **** 	case 0:
  35:Src/key.c     **** 		keyGet = key1_in;
 160              		.loc 1 35 3 view .LVU34
 161              		.loc 1 35 12 is_stmt 0 view .LVU35
 162 0010 4FF48061 		mov	r1, #1024
 163 0014 3048     		ldr	r0, .L23
 164              	.LVL3:
 165              		.loc 1 35 12 view .LVU36
 166 0016 FFF7FEFF 		bl	HAL_GPIO_ReadPin
 167              	.LVL4:
  36:Src/key.c     **** 		if (keyGet == !key1)
 168              		.loc 1 36 3 is_stmt 1 view .LVU37
 169              		.loc 1 36 6 is_stmt 0 view .LVU38
 170 001a A8B9     		cbnz	r0, .L15
  37:Src/key.c     **** 			key.ext[port_id].press = KEY_PRESS;
 171              		.loc 1 37 4 is_stmt 1 view .LVU39
 172              		.loc 1 37 27 is_stmt 0 view .LVU40
 173 001c 2F4B     		ldr	r3, .L23+4
 174 001e 03EB8403 		add	r3, r3, r4, lsl #2
 175 0022 0122     		movs	r2, #1
 176 0024 9A70     		strb	r2, [r3, #2]
 177              	.LVL5:
 178              	.L9:
  38:Src/key.c     **** 		else
  39:Src/key.c     **** 			key.ext[port_id].press = KEY_RELEASE;
  40:Src/key.c     **** 		break;
  41:Src/key.c     **** 	case 1:
  42:Src/key.c     **** 		keyGet = key2_in;
  43:Src/key.c     **** 		if (keyGet == !key2)
  44:Src/key.c     **** 			key.ext[port_id].press = KEY_PRESS;
  45:Src/key.c     **** 		else
  46:Src/key.c     **** 			key.ext[port_id].press = KEY_RELEASE;
  47:Src/key.c     **** 		break;
  48:Src/key.c     **** 	case 2:
  49:Src/key.c     **** 		keyGet = key3_in;
  50:Src/key.c     **** 		if (keyGet == !key3)
  51:Src/key.c     **** 			key.ext[port_id].press = KEY_PRESS;
  52:Src/key.c     **** 		else
ARM GAS  C:\Users\behun\AppData\Local\Temp\ccVALIvU.s 			page 5


  53:Src/key.c     **** 			key.ext[port_id].press = KEY_RELEASE;
  54:Src/key.c     **** 		break;
  55:Src/key.c     **** 	case 3:
  56:Src/key.c     **** 		keyGet = key4_in;
  57:Src/key.c     **** 		if (keyGet == !key4)
  58:Src/key.c     **** 			key.ext[port_id].press = KEY_PRESS;
  59:Src/key.c     **** 		else
  60:Src/key.c     **** 			key.ext[port_id].press = KEY_RELEASE;
  61:Src/key.c     **** 		break;
  62:Src/key.c     **** 	default:
  63:Src/key.c     **** 		break;
  64:Src/key.c     **** 	}
  65:Src/key.c     **** 	if (key.ext[port_id].press != key.ext[port_id].pressed)
 179              		.loc 1 65 2 is_stmt 1 view .LVU41
 180              		.loc 1 65 22 is_stmt 0 view .LVU42
 181 0026 2D4B     		ldr	r3, .L23+4
 182 0028 03EB8403 		add	r3, r3, r4, lsl #2
 183 002c 9A78     		ldrb	r2, [r3, #2]	@ zero_extendqisi2
 184              		.loc 1 65 48 view .LVU43
 185 002e 5B78     		ldrb	r3, [r3, #1]	@ zero_extendqisi2
 186              		.loc 1 65 5 view .LVU44
 187 0030 9A42     		cmp	r2, r3
 188 0032 4AD0     		beq	.L19
  66:Src/key.c     **** 	{
  67:Src/key.c     **** 		++(key.ext[port_id].cnt);
 189              		.loc 1 67 3 is_stmt 1 view .LVU45
 190              		.loc 1 67 22 is_stmt 0 view .LVU46
 191 0034 294A     		ldr	r2, .L23+4
 192 0036 02EB8402 		add	r2, r2, r4, lsl #2
 193 003a 1379     		ldrb	r3, [r2, #4]	@ zero_extendqisi2
 194              		.loc 1 67 3 view .LVU47
 195 003c 0133     		adds	r3, r3, #1
 196 003e DBB2     		uxtb	r3, r3
 197 0040 1371     		strb	r3, [r2, #4]
  68:Src/key.c     **** 		if (key.ext[port_id].cnt == NUM_OF_SAMPLE_KEY)
 198              		.loc 1 68 3 is_stmt 1 view .LVU48
 199              		.loc 1 68 6 is_stmt 0 view .LVU49
 200 0042 052B     		cmp	r3, #5
 201 0044 3CD0     		beq	.L22
 202              	.L8:
  69:Src/key.c     **** 		{
  70:Src/key.c     **** 			key.ext[port_id].pressed = key.ext[port_id].press;
  71:Src/key.c     **** 			key.ext[port_id].cnt = 0;
  72:Src/key.c     **** 		}
  73:Src/key.c     **** 	}
  74:Src/key.c     **** 	else
  75:Src/key.c     **** 	{
  76:Src/key.c     **** 		key.ext[port_id].cnt = 0;
  77:Src/key.c     **** 	}
  78:Src/key.c     **** }
 203              		.loc 1 78 1 view .LVU50
 204 0046 10BD     		pop	{r4, pc}
 205              	.LVL6:
 206              	.L15:
  39:Src/key.c     **** 		break;
 207              		.loc 1 39 4 is_stmt 1 view .LVU51
  39:Src/key.c     **** 		break;
ARM GAS  C:\Users\behun\AppData\Local\Temp\ccVALIvU.s 			page 6


 208              		.loc 1 39 27 is_stmt 0 view .LVU52
 209 0048 244B     		ldr	r3, .L23+4
 210 004a 03EB8403 		add	r3, r3, r4, lsl #2
 211 004e 0022     		movs	r2, #0
 212 0050 9A70     		strb	r2, [r3, #2]
 213 0052 E8E7     		b	.L9
 214              	.LVL7:
 215              	.L13:
  42:Src/key.c     **** 		if (keyGet == !key2)
 216              		.loc 1 42 3 is_stmt 1 view .LVU53
  42:Src/key.c     **** 		if (keyGet == !key2)
 217              		.loc 1 42 12 is_stmt 0 view .LVU54
 218 0054 4FF40061 		mov	r1, #2048
 219 0058 1F48     		ldr	r0, .L23
 220              	.LVL8:
  42:Src/key.c     **** 		if (keyGet == !key2)
 221              		.loc 1 42 12 view .LVU55
 222 005a FFF7FEFF 		bl	HAL_GPIO_ReadPin
 223              	.LVL9:
  43:Src/key.c     **** 			key.ext[port_id].press = KEY_PRESS;
 224              		.loc 1 43 3 is_stmt 1 view .LVU56
  43:Src/key.c     **** 			key.ext[port_id].press = KEY_PRESS;
 225              		.loc 1 43 6 is_stmt 0 view .LVU57
 226 005e 28B9     		cbnz	r0, .L16
  44:Src/key.c     **** 		else
 227              		.loc 1 44 4 is_stmt 1 view .LVU58
  44:Src/key.c     **** 		else
 228              		.loc 1 44 27 is_stmt 0 view .LVU59
 229 0060 1E4B     		ldr	r3, .L23+4
 230 0062 03EB8403 		add	r3, r3, r4, lsl #2
 231 0066 0122     		movs	r2, #1
 232 0068 9A70     		strb	r2, [r3, #2]
 233 006a DCE7     		b	.L9
 234              	.L16:
  46:Src/key.c     **** 		break;
 235              		.loc 1 46 4 is_stmt 1 view .LVU60
  46:Src/key.c     **** 		break;
 236              		.loc 1 46 27 is_stmt 0 view .LVU61
 237 006c 1B4B     		ldr	r3, .L23+4
 238 006e 03EB8403 		add	r3, r3, r4, lsl #2
 239 0072 0022     		movs	r2, #0
 240 0074 9A70     		strb	r2, [r3, #2]
 241 0076 D6E7     		b	.L9
 242              	.LVL10:
 243              	.L12:
  49:Src/key.c     **** 		if (keyGet == !key3)
 244              		.loc 1 49 3 is_stmt 1 view .LVU62
  49:Src/key.c     **** 		if (keyGet == !key3)
 245              		.loc 1 49 12 is_stmt 0 view .LVU63
 246 0078 4FF48051 		mov	r1, #4096
 247 007c 1648     		ldr	r0, .L23
 248              	.LVL11:
  49:Src/key.c     **** 		if (keyGet == !key3)
 249              		.loc 1 49 12 view .LVU64
 250 007e FFF7FEFF 		bl	HAL_GPIO_ReadPin
 251              	.LVL12:
  50:Src/key.c     **** 			key.ext[port_id].press = KEY_PRESS;
ARM GAS  C:\Users\behun\AppData\Local\Temp\ccVALIvU.s 			page 7


 252              		.loc 1 50 3 is_stmt 1 view .LVU65
  50:Src/key.c     **** 			key.ext[port_id].press = KEY_PRESS;
 253              		.loc 1 50 6 is_stmt 0 view .LVU66
 254 0082 28B9     		cbnz	r0, .L17
  51:Src/key.c     **** 		else
 255              		.loc 1 51 4 is_stmt 1 view .LVU67
  51:Src/key.c     **** 		else
 256              		.loc 1 51 27 is_stmt 0 view .LVU68
 257 0084 154B     		ldr	r3, .L23+4
 258 0086 03EB8403 		add	r3, r3, r4, lsl #2
 259 008a 0122     		movs	r2, #1
 260 008c 9A70     		strb	r2, [r3, #2]
 261 008e CAE7     		b	.L9
 262              	.L17:
  53:Src/key.c     **** 		break;
 263              		.loc 1 53 4 is_stmt 1 view .LVU69
  53:Src/key.c     **** 		break;
 264              		.loc 1 53 27 is_stmt 0 view .LVU70
 265 0090 124B     		ldr	r3, .L23+4
 266 0092 03EB8403 		add	r3, r3, r4, lsl #2
 267 0096 0022     		movs	r2, #0
 268 0098 9A70     		strb	r2, [r3, #2]
 269 009a C4E7     		b	.L9
 270              	.LVL13:
 271              	.L10:
  56:Src/key.c     **** 		if (keyGet == !key4)
 272              		.loc 1 56 3 is_stmt 1 view .LVU71
  56:Src/key.c     **** 		if (keyGet == !key4)
 273              		.loc 1 56 12 is_stmt 0 view .LVU72
 274 009c 4FF40051 		mov	r1, #8192
 275 00a0 0D48     		ldr	r0, .L23
 276              	.LVL14:
  56:Src/key.c     **** 		if (keyGet == !key4)
 277              		.loc 1 56 12 view .LVU73
 278 00a2 FFF7FEFF 		bl	HAL_GPIO_ReadPin
 279              	.LVL15:
  57:Src/key.c     **** 			key.ext[port_id].press = KEY_PRESS;
 280              		.loc 1 57 3 is_stmt 1 view .LVU74
  57:Src/key.c     **** 			key.ext[port_id].press = KEY_PRESS;
 281              		.loc 1 57 6 is_stmt 0 view .LVU75
 282 00a6 28B9     		cbnz	r0, .L18
  58:Src/key.c     **** 		else
 283              		.loc 1 58 4 is_stmt 1 view .LVU76
  58:Src/key.c     **** 		else
 284              		.loc 1 58 27 is_stmt 0 view .LVU77
 285 00a8 0C4B     		ldr	r3, .L23+4
 286 00aa 03EB8403 		add	r3, r3, r4, lsl #2
 287 00ae 0122     		movs	r2, #1
 288 00b0 9A70     		strb	r2, [r3, #2]
 289 00b2 B8E7     		b	.L9
 290              	.L18:
  60:Src/key.c     **** 		break;
 291              		.loc 1 60 4 is_stmt 1 view .LVU78
  60:Src/key.c     **** 		break;
 292              		.loc 1 60 27 is_stmt 0 view .LVU79
 293 00b4 094B     		ldr	r3, .L23+4
 294 00b6 03EB8403 		add	r3, r3, r4, lsl #2
ARM GAS  C:\Users\behun\AppData\Local\Temp\ccVALIvU.s 			page 8


 295 00ba 0022     		movs	r2, #0
 296 00bc 9A70     		strb	r2, [r3, #2]
 297 00be B2E7     		b	.L9
 298              	.LVL16:
 299              	.L22:
  70:Src/key.c     **** 			key.ext[port_id].cnt = 0;
 300              		.loc 1 70 4 is_stmt 1 view .LVU80
  70:Src/key.c     **** 			key.ext[port_id].cnt = 0;
 301              		.loc 1 70 47 is_stmt 0 view .LVU81
 302 00c0 9378     		ldrb	r3, [r2, #2]	@ zero_extendqisi2
  70:Src/key.c     **** 			key.ext[port_id].cnt = 0;
 303              		.loc 1 70 29 view .LVU82
 304 00c2 5370     		strb	r3, [r2, #1]
  71:Src/key.c     **** 		}
 305              		.loc 1 71 4 is_stmt 1 view .LVU83
  71:Src/key.c     **** 		}
 306              		.loc 1 71 25 is_stmt 0 view .LVU84
 307 00c4 0023     		movs	r3, #0
 308 00c6 1371     		strb	r3, [r2, #4]
 309 00c8 BDE7     		b	.L8
 310              	.L19:
  76:Src/key.c     **** 	}
 311              		.loc 1 76 3 is_stmt 1 view .LVU85
  76:Src/key.c     **** 	}
 312              		.loc 1 76 24 is_stmt 0 view .LVU86
 313 00ca 044B     		ldr	r3, .L23+4
 314 00cc 03EB8404 		add	r4, r3, r4, lsl #2
 315 00d0 0023     		movs	r3, #0
 316 00d2 2371     		strb	r3, [r4, #4]
 317              		.loc 1 78 1 view .LVU87
 318 00d4 B7E7     		b	.L8
 319              	.L24:
 320 00d6 00BF     		.align	2
 321              	.L23:
 322 00d8 00100140 		.word	1073811456
 323 00dc 00000000 		.word	key
 324              		.cfi_endproc
 325              	.LFE67:
 327              		.section	.text.KeyProcess,"ax",%progbits
 328              		.align	1
 329              		.global	KeyProcess
 330              		.syntax unified
 331              		.thumb
 332              		.thumb_func
 333              		.fpu softvfp
 335              	KeyProcess:
 336              	.LFB68:
  79:Src/key.c     **** 
  80:Src/key.c     **** BUTTON_ID KeyProcess(void)
  81:Src/key.c     **** {
 337              		.loc 1 81 1 is_stmt 1 view -0
 338              		.cfi_startproc
 339              		@ args = 0, pretend = 0, frame = 0
 340              		@ frame_needed = 0, uses_anonymous_args = 0
 341 0000 10B5     		push	{r4, lr}
 342              	.LCFI4:
 343              		.cfi_def_cfa_offset 8
ARM GAS  C:\Users\behun\AppData\Local\Temp\ccVALIvU.s 			page 9


 344              		.cfi_offset 4, -8
 345              		.cfi_offset 14, -4
  82:Src/key.c     **** 	uint8_t currentState = NONE;
 346              		.loc 1 82 2 view .LVU89
 347              	.LVL17:
  83:Src/key.c     **** 	for (key.name = 0; key.name < NUM_KEY; key.name++)
 348              		.loc 1 83 2 view .LVU90
 349              		.loc 1 83 16 is_stmt 0 view .LVU91
 350 0002 0024     		movs	r4, #0
 351 0004 1D4B     		ldr	r3, .L40
 352 0006 1C70     		strb	r4, [r3]
 353              		.loc 1 83 2 view .LVU92
 354 0008 1CE0     		b	.L26
 355              	.LVL18:
 356              	.L39:
  84:Src/key.c     **** 	{
  85:Src/key.c     **** 		KeyGet(key.name);
  86:Src/key.c     **** 
  87:Src/key.c     **** 		if (key.ext[key.name].pressed == KEY_PRESS)
  88:Src/key.c     **** 		{
  89:Src/key.c     **** 			if (key.ext[key.name].waitRelease == 0)
 357              		.loc 1 89 4 is_stmt 1 view .LVU93
 358              		.loc 1 89 25 is_stmt 0 view .LVU94
 359 000a 1C49     		ldr	r1, .L40
 360 000c 01EB8301 		add	r1, r1, r3, lsl #2
 361 0010 C978     		ldrb	r1, [r1, #3]	@ zero_extendqisi2
 362              		.loc 1 89 7 view .LVU95
 363 0012 71B9     		cbnz	r1, .L28
  90:Src/key.c     **** 			{
  91:Src/key.c     **** 				switch (key.name)
 364              		.loc 1 91 5 is_stmt 1 view .LVU96
 365 0014 032B     		cmp	r3, #3
 366 0016 09D8     		bhi	.L29
 367 0018 DFE803F0 		tbb	[pc, r3]
 368              	.L31:
 369 001c 02       		.byte	(.L33-.L31)/2
 370 001d 0A       		.byte	(.L36-.L31)/2
 371 001e 04       		.byte	(.L32-.L31)/2
 372 001f 06       		.byte	(.L30-.L31)/2
 373              		.p2align 1
 374              	.L33:
  92:Src/key.c     **** 				{
  93:Src/key.c     **** 				case KEY_NEON:
  94:Src/key.c     **** 					currentState = NEON;
 375              		.loc 1 94 19 is_stmt 0 view .LVU97
 376 0020 1446     		mov	r4, r2
 377              	.LVL19:
 378              		.loc 1 94 19 view .LVU98
 379 0022 06E0     		b	.L28
 380              	.LVL20:
 381              	.L32:
  95:Src/key.c     **** 					// printf("KEY NEON\n");
  96:Src/key.c     **** 					break;
  97:Src/key.c     **** 				case KEY_UV:
  98:Src/key.c     **** 					currentState = UV;
  99:Src/key.c     **** 					// printf("KEY UV\n");
 100:Src/key.c     **** 					break;
ARM GAS  C:\Users\behun\AppData\Local\Temp\ccVALIvU.s 			page 10


 101:Src/key.c     **** 				case KEY_FAN:
 102:Src/key.c     **** 					currentState = FAN;
 382              		.loc 1 102 6 is_stmt 1 view .LVU99
 103:Src/key.c     **** 					// printf("KEY FAN\n");
 104:Src/key.c     **** 					break;
 383              		.loc 1 104 6 view .LVU100
 102:Src/key.c     **** 					// printf("KEY FAN\n");
 384              		.loc 1 102 19 is_stmt 0 view .LVU101
 385 0024 0324     		movs	r4, #3
 386              		.loc 1 104 6 view .LVU102
 387 0026 04E0     		b	.L28
 388              	.LVL21:
 389              	.L30:
 105:Src/key.c     **** 				case KEY_SOCKET:
 106:Src/key.c     **** 					currentState = SOCKET;
 390              		.loc 1 106 6 is_stmt 1 view .LVU103
 107:Src/key.c     **** 					// printf("KEY SOCKET\n");
 108:Src/key.c     **** 					break;
 391              		.loc 1 108 6 view .LVU104
 106:Src/key.c     **** 					// printf("KEY SOCKET\n");
 392              		.loc 1 106 19 is_stmt 0 view .LVU105
 393 0028 0424     		movs	r4, #4
 394              		.loc 1 108 6 view .LVU106
 395 002a 02E0     		b	.L28
 396              	.LVL22:
 397              	.L29:
 109:Src/key.c     **** 				default:
 110:Src/key.c     **** 					currentState = NONE;
 398              		.loc 1 110 6 is_stmt 1 view .LVU107
 111:Src/key.c     **** 					break;
 399              		.loc 1 111 6 view .LVU108
 110:Src/key.c     **** 					break;
 400              		.loc 1 110 19 is_stmt 0 view .LVU109
 401 002c 0C46     		mov	r4, r1
 402              		.loc 1 111 6 view .LVU110
 403 002e 00E0     		b	.L28
 404              	.LVL23:
 405              	.L36:
  98:Src/key.c     **** 					// printf("KEY UV\n");
 406              		.loc 1 98 19 view .LVU111
 407 0030 0224     		movs	r4, #2
 408              	.LVL24:
 409              	.L28:
 112:Src/key.c     **** 				}
 113:Src/key.c     **** 			}
 114:Src/key.c     **** 			key.ext[key.name].waitRelease = 1;
 410              		.loc 1 114 4 is_stmt 1 view .LVU112
 411              		.loc 1 114 34 is_stmt 0 view .LVU113
 412 0032 124A     		ldr	r2, .L40
 413 0034 02EB8302 		add	r2, r2, r3, lsl #2
 414 0038 0121     		movs	r1, #1
 415 003a D170     		strb	r1, [r2, #3]
 416 003c 0FE0     		b	.L27
 417              	.L34:
  83:Src/key.c     **** 	{
 418              		.loc 1 83 49 discriminator 2 view .LVU114
 419 003e 0133     		adds	r3, r3, #1
ARM GAS  C:\Users\behun\AppData\Local\Temp\ccVALIvU.s 			page 11


 420 0040 0E4A     		ldr	r2, .L40
 421 0042 1370     		strb	r3, [r2]
 422              	.LVL25:
 423              	.L26:
  83:Src/key.c     **** 	{
 424              		.loc 1 83 24 discriminator 1 view .LVU115
 425 0044 0D4B     		ldr	r3, .L40
 426 0046 1878     		ldrb	r0, [r3]	@ zero_extendqisi2
  83:Src/key.c     **** 	{
 427              		.loc 1 83 2 discriminator 1 view .LVU116
 428 0048 0328     		cmp	r0, #3
 429 004a 14D8     		bhi	.L38
  85:Src/key.c     **** 
 430              		.loc 1 85 3 is_stmt 1 view .LVU117
 431 004c FFF7FEFF 		bl	KeyGet
 432              	.LVL26:
  87:Src/key.c     **** 		{
 433              		.loc 1 87 3 view .LVU118
  87:Src/key.c     **** 		{
 434              		.loc 1 87 18 is_stmt 0 view .LVU119
 435 0050 0A4A     		ldr	r2, .L40
 436 0052 1378     		ldrb	r3, [r2]	@ zero_extendqisi2
  87:Src/key.c     **** 		{
 437              		.loc 1 87 24 view .LVU120
 438 0054 02EB8302 		add	r2, r2, r3, lsl #2
 439 0058 5278     		ldrb	r2, [r2, #1]	@ zero_extendqisi2
  87:Src/key.c     **** 		{
 440              		.loc 1 87 6 view .LVU121
 441 005a 012A     		cmp	r2, #1
 442 005c D5D0     		beq	.L39
 443              	.L27:
 115:Src/key.c     **** 		}
 116:Src/key.c     **** 		if (key.ext[key.name].pressed == KEY_RELEASE)
 444              		.loc 1 116 3 is_stmt 1 view .LVU122
 445              		.loc 1 116 24 is_stmt 0 view .LVU123
 446 005e 074A     		ldr	r2, .L40
 447 0060 02EB8302 		add	r2, r2, r3, lsl #2
 448 0064 5278     		ldrb	r2, [r2, #1]	@ zero_extendqisi2
 449              		.loc 1 116 6 view .LVU124
 450 0066 002A     		cmp	r2, #0
 451 0068 E9D1     		bne	.L34
 117:Src/key.c     **** 		{
 118:Src/key.c     **** 			// if(key.ext[key.name].waitRelease == 1)
 119:Src/key.c     **** 			// {
 120:Src/key.c     **** 			// 	switch(key.name)
 121:Src/key.c     **** 			// 	{
 122:Src/key.c     **** 			// 		case KEY_NEON:
 123:Src/key.c     **** 			// 			//HD44780_Clear();
 124:Src/key.c     **** 			// 			HD44780_Puts(0,1,"MENU RELEASE");
 125:Src/key.c     **** 			// 			break;
 126:Src/key.c     **** 			// 		case KEY_UV:
 127:Src/key.c     **** 			// 			//HD44780_Clear();
 128:Src/key.c     **** 			// 			HD44780_Puts(0,1,"UP RELEASE");
 129:Src/key.c     **** 			// 			break;
 130:Src/key.c     **** 			// 		case KEY_FAN:
 131:Src/key.c     **** 			// 			//HD44780_Clear();
 132:Src/key.c     **** 			// 			HD44780_Puts(0,1,"DOWN RELEASE");
ARM GAS  C:\Users\behun\AppData\Local\Temp\ccVALIvU.s 			page 12


 133:Src/key.c     **** 			// 			break;
 134:Src/key.c     **** 			// 		case KEY_SOCKET:
 135:Src/key.c     **** 			// 			//HD44780_Clear();
 136:Src/key.c     **** 			// 			HD44780_Puts(0,1,"EXIT RELEASE");
 137:Src/key.c     **** 			// 			break;
 138:Src/key.c     **** 			// 	}
 139:Src/key.c     **** 			// }
 140:Src/key.c     **** 			key.ext[key.name].waitRelease = 0;
 452              		.loc 1 140 4 is_stmt 1 view .LVU125
 453              		.loc 1 140 34 is_stmt 0 view .LVU126
 454 006a 044A     		ldr	r2, .L40
 455 006c 02EB8302 		add	r2, r2, r3, lsl #2
 456 0070 0021     		movs	r1, #0
 457 0072 D170     		strb	r1, [r2, #3]
 458 0074 E3E7     		b	.L34
 459              	.L38:
 141:Src/key.c     **** 		}
 142:Src/key.c     **** 	}
 143:Src/key.c     **** 	return currentState;
 460              		.loc 1 143 2 is_stmt 1 view .LVU127
 144:Src/key.c     **** }
 461              		.loc 1 144 1 is_stmt 0 view .LVU128
 462 0076 2046     		mov	r0, r4
 463 0078 10BD     		pop	{r4, pc}
 464              	.LVL27:
 465              	.L41:
 466              		.loc 1 144 1 view .LVU129
 467 007a 00BF     		.align	2
 468              	.L40:
 469 007c 00000000 		.word	key
 470              		.cfi_endproc
 471              	.LFE68:
 473              		.section	.text.KeyManage,"ax",%progbits
 474              		.align	1
 475              		.global	KeyManage
 476              		.syntax unified
 477              		.thumb
 478              		.thumb_func
 479              		.fpu softvfp
 481              	KeyManage:
 482              	.LFB69:
 145:Src/key.c     **** 
 146:Src/key.c     **** void KeyManage(void)
 147:Src/key.c     **** {
 483              		.loc 1 147 1 is_stmt 1 view -0
 484              		.cfi_startproc
 485              		@ args = 0, pretend = 0, frame = 0
 486              		@ frame_needed = 0, uses_anonymous_args = 0
 487 0000 08B5     		push	{r3, lr}
 488              	.LCFI5:
 489              		.cfi_def_cfa_offset 8
 490              		.cfi_offset 3, -8
 491              		.cfi_offset 14, -4
 148:Src/key.c     **** 	if (HAL_GetTick() - key.tick > 1)
 492              		.loc 1 148 2 view .LVU131
 493              		.loc 1 148 6 is_stmt 0 view .LVU132
 494 0002 FFF7FEFF 		bl	HAL_GetTick
ARM GAS  C:\Users\behun\AppData\Local\Temp\ccVALIvU.s 			page 13


 495              	.LVL28:
 496              		.loc 1 148 25 view .LVU133
 497 0006 274B     		ldr	r3, .L53
 498 0008 5B69     		ldr	r3, [r3, #20]
 499              		.loc 1 148 20 view .LVU134
 500 000a C01A     		subs	r0, r0, r3
 501              		.loc 1 148 5 view .LVU135
 502 000c 0128     		cmp	r0, #1
 503 000e 00D8     		bhi	.L52
 504              	.L42:
 149:Src/key.c     **** 	{
 150:Src/key.c     **** 		switch (KeyProcess())
 151:Src/key.c     **** 		{
 152:Src/key.c     **** 		case NEON:
 153:Src/key.c     **** 			toggle = 1;
 154:Src/key.c     **** 			main_scr.lampStatus = ~main_scr.lampStatus;
 155:Src/key.c     **** 			BUZZER_ON();
 156:Src/key.c     **** 			break;
 157:Src/key.c     **** 		case UV:
 158:Src/key.c     **** 			toggle = 1;
 159:Src/key.c     **** 			main_scr.uvStatus = ~main_scr.uvStatus;
 160:Src/key.c     **** 			BUZZER_ON();
 161:Src/key.c     **** 			break;
 162:Src/key.c     **** 		case FAN:
 163:Src/key.c     **** 			toggle = 1;
 164:Src/key.c     **** 			main_scr.fanStatus = ~main_scr.fanStatus;
 165:Src/key.c     **** 			BUZZER_ON();
 166:Src/key.c     **** 			break;
 167:Src/key.c     **** 		case SOCKET:
 168:Src/key.c     **** 			toggle = 1;
 169:Src/key.c     **** 			main_scr.socketStatus = ~main_scr.socketStatus;
 170:Src/key.c     **** 			BUZZER_ON();
 171:Src/key.c     **** 			break;
 172:Src/key.c     **** 		default:
 173:Src/key.c     **** 			BUZZER_OFF();
 174:Src/key.c     **** 			break;
 175:Src/key.c     **** 		}
 176:Src/key.c     **** 		key.tick = HAL_GetTick();
 177:Src/key.c     **** 	}
 178:Src/key.c     **** }...
 505              		.loc 1 178 1 view .LVU136
 506 0010 08BD     		pop	{r3, pc}
 507              	.L52:
 150:Src/key.c     **** 		switch (KeyProcess())
 508              		.loc 1 150 3 is_stmt 1 view .LVU137
 150:Src/key.c     **** 		switch (KeyProcess())
 509              		.loc 1 150 11 is_stmt 0 view .LVU138
 510 0012 FFF7FEFF 		bl	KeyProcess
 511              	.LVL29:
 150:Src/key.c     **** 		switch (KeyProcess())
 512              		.loc 1 150 3 view .LVU139
 513 0016 0138     		subs	r0, r0, #1
 514 0018 0328     		cmp	r0, #3
 515 001a 3BD8     		bhi	.L44
 516 001c DFE800F0 		tbb	[pc, r0]
 517              	.L46:
 518 0020 02       		.byte	(.L49-.L46)/2
ARM GAS  C:\Users\behun\AppData\Local\Temp\ccVALIvU.s 			page 14


 519 0021 13       		.byte	(.L48-.L46)/2
 520 0022 20       		.byte	(.L47-.L46)/2
 521 0023 2D       		.byte	(.L45-.L46)/2
 522              		.p2align 1
 523              	.L49:
 153:Src/key.c     **** 			toggle = 1;
 524              		.loc 1 153 4 is_stmt 1 view .LVU140
 153:Src/key.c     **** 			toggle = 1;
 525              		.loc 1 153 11 is_stmt 0 view .LVU141
 526 0024 0122     		movs	r2, #1
 527 0026 204B     		ldr	r3, .L53+4
 528 0028 1A70     		strb	r2, [r3]
 154:Src/key.c     **** 			main_scr.lampStatus = ~main_scr.lampStatus;
 529              		.loc 1 154 4 is_stmt 1 view .LVU142
 154:Src/key.c     **** 			main_scr.lampStatus = ~main_scr.lampStatus;
 530              		.loc 1 154 35 is_stmt 0 view .LVU143
 531 002a 2049     		ldr	r1, .L53+8
 532 002c 0B78     		ldrb	r3, [r1]	@ zero_extendqisi2
 154:Src/key.c     **** 			main_scr.lampStatus = ~main_scr.lampStatus;
 533              		.loc 1 154 24 view .LVU144
 534 002e DB43     		mvns	r3, r3
 535 0030 0B70     		strb	r3, [r1]
 155:Src/key.c     **** 			BUZZER_ON();
 536              		.loc 1 155 4 is_stmt 1 view .LVU145
 537 0032 4FF48071 		mov	r1, #256
 538 0036 1E48     		ldr	r0, .L53+12
 539 0038 FFF7FEFF 		bl	HAL_GPIO_WritePin
 540              	.LVL30:
 156:Src/key.c     **** 			break;
 541              		.loc 1 156 4 view .LVU146
 542              	.L50:
 176:Src/key.c     **** 		key.tick = HAL_GetTick();
 543              		.loc 1 176 3 view .LVU147
 176:Src/key.c     **** 		key.tick = HAL_GetTick();
 544              		.loc 1 176 14 is_stmt 0 view .LVU148
 545 003c FFF7FEFF 		bl	HAL_GetTick
 546              	.LVL31:
 176:Src/key.c     **** 		key.tick = HAL_GetTick();
 547              		.loc 1 176 12 view .LVU149
 548 0040 184B     		ldr	r3, .L53
 549 0042 5861     		str	r0, [r3, #20]
 550              		.loc 1 178 1 view .LVU150
 551 0044 E4E7     		b	.L42
 552              	.L48:
 158:Src/key.c     **** 			toggle = 1;
 553              		.loc 1 158 4 is_stmt 1 view .LVU151
 158:Src/key.c     **** 			toggle = 1;
 554              		.loc 1 158 11 is_stmt 0 view .LVU152
 555 0046 0122     		movs	r2, #1
 556 0048 174B     		ldr	r3, .L53+4
 557 004a 1A70     		strb	r2, [r3]
 159:Src/key.c     **** 			main_scr.uvStatus = ~main_scr.uvStatus;
 558              		.loc 1 159 4 is_stmt 1 view .LVU153
 159:Src/key.c     **** 			main_scr.uvStatus = ~main_scr.uvStatus;
 559              		.loc 1 159 33 is_stmt 0 view .LVU154
 560 004c 1749     		ldr	r1, .L53+8
 561 004e 4B78     		ldrb	r3, [r1, #1]	@ zero_extendqisi2
ARM GAS  C:\Users\behun\AppData\Local\Temp\ccVALIvU.s 			page 15


 159:Src/key.c     **** 			main_scr.uvStatus = ~main_scr.uvStatus;
 562              		.loc 1 159 22 view .LVU155
 563 0050 DB43     		mvns	r3, r3
 564 0052 4B70     		strb	r3, [r1, #1]
 160:Src/key.c     **** 			BUZZER_ON();
 565              		.loc 1 160 4 is_stmt 1 view .LVU156
 566 0054 4FF48071 		mov	r1, #256
 567 0058 1548     		ldr	r0, .L53+12
 568 005a FFF7FEFF 		bl	HAL_GPIO_WritePin
 569              	.LVL32:
 161:Src/key.c     **** 			break;
 570              		.loc 1 161 4 view .LVU157
 571 005e EDE7     		b	.L50
 572              	.L47:
 163:Src/key.c     **** 			toggle = 1;
 573              		.loc 1 163 4 view .LVU158
 163:Src/key.c     **** 			toggle = 1;
 574              		.loc 1 163 11 is_stmt 0 view .LVU159
 575 0060 0122     		movs	r2, #1
 576 0062 114B     		ldr	r3, .L53+4
 577 0064 1A70     		strb	r2, [r3]
 164:Src/key.c     **** 			main_scr.fanStatus = ~main_scr.fanStatus;
 578              		.loc 1 164 4 is_stmt 1 view .LVU160
 164:Src/key.c     **** 			main_scr.fanStatus = ~main_scr.fanStatus;
 579              		.loc 1 164 34 is_stmt 0 view .LVU161
 580 0066 1149     		ldr	r1, .L53+8
 581 0068 8B78     		ldrb	r3, [r1, #2]	@ zero_extendqisi2
 164:Src/key.c     **** 			main_scr.fanStatus = ~main_scr.fanStatus;
 582              		.loc 1 164 23 view .LVU162
 583 006a DB43     		mvns	r3, r3
 584 006c 8B70     		strb	r3, [r1, #2]
 165:Src/key.c     **** 			BUZZER_ON();
 585              		.loc 1 165 4 is_stmt 1 view .LVU163
 586 006e 4FF48071 		mov	r1, #256
 587 0072 0F48     		ldr	r0, .L53+12
 588 0074 FFF7FEFF 		bl	HAL_GPIO_WritePin
 589              	.LVL33:
 166:Src/key.c     **** 			break;
 590              		.loc 1 166 4 view .LVU164
 591 0078 E0E7     		b	.L50
 592              	.L45:
 168:Src/key.c     **** 			toggle = 1;
 593              		.loc 1 168 4 view .LVU165
 168:Src/key.c     **** 			toggle = 1;
 594              		.loc 1 168 11 is_stmt 0 view .LVU166
 595 007a 0122     		movs	r2, #1
 596 007c 0A4B     		ldr	r3, .L53+4
 597 007e 1A70     		strb	r2, [r3]
 169:Src/key.c     **** 			main_scr.socketStatus = ~main_scr.socketStatus;
 598              		.loc 1 169 4 is_stmt 1 view .LVU167
 169:Src/key.c     **** 			main_scr.socketStatus = ~main_scr.socketStatus;
 599              		.loc 1 169 37 is_stmt 0 view .LVU168
 600 0080 0A49     		ldr	r1, .L53+8
 601 0082 CB78     		ldrb	r3, [r1, #3]	@ zero_extendqisi2
 169:Src/key.c     **** 			main_scr.socketStatus = ~main_scr.socketStatus;
 602              		.loc 1 169 26 view .LVU169
 603 0084 DB43     		mvns	r3, r3
ARM GAS  C:\Users\behun\AppData\Local\Temp\ccVALIvU.s 			page 16


 604 0086 CB70     		strb	r3, [r1, #3]
 170:Src/key.c     **** 			BUZZER_ON();
 605              		.loc 1 170 4 is_stmt 1 view .LVU170
 606 0088 4FF48071 		mov	r1, #256
 607 008c 0848     		ldr	r0, .L53+12
 608 008e FFF7FEFF 		bl	HAL_GPIO_WritePin
 609              	.LVL34:
 171:Src/key.c     **** 			break;
 610              		.loc 1 171 4 view .LVU171
 611 0092 D3E7     		b	.L50
 612              	.L44:
 173:Src/key.c     **** 			BUZZER_OFF();
 613              		.loc 1 173 4 view .LVU172
 614 0094 0022     		movs	r2, #0
 615 0096 4FF48071 		mov	r1, #256
 616 009a 0548     		ldr	r0, .L53+12
 617 009c FFF7FEFF 		bl	HAL_GPIO_WritePin
 618              	.LVL35:
 174:Src/key.c     **** 			break;
 619              		.loc 1 174 4 view .LVU173
 620 00a0 CCE7     		b	.L50
 621              	.L54:
 622 00a2 00BF     		.align	2
 623              	.L53:
 624 00a4 00000000 		.word	key
 625 00a8 00000000 		.word	toggle
 626 00ac 00000000 		.word	main_scr
 627 00b0 000C0140 		.word	1073810432
 628              		.cfi_endproc
 629              	.LFE69:
 631              		.comm	key,24,4
 632              		.comm	buzzer,12,4
 633              		.comm	bmp_temp,8,4
 634              		.text
 635              	.Letext0:
 636              		.file 2 "c:\\program files (x86)\\gnu tools arm embedded\\8 2019-q3-update\\arm-none-eabi\\include
 637              		.file 3 "c:\\program files (x86)\\gnu tools arm embedded\\8 2019-q3-update\\arm-none-eabi\\include
 638              		.file 4 "Drivers/CMSIS/Include/core_cm3.h"
 639              		.file 5 "Drivers/CMSIS/Device/ST/STM32F1xx/Include/system_stm32f1xx.h"
 640              		.file 6 "Drivers/CMSIS/Device/ST/STM32F1xx/Include/stm32f103xe.h"
 641              		.file 7 "c:\\program files (x86)\\gnu tools arm embedded\\8 2019-q3-update\\lib\\gcc\\arm-none-eab
 642              		.file 8 "c:\\program files (x86)\\gnu tools arm embedded\\8 2019-q3-update\\arm-none-eabi\\include
 643              		.file 9 "c:\\program files (x86)\\gnu tools arm embedded\\8 2019-q3-update\\arm-none-eabi\\include
 644              		.file 10 "c:\\program files (x86)\\gnu tools arm embedded\\8 2019-q3-update\\arm-none-eabi\\includ
 645              		.file 11 "Drivers/STM32F1xx_HAL_Driver/Inc/stm32f1xx_hal_gpio.h"
 646              		.file 12 "Drivers/CMSIS/Device/ST/STM32F1xx/Include/stm32f1xx.h"
 647              		.file 13 "Drivers/STM32F1xx_HAL_Driver/Inc/stm32f1xx_hal.h"
 648              		.file 14 "Inc/key.h"
 649              		.file 15 "u8g2/csrc/u8x8.h"
 650              		.file 16 "u8g2/csrc/u8g2.h"
 651              		.file 17 "Inc/user_bitmap.h"
 652              		.file 18 "Inc/main_screen.h"
 653              		.file 19 "Inc/buzzer.h"
ARM GAS  C:\Users\behun\AppData\Local\Temp\ccVALIvU.s 			page 17


DEFINED SYMBOLS
                            *ABS*:00000000 key.c
C:\Users\behun\AppData\Local\Temp\ccVALIvU.s:16     .text.KeyInit:00000000 $t
C:\Users\behun\AppData\Local\Temp\ccVALIvU.s:24     .text.KeyInit:00000000 KeyInit
C:\Users\behun\AppData\Local\Temp\ccVALIvU.s:120    .text.KeyInit:00000060 $d
                            *COM*:00000018 key
C:\Users\behun\AppData\Local\Temp\ccVALIvU.s:127    .text.KeyGet:00000000 $t
C:\Users\behun\AppData\Local\Temp\ccVALIvU.s:134    .text.KeyGet:00000000 KeyGet
C:\Users\behun\AppData\Local\Temp\ccVALIvU.s:154    .text.KeyGet:0000000c $d
C:\Users\behun\AppData\Local\Temp\ccVALIvU.s:158    .text.KeyGet:00000010 $t
C:\Users\behun\AppData\Local\Temp\ccVALIvU.s:322    .text.KeyGet:000000d8 $d
C:\Users\behun\AppData\Local\Temp\ccVALIvU.s:328    .text.KeyProcess:00000000 $t
C:\Users\behun\AppData\Local\Temp\ccVALIvU.s:335    .text.KeyProcess:00000000 KeyProcess
C:\Users\behun\AppData\Local\Temp\ccVALIvU.s:369    .text.KeyProcess:0000001c $d
C:\Users\behun\AppData\Local\Temp\ccVALIvU.s:373    .text.KeyProcess:00000020 $t
C:\Users\behun\AppData\Local\Temp\ccVALIvU.s:469    .text.KeyProcess:0000007c $d
C:\Users\behun\AppData\Local\Temp\ccVALIvU.s:474    .text.KeyManage:00000000 $t
C:\Users\behun\AppData\Local\Temp\ccVALIvU.s:481    .text.KeyManage:00000000 KeyManage
C:\Users\behun\AppData\Local\Temp\ccVALIvU.s:518    .text.KeyManage:00000020 $d
C:\Users\behun\AppData\Local\Temp\ccVALIvU.s:522    .text.KeyManage:00000024 $t
C:\Users\behun\AppData\Local\Temp\ccVALIvU.s:624    .text.KeyManage:000000a4 $d
                            *COM*:0000000c buzzer
                            *COM*:00000008 bmp_temp

UNDEFINED SYMBOLS
HAL_GPIO_Init
HAL_GetTick
HAL_GPIO_ReadPin
HAL_GPIO_WritePin
toggle
main_scr
