ARM GAS  C:\Users\behun\AppData\Local\Temp\cc75mIAu.s 			page 1


   1              		.cpu cortex-m3
   2              		.eabi_attribute 20, 1
   3              		.eabi_attribute 21, 1
   4              		.eabi_attribute 23, 3
   5              		.eabi_attribute 24, 1
   6              		.eabi_attribute 25, 1
   7              		.eabi_attribute 26, 1
   8              		.eabi_attribute 30, 1
   9              		.eabi_attribute 34, 1
  10              		.eabi_attribute 18, 4
  11              		.file	"main_screen.c"
  12              		.text
  13              	.Ltext0:
  14              		.cfi_sections	.debug_frame
  15              		.section	.text.main_screen_init,"ax",%progbits
  16              		.align	1
  17              		.global	main_screen_init
  18              		.arch armv7-m
  19              		.syntax unified
  20              		.thumb
  21              		.thumb_func
  22              		.fpu softvfp
  24              	main_screen_init:
  25              	.LFB66:
  26              		.file 1 "Src/main_screen.c"
   1:Src/main_screen.c **** #include "main_screen.h"
   2:Src/main_screen.c **** #include "u8g2.h"
   3:Src/main_screen.c **** #include "key.h"
   4:Src/main_screen.c **** #include "filter_data.h"
   5:Src/main_screen.c **** #include <stdlib.h>
   6:Src/main_screen.c **** 
   7:Src/main_screen.c **** u8g2_t u8g2;
   8:Src/main_screen.c **** 
   9:Src/main_screen.c **** MAIN_SCREEN_STR main_scr;
  10:Src/main_screen.c **** uint32_t Warn_Blink;
  11:Src/main_screen.c **** // uint32_t Alarm_Uv;
  12:Src/main_screen.c **** uint8_t blink = 1;
  13:Src/main_screen.c **** 
  14:Src/main_screen.c **** void main_screen_init(void)
  15:Src/main_screen.c **** {
  27              		.loc 1 15 1 view -0
  28              		.cfi_startproc
  29              		@ args = 0, pretend = 0, frame = 0
  30              		@ frame_needed = 0, uses_anonymous_args = 0
  31 0000 38B5     		push	{r3, r4, r5, lr}
  32              	.LCFI0:
  33              		.cfi_def_cfa_offset 16
  34              		.cfi_offset 3, -16
  35              		.cfi_offset 4, -12
  36              		.cfi_offset 5, -8
  37              		.cfi_offset 14, -4
  16:Src/main_screen.c ****     main_scr.lampStatus = 0;
  38              		.loc 1 16 5 view .LVU1
  39              		.loc 1 16 25 is_stmt 0 view .LVU2
  40 0002 0C4C     		ldr	r4, .L3
  41 0004 0025     		movs	r5, #0
  42 0006 2570     		strb	r5, [r4]
ARM GAS  C:\Users\behun\AppData\Local\Temp\cc75mIAu.s 			page 2


  17:Src/main_screen.c ****     main_scr.uvStatus = 0;
  43              		.loc 1 17 5 is_stmt 1 view .LVU3
  44              		.loc 1 17 23 is_stmt 0 view .LVU4
  45 0008 6570     		strb	r5, [r4, #1]
  18:Src/main_screen.c ****     main_scr.fanStatus = 0;
  46              		.loc 1 18 5 is_stmt 1 view .LVU5
  47              		.loc 1 18 24 is_stmt 0 view .LVU6
  48 000a A570     		strb	r5, [r4, #2]
  19:Src/main_screen.c ****     main_scr.socketStatus = 0;
  49              		.loc 1 19 5 is_stmt 1 view .LVU7
  50              		.loc 1 19 27 is_stmt 0 view .LVU8
  51 000c E570     		strb	r5, [r4, #3]
  20:Src/main_screen.c ****     main_scr.fanRotate = 0;
  52              		.loc 1 20 5 is_stmt 1 view .LVU9
  53              		.loc 1 20 24 is_stmt 0 view .LVU10
  54 000e 2571     		strb	r5, [r4, #4]
  21:Src/main_screen.c ****     u8g2_ClearBuffer(&u8g2);
  55              		.loc 1 21 5 is_stmt 1 view .LVU11
  56 0010 0948     		ldr	r0, .L3+4
  57 0012 FFF7FEFF 		bl	u8g2_ClearBuffer
  58              	.LVL0:
  22:Src/main_screen.c ****     main_scr.tick.rotate_fan = HAL_GetTick();
  59              		.loc 1 22 5 view .LVU12
  60              		.loc 1 22 32 is_stmt 0 view .LVU13
  61 0016 FFF7FEFF 		bl	HAL_GetTick
  62              	.LVL1:
  63              		.loc 1 22 30 view .LVU14
  64 001a E060     		str	r0, [r4, #12]
  23:Src/main_screen.c ****     main_scr.tick.t_uv = HAL_GetTick();
  65              		.loc 1 23 5 is_stmt 1 view .LVU15
  66              		.loc 1 23 26 is_stmt 0 view .LVU16
  67 001c FFF7FEFF 		bl	HAL_GetTick
  68              	.LVL2:
  69              		.loc 1 23 24 view .LVU17
  70 0020 A060     		str	r0, [r4, #8]
  24:Src/main_screen.c ****     main_scr.tick.t_fan = 0;
  71              		.loc 1 24 5 is_stmt 1 view .LVU18
  72              		.loc 1 24 25 is_stmt 0 view .LVU19
  73 0022 6561     		str	r5, [r4, #20]
  25:Src/main_screen.c ****     Warn_Blink = HAL_GetTick();
  74              		.loc 1 25 5 is_stmt 1 view .LVU20
  75              		.loc 1 25 18 is_stmt 0 view .LVU21
  76 0024 FFF7FEFF 		bl	HAL_GetTick
  77              	.LVL3:
  78              		.loc 1 25 16 view .LVU22
  79 0028 044B     		ldr	r3, .L3+8
  80 002a 1860     		str	r0, [r3]
  26:Src/main_screen.c ****     main_scr.tick.off_uv = Minute_1; // Setup timer off for UV
  81              		.loc 1 26 5 is_stmt 1 view .LVU23
  82              		.loc 1 26 26 is_stmt 0 view .LVU24
  83 002c 4EF66023 		movw	r3, #60000
  84 0030 2361     		str	r3, [r4, #16]
  27:Src/main_screen.c **** }
  85              		.loc 1 27 1 view .LVU25
  86 0032 38BD     		pop	{r3, r4, r5, pc}
  87              	.L4:
  88              		.align	2
ARM GAS  C:\Users\behun\AppData\Local\Temp\cc75mIAu.s 			page 3


  89              	.L3:
  90 0034 00000000 		.word	main_scr
  91 0038 00000000 		.word	u8g2
  92 003c 00000000 		.word	Warn_Blink
  93              		.cfi_endproc
  94              	.LFE66:
  96              		.section	.text.Lamp_Status,"ax",%progbits
  97              		.align	1
  98              		.global	Lamp_Status
  99              		.syntax unified
 100              		.thumb
 101              		.thumb_func
 102              		.fpu softvfp
 104              	Lamp_Status:
 105              	.LVL4:
 106              	.LFB67:
  28:Src/main_screen.c **** 
  29:Src/main_screen.c **** void Lamp_Status(uint8_t lampStatus)
  30:Src/main_screen.c **** {
 107              		.loc 1 30 1 is_stmt 1 view -0
 108              		.cfi_startproc
 109              		@ args = 0, pretend = 0, frame = 0
 110              		@ frame_needed = 0, uses_anonymous_args = 0
 111              		.loc 1 30 1 is_stmt 0 view .LVU27
 112 0000 30B5     		push	{r4, r5, lr}
 113              	.LCFI1:
 114              		.cfi_def_cfa_offset 12
 115              		.cfi_offset 4, -12
 116              		.cfi_offset 5, -8
 117              		.cfi_offset 14, -4
 118 0002 83B0     		sub	sp, sp, #12
 119              	.LCFI2:
 120              		.cfi_def_cfa_offset 24
 121 0004 0546     		mov	r5, r0
  31:Src/main_screen.c ****     u8g2_SetFont(&u8g2, u8g2_font_micro_tr);
 122              		.loc 1 31 5 is_stmt 1 view .LVU28
 123 0006 134C     		ldr	r4, .L9
 124 0008 1349     		ldr	r1, .L9+4
 125 000a 2046     		mov	r0, r4
 126              	.LVL5:
 127              		.loc 1 31 5 is_stmt 0 view .LVU29
 128 000c FFF7FEFF 		bl	u8g2_SetFont
 129              	.LVL6:
  32:Src/main_screen.c ****     u8g2_DrawStr(&u8g2, 9, 33, "NEON");
 130              		.loc 1 32 5 is_stmt 1 view .LVU30
 131 0010 124B     		ldr	r3, .L9+8
 132 0012 2122     		movs	r2, #33
 133 0014 0921     		movs	r1, #9
 134 0016 2046     		mov	r0, r4
 135 0018 FFF7FEFF 		bl	u8g2_DrawStr
 136              	.LVL7:
  33:Src/main_screen.c ****     if (lampStatus)
 137              		.loc 1 33 5 view .LVU31
 138              		.loc 1 33 8 is_stmt 0 view .LVU32
 139 001c 6DB1     		cbz	r5, .L6
  34:Src/main_screen.c ****     {
  35:Src/main_screen.c ****         u8g2_DrawBitmap(&u8g2, 0, 33, bmp_neon_on.width / 8, bmp_neon_on.height, bmp_neon_on.data);
ARM GAS  C:\Users\behun\AppData\Local\Temp\cc75mIAu.s 			page 4


 140              		.loc 1 35 9 is_stmt 1 view .LVU33
 141              		.loc 1 35 50 is_stmt 0 view .LVU34
 142 001e 104A     		ldr	r2, .L9+12
 143 0020 1378     		ldrb	r3, [r2]	@ zero_extendqisi2
 144              		.loc 1 35 9 view .LVU35
 145 0022 5168     		ldr	r1, [r2, #4]
 146 0024 0191     		str	r1, [sp, #4]
 147 0026 5278     		ldrb	r2, [r2, #1]	@ zero_extendqisi2
 148 0028 0092     		str	r2, [sp]
 149 002a DB08     		lsrs	r3, r3, #3
 150 002c 2122     		movs	r2, #33
 151 002e 0021     		movs	r1, #0
 152 0030 2046     		mov	r0, r4
 153 0032 FFF7FEFF 		bl	u8g2_DrawBitmap
 154              	.LVL8:
 155              	.L5:
  36:Src/main_screen.c ****     }
  37:Src/main_screen.c ****     else
  38:Src/main_screen.c ****     {
  39:Src/main_screen.c ****         u8g2_DrawBitmap(&u8g2, 0, 33, bmp_neon_off.width / 8, bmp_neon_off.height, bmp_neon_off.dat
  40:Src/main_screen.c ****     }
  41:Src/main_screen.c **** }
 156              		.loc 1 41 1 view .LVU36
 157 0036 03B0     		add	sp, sp, #12
 158              	.LCFI3:
 159              		.cfi_remember_state
 160              		.cfi_def_cfa_offset 12
 161              		@ sp needed
 162 0038 30BD     		pop	{r4, r5, pc}
 163              	.L6:
 164              	.LCFI4:
 165              		.cfi_restore_state
  39:Src/main_screen.c ****     }
 166              		.loc 1 39 9 is_stmt 1 view .LVU37
  39:Src/main_screen.c ****     }
 167              		.loc 1 39 51 is_stmt 0 view .LVU38
 168 003a 0A4A     		ldr	r2, .L9+16
 169 003c 1378     		ldrb	r3, [r2]	@ zero_extendqisi2
  39:Src/main_screen.c ****     }
 170              		.loc 1 39 9 view .LVU39
 171 003e 5168     		ldr	r1, [r2, #4]
 172 0040 0191     		str	r1, [sp, #4]
 173 0042 5278     		ldrb	r2, [r2, #1]	@ zero_extendqisi2
 174 0044 0092     		str	r2, [sp]
 175 0046 DB08     		lsrs	r3, r3, #3
 176 0048 2122     		movs	r2, #33
 177 004a 0021     		movs	r1, #0
 178 004c 0148     		ldr	r0, .L9
 179 004e FFF7FEFF 		bl	u8g2_DrawBitmap
 180              	.LVL9:
 181              		.loc 1 41 1 view .LVU40
 182 0052 F0E7     		b	.L5
 183              	.L10:
 184              		.align	2
 185              	.L9:
 186 0054 00000000 		.word	u8g2
 187 0058 00000000 		.word	u8g2_font_micro_tr
ARM GAS  C:\Users\behun\AppData\Local\Temp\cc75mIAu.s 			page 5


 188 005c 00000000 		.word	.LC0
 189 0060 00000000 		.word	bmp_neon_on
 190 0064 00000000 		.word	bmp_neon_off
 191              		.cfi_endproc
 192              	.LFE67:
 194              		.section	.text.TimerOff_Uv,"ax",%progbits
 195              		.align	1
 196              		.global	TimerOff_Uv
 197              		.syntax unified
 198              		.thumb
 199              		.thumb_func
 200              		.fpu softvfp
 202              	TimerOff_Uv:
 203              	.LVL10:
 204              	.LFB69:
  42:Src/main_screen.c **** void UV_Status(uint8_t uvStatus)
  43:Src/main_screen.c **** {
  44:Src/main_screen.c ****     u8g2_SetFont(&u8g2, u8g2_font_micro_tr);
  45:Src/main_screen.c ****     u8g2_DrawStr(&u8g2, 45, 33, "UV");
  46:Src/main_screen.c ****     if (uvStatus)
  47:Src/main_screen.c ****     {
  48:Src/main_screen.c ****         u8g2_DrawBitmap(&u8g2, 32, 33, bmp_uv_on.width / 8, bmp_uv_on.height, bmp_uv_on.data);
  49:Src/main_screen.c ****         TimerOff_Uv(main_scr.tick.off_uv);
  50:Src/main_screen.c ****     }
  51:Src/main_screen.c ****     else
  52:Src/main_screen.c ****     {
  53:Src/main_screen.c ****         u8g2_DrawBitmap(&u8g2, 32, 33, bmp_uv_off.width / 8, bmp_uv_off.height, bmp_uv_off.data);
  54:Src/main_screen.c ****     }
  55:Src/main_screen.c **** }
  56:Src/main_screen.c **** 
  57:Src/main_screen.c **** void TimerOff_Uv(uint32_t time)
  58:Src/main_screen.c **** {
 205              		.loc 1 58 1 is_stmt 1 view -0
 206              		.cfi_startproc
 207              		@ args = 0, pretend = 0, frame = 0
 208              		@ frame_needed = 0, uses_anonymous_args = 0
  59:Src/main_screen.c ****     if (time)
 209              		.loc 1 59 5 view .LVU42
 210              		.loc 1 59 8 is_stmt 0 view .LVU43
 211 0000 00B9     		cbnz	r0, .L17
 212 0002 7047     		bx	lr
 213              	.L17:
  58:Src/main_screen.c ****     if (time)
 214              		.loc 1 58 1 view .LVU44
 215 0004 10B5     		push	{r4, lr}
 216              	.LCFI5:
 217              		.cfi_def_cfa_offset 8
 218              		.cfi_offset 4, -8
 219              		.cfi_offset 14, -4
 220 0006 82B0     		sub	sp, sp, #8
 221              	.LCFI6:
 222              		.cfi_def_cfa_offset 16
 223 0008 0446     		mov	r4, r0
  60:Src/main_screen.c ****     {
  61:Src/main_screen.c ****         if (HAL_GetTick() - main_scr.tick.t_uv > time)
 224              		.loc 1 61 9 is_stmt 1 view .LVU45
 225              		.loc 1 61 13 is_stmt 0 view .LVU46
ARM GAS  C:\Users\behun\AppData\Local\Temp\cc75mIAu.s 			page 6


 226 000a FFF7FEFF 		bl	HAL_GetTick
 227              	.LVL11:
 228              		.loc 1 61 42 view .LVU47
 229 000e 104B     		ldr	r3, .L19
 230 0010 9B68     		ldr	r3, [r3, #8]
 231              		.loc 1 61 27 view .LVU48
 232 0012 C01A     		subs	r0, r0, r3
 233              		.loc 1 61 12 view .LVU49
 234 0014 A042     		cmp	r0, r4
 235 0016 01D8     		bhi	.L18
 236              	.LVL12:
 237              	.L11:
  62:Src/main_screen.c ****         {
  63:Src/main_screen.c ****             u8g2_DrawBitmap(&u8g2, 32, 33, bmp_uv_off.width / 8, bmp_uv_off.height, bmp_uv_off.data
  64:Src/main_screen.c ****             main_scr.uvStatus = 0;
  65:Src/main_screen.c ****             printf("Time to off UV: %d \n", HAL_GetTick() - main_scr.tick.t_uv);
  66:Src/main_screen.c ****             main_scr.tick.t_uv = HAL_GetTick();
  67:Src/main_screen.c ****         }
  68:Src/main_screen.c ****     }
  69:Src/main_screen.c ****     else
  70:Src/main_screen.c ****         return time = 0;
  71:Src/main_screen.c **** }
 238              		.loc 1 71 1 view .LVU50
 239 0018 02B0     		add	sp, sp, #8
 240              	.LCFI7:
 241              		.cfi_remember_state
 242              		.cfi_def_cfa_offset 8
 243              		@ sp needed
 244 001a 10BD     		pop	{r4, pc}
 245              	.LVL13:
 246              	.L18:
 247              	.LCFI8:
 248              		.cfi_restore_state
  63:Src/main_screen.c ****             main_scr.uvStatus = 0;
 249              		.loc 1 63 13 is_stmt 1 view .LVU51
  63:Src/main_screen.c ****             main_scr.uvStatus = 0;
 250              		.loc 1 63 54 is_stmt 0 view .LVU52
 251 001c 0D4A     		ldr	r2, .L19+4
 252 001e 1378     		ldrb	r3, [r2]	@ zero_extendqisi2
  63:Src/main_screen.c ****             main_scr.uvStatus = 0;
 253              		.loc 1 63 13 view .LVU53
 254 0020 5168     		ldr	r1, [r2, #4]
 255 0022 0191     		str	r1, [sp, #4]
 256 0024 5278     		ldrb	r2, [r2, #1]	@ zero_extendqisi2
 257 0026 0092     		str	r2, [sp]
 258 0028 DB08     		lsrs	r3, r3, #3
 259 002a 2122     		movs	r2, #33
 260 002c 2021     		movs	r1, #32
 261 002e 0A48     		ldr	r0, .L19+8
 262 0030 FFF7FEFF 		bl	u8g2_DrawBitmap
 263              	.LVL14:
  64:Src/main_screen.c ****             printf("Time to off UV: %d \n", HAL_GetTick() - main_scr.tick.t_uv);
 264              		.loc 1 64 13 is_stmt 1 view .LVU54
  64:Src/main_screen.c ****             printf("Time to off UV: %d \n", HAL_GetTick() - main_scr.tick.t_uv);
 265              		.loc 1 64 31 is_stmt 0 view .LVU55
 266 0034 064C     		ldr	r4, .L19
 267              	.LVL15:
ARM GAS  C:\Users\behun\AppData\Local\Temp\cc75mIAu.s 			page 7


  64:Src/main_screen.c ****             printf("Time to off UV: %d \n", HAL_GetTick() - main_scr.tick.t_uv);
 268              		.loc 1 64 31 view .LVU56
 269 0036 0023     		movs	r3, #0
 270 0038 6370     		strb	r3, [r4, #1]
  65:Src/main_screen.c ****             main_scr.tick.t_uv = HAL_GetTick();
 271              		.loc 1 65 13 is_stmt 1 view .LVU57
  65:Src/main_screen.c ****             main_scr.tick.t_uv = HAL_GetTick();
 272              		.loc 1 65 45 is_stmt 0 view .LVU58
 273 003a FFF7FEFF 		bl	HAL_GetTick
 274              	.LVL16:
  65:Src/main_screen.c ****             main_scr.tick.t_uv = HAL_GetTick();
 275              		.loc 1 65 74 view .LVU59
 276 003e A168     		ldr	r1, [r4, #8]
  65:Src/main_screen.c ****             main_scr.tick.t_uv = HAL_GetTick();
 277              		.loc 1 65 13 view .LVU60
 278 0040 411A     		subs	r1, r0, r1
 279 0042 0648     		ldr	r0, .L19+12
 280 0044 FFF7FEFF 		bl	printf
 281              	.LVL17:
  66:Src/main_screen.c ****         }
 282              		.loc 1 66 13 is_stmt 1 view .LVU61
  66:Src/main_screen.c ****         }
 283              		.loc 1 66 34 is_stmt 0 view .LVU62
 284 0048 FFF7FEFF 		bl	HAL_GetTick
 285              	.LVL18:
  66:Src/main_screen.c ****         }
 286              		.loc 1 66 32 view .LVU63
 287 004c A060     		str	r0, [r4, #8]
 288 004e E3E7     		b	.L11
 289              	.L20:
 290              		.align	2
 291              	.L19:
 292 0050 00000000 		.word	main_scr
 293 0054 00000000 		.word	bmp_uv_off
 294 0058 00000000 		.word	u8g2
 295 005c 00000000 		.word	.LC1
 296              		.cfi_endproc
 297              	.LFE69:
 299              		.section	.text.UV_Status,"ax",%progbits
 300              		.align	1
 301              		.global	UV_Status
 302              		.syntax unified
 303              		.thumb
 304              		.thumb_func
 305              		.fpu softvfp
 307              	UV_Status:
 308              	.LVL19:
 309              	.LFB68:
  43:Src/main_screen.c ****     u8g2_SetFont(&u8g2, u8g2_font_micro_tr);
 310              		.loc 1 43 1 is_stmt 1 view -0
 311              		.cfi_startproc
 312              		@ args = 0, pretend = 0, frame = 0
 313              		@ frame_needed = 0, uses_anonymous_args = 0
  43:Src/main_screen.c ****     u8g2_SetFont(&u8g2, u8g2_font_micro_tr);
 314              		.loc 1 43 1 is_stmt 0 view .LVU65
 315 0000 30B5     		push	{r4, r5, lr}
 316              	.LCFI9:
ARM GAS  C:\Users\behun\AppData\Local\Temp\cc75mIAu.s 			page 8


 317              		.cfi_def_cfa_offset 12
 318              		.cfi_offset 4, -12
 319              		.cfi_offset 5, -8
 320              		.cfi_offset 14, -4
 321 0002 83B0     		sub	sp, sp, #12
 322              	.LCFI10:
 323              		.cfi_def_cfa_offset 24
 324 0004 0546     		mov	r5, r0
  44:Src/main_screen.c ****     u8g2_DrawStr(&u8g2, 45, 33, "UV");
 325              		.loc 1 44 5 is_stmt 1 view .LVU66
 326 0006 154C     		ldr	r4, .L25
 327 0008 1549     		ldr	r1, .L25+4
 328 000a 2046     		mov	r0, r4
 329              	.LVL20:
  44:Src/main_screen.c ****     u8g2_DrawStr(&u8g2, 45, 33, "UV");
 330              		.loc 1 44 5 is_stmt 0 view .LVU67
 331 000c FFF7FEFF 		bl	u8g2_SetFont
 332              	.LVL21:
  45:Src/main_screen.c ****     if (uvStatus)
 333              		.loc 1 45 5 is_stmt 1 view .LVU68
 334 0010 144B     		ldr	r3, .L25+8
 335 0012 2122     		movs	r2, #33
 336 0014 2D21     		movs	r1, #45
 337 0016 2046     		mov	r0, r4
 338 0018 FFF7FEFF 		bl	u8g2_DrawStr
 339              	.LVL22:
  46:Src/main_screen.c ****     {
 340              		.loc 1 46 5 view .LVU69
  46:Src/main_screen.c ****     {
 341              		.loc 1 46 8 is_stmt 0 view .LVU70
 342 001c 8DB1     		cbz	r5, .L22
  48:Src/main_screen.c ****         TimerOff_Uv(main_scr.tick.off_uv);
 343              		.loc 1 48 9 is_stmt 1 view .LVU71
  48:Src/main_screen.c ****         TimerOff_Uv(main_scr.tick.off_uv);
 344              		.loc 1 48 49 is_stmt 0 view .LVU72
 345 001e 124A     		ldr	r2, .L25+12
 346 0020 1378     		ldrb	r3, [r2]	@ zero_extendqisi2
  48:Src/main_screen.c ****         TimerOff_Uv(main_scr.tick.off_uv);
 347              		.loc 1 48 9 view .LVU73
 348 0022 5168     		ldr	r1, [r2, #4]
 349 0024 0191     		str	r1, [sp, #4]
 350 0026 5278     		ldrb	r2, [r2, #1]	@ zero_extendqisi2
 351 0028 0092     		str	r2, [sp]
 352 002a DB08     		lsrs	r3, r3, #3
 353 002c 2122     		movs	r2, #33
 354 002e 2021     		movs	r1, #32
 355 0030 2046     		mov	r0, r4
 356 0032 FFF7FEFF 		bl	u8g2_DrawBitmap
 357              	.LVL23:
  49:Src/main_screen.c ****     }
 358              		.loc 1 49 9 is_stmt 1 view .LVU74
 359 0036 0D4B     		ldr	r3, .L25+16
 360 0038 1869     		ldr	r0, [r3, #16]
 361 003a FFF7FEFF 		bl	TimerOff_Uv
 362              	.LVL24:
 363              	.L21:
  55:Src/main_screen.c **** 
ARM GAS  C:\Users\behun\AppData\Local\Temp\cc75mIAu.s 			page 9


 364              		.loc 1 55 1 is_stmt 0 view .LVU75
 365 003e 03B0     		add	sp, sp, #12
 366              	.LCFI11:
 367              		.cfi_remember_state
 368              		.cfi_def_cfa_offset 12
 369              		@ sp needed
 370 0040 30BD     		pop	{r4, r5, pc}
 371              	.L22:
 372              	.LCFI12:
 373              		.cfi_restore_state
  53:Src/main_screen.c ****     }
 374              		.loc 1 53 9 is_stmt 1 view .LVU76
  53:Src/main_screen.c ****     }
 375              		.loc 1 53 50 is_stmt 0 view .LVU77
 376 0042 0B4A     		ldr	r2, .L25+20
 377 0044 1378     		ldrb	r3, [r2]	@ zero_extendqisi2
  53:Src/main_screen.c ****     }
 378              		.loc 1 53 9 view .LVU78
 379 0046 5168     		ldr	r1, [r2, #4]
 380 0048 0191     		str	r1, [sp, #4]
 381 004a 5278     		ldrb	r2, [r2, #1]	@ zero_extendqisi2
 382 004c 0092     		str	r2, [sp]
 383 004e DB08     		lsrs	r3, r3, #3
 384 0050 2122     		movs	r2, #33
 385 0052 2021     		movs	r1, #32
 386 0054 0148     		ldr	r0, .L25
 387 0056 FFF7FEFF 		bl	u8g2_DrawBitmap
 388              	.LVL25:
  55:Src/main_screen.c **** 
 389              		.loc 1 55 1 view .LVU79
 390 005a F0E7     		b	.L21
 391              	.L26:
 392              		.align	2
 393              	.L25:
 394 005c 00000000 		.word	u8g2
 395 0060 00000000 		.word	u8g2_font_micro_tr
 396 0064 00000000 		.word	.LC2
 397 0068 00000000 		.word	bmp_uv_on
 398 006c 00000000 		.word	main_scr
 399 0070 00000000 		.word	bmp_uv_off
 400              		.cfi_endproc
 401              	.LFE68:
 403              		.section	.text.Fan_Status,"ax",%progbits
 404              		.align	1
 405              		.global	Fan_Status
 406              		.syntax unified
 407              		.thumb
 408              		.thumb_func
 409              		.fpu softvfp
 411              	Fan_Status:
 412              	.LVL26:
 413              	.LFB70:
  72:Src/main_screen.c **** void Fan_Status(uint8_t fanStatus)
  73:Src/main_screen.c **** {
 414              		.loc 1 73 1 is_stmt 1 view -0
 415              		.cfi_startproc
 416              		@ args = 0, pretend = 0, frame = 0
ARM GAS  C:\Users\behun\AppData\Local\Temp\cc75mIAu.s 			page 10


 417              		@ frame_needed = 0, uses_anonymous_args = 0
 418              		.loc 1 73 1 is_stmt 0 view .LVU81
 419 0000 30B5     		push	{r4, r5, lr}
 420              	.LCFI13:
 421              		.cfi_def_cfa_offset 12
 422              		.cfi_offset 4, -12
 423              		.cfi_offset 5, -8
 424              		.cfi_offset 14, -4
 425 0002 83B0     		sub	sp, sp, #12
 426              	.LCFI14:
 427              		.cfi_def_cfa_offset 24
 428 0004 0546     		mov	r5, r0
  74:Src/main_screen.c ****     u8g2_SetFont(&u8g2, u8g2_font_micro_tr);
 429              		.loc 1 74 5 is_stmt 1 view .LVU82
 430 0006 284C     		ldr	r4, .L35
 431 0008 2849     		ldr	r1, .L35+4
 432 000a 2046     		mov	r0, r4
 433              	.LVL27:
 434              		.loc 1 74 5 is_stmt 0 view .LVU83
 435 000c FFF7FEFF 		bl	u8g2_SetFont
 436              	.LVL28:
  75:Src/main_screen.c ****     u8g2_DrawStr(&u8g2, 75, 33, "FAN");
 437              		.loc 1 75 5 is_stmt 1 view .LVU84
 438 0010 274B     		ldr	r3, .L35+8
 439 0012 2122     		movs	r2, #33
 440 0014 4B21     		movs	r1, #75
 441 0016 2046     		mov	r0, r4
 442 0018 FFF7FEFF 		bl	u8g2_DrawStr
 443              	.LVL29:
  76:Src/main_screen.c ****     /* -------------Calculator time for operation of the Fan------------- */
  77:Src/main_screen.c ****     if (fanStatus)
 444              		.loc 1 77 5 view .LVU85
 445              		.loc 1 77 8 is_stmt 0 view .LVU86
 446 001c EDB1     		cbz	r5, .L28
  78:Src/main_screen.c ****     {
  79:Src/main_screen.c ****         main_scr.tick.t_fan = HAL_GetTick();
 447              		.loc 1 79 9 is_stmt 1 view .LVU87
 448              		.loc 1 79 31 is_stmt 0 view .LVU88
 449 001e FFF7FEFF 		bl	HAL_GetTick
 450              	.LVL30:
 451 0022 0146     		mov	r1, r0
 452              		.loc 1 79 29 view .LVU89
 453 0024 234C     		ldr	r4, .L35+12
 454 0026 6061     		str	r0, [r4, #20]
  80:Src/main_screen.c ****         printf("Total time of the Fan working: %d\n", main_scr.tick.t_fan);
 455              		.loc 1 80 9 is_stmt 1 view .LVU90
 456 0028 2348     		ldr	r0, .L35+16
 457 002a FFF7FEFF 		bl	printf
 458              	.LVL31:
  81:Src/main_screen.c ****     }
  82:Src/main_screen.c ****     else
  83:Src/main_screen.c ****     {
  84:Src/main_screen.c ****         u8g2_DrawBitmap(&u8g2, 68, 38, bmp_fan_origin.width / 8, bmp_fan_origin.height, bmp_fan_ori
  85:Src/main_screen.c ****         return main_scr.tick.t_fan = 0;
  86:Src/main_screen.c ****     }
  87:Src/main_screen.c ****     /* ------------------Setup mode work for the Fan--------------------- */
  88:Src/main_screen.c ****     if ((HAL_GetTick() - main_scr.tick.rotate_fan > 200) && fanStatus)
ARM GAS  C:\Users\behun\AppData\Local\Temp\cc75mIAu.s 			page 11


 459              		.loc 1 88 5 view .LVU91
 460              		.loc 1 88 10 is_stmt 0 view .LVU92
 461 002e FFF7FEFF 		bl	HAL_GetTick
 462              	.LVL32:
 463              		.loc 1 88 39 view .LVU93
 464 0032 E368     		ldr	r3, [r4, #12]
 465              		.loc 1 88 24 view .LVU94
 466 0034 C01A     		subs	r0, r0, r3
 467              		.loc 1 88 8 view .LVU95
 468 0036 C828     		cmp	r0, #200
 469 0038 20D8     		bhi	.L34
 470              	.L30:
  89:Src/main_screen.c ****     {
  90:Src/main_screen.c ****         main_scr.fanRotate = ~main_scr.fanRotate;
  91:Src/main_screen.c ****         main_scr.tick.rotate_fan = HAL_GetTick();
  92:Src/main_screen.c ****     }
  93:Src/main_screen.c ****     /* ----------------Operation of the Fan--------------- */
  94:Src/main_screen.c ****     main_scr.fanRotate ? u8g2_DrawBitmap(&u8g2, 68, 38, bmp_fan_rotate.width / 8, bmp_fan_rotate.he
 471              		.loc 1 94 5 is_stmt 1 view .LVU96
 472              		.loc 1 94 13 is_stmt 0 view .LVU97
 473 003a 1E4B     		ldr	r3, .L35+12
 474 003c 1B79     		ldrb	r3, [r3, #4]	@ zero_extendqisi2
  95:Src/main_screen.c ****                        : u8g2_DrawBitmap(&u8g2, 68, 38, bmp_fan_origin.width / 8, bmp_fan_origin.he
 475              		.loc 1 95 24 view .LVU98
 476 003e 2BB3     		cbz	r3, .L32
  94:Src/main_screen.c ****                        : u8g2_DrawBitmap(&u8g2, 68, 38, bmp_fan_origin.width / 8, bmp_fan_origin.he
 477              		.loc 1 94 71 view .LVU99
 478 0040 1E4A     		ldr	r2, .L35+20
 479 0042 1378     		ldrb	r3, [r2]	@ zero_extendqisi2
  94:Src/main_screen.c ****                        : u8g2_DrawBitmap(&u8g2, 68, 38, bmp_fan_origin.width / 8, bmp_fan_origin.he
 480              		.loc 1 94 26 view .LVU100
 481 0044 5168     		ldr	r1, [r2, #4]
 482 0046 0191     		str	r1, [sp, #4]
 483 0048 5278     		ldrb	r2, [r2, #1]	@ zero_extendqisi2
 484 004a 0092     		str	r2, [sp]
 485 004c DB08     		lsrs	r3, r3, #3
 486 004e 2622     		movs	r2, #38
 487 0050 4421     		movs	r1, #68
 488 0052 1548     		ldr	r0, .L35
 489 0054 FFF7FEFF 		bl	u8g2_DrawBitmap
 490              	.LVL33:
 491 0058 0EE0     		b	.L27
 492              	.L28:
  84:Src/main_screen.c ****         return main_scr.tick.t_fan = 0;
 493              		.loc 1 84 9 is_stmt 1 view .LVU101
  84:Src/main_screen.c ****         return main_scr.tick.t_fan = 0;
 494              		.loc 1 84 54 is_stmt 0 view .LVU102
 495 005a 194A     		ldr	r2, .L35+24
 496 005c 1378     		ldrb	r3, [r2]	@ zero_extendqisi2
  84:Src/main_screen.c ****         return main_scr.tick.t_fan = 0;
 497              		.loc 1 84 9 view .LVU103
 498 005e 5168     		ldr	r1, [r2, #4]
 499 0060 0191     		str	r1, [sp, #4]
 500 0062 5278     		ldrb	r2, [r2, #1]	@ zero_extendqisi2
 501 0064 0092     		str	r2, [sp]
 502 0066 DB08     		lsrs	r3, r3, #3
 503 0068 2622     		movs	r2, #38
ARM GAS  C:\Users\behun\AppData\Local\Temp\cc75mIAu.s 			page 12


 504 006a 4421     		movs	r1, #68
 505 006c 0E48     		ldr	r0, .L35
 506 006e FFF7FEFF 		bl	u8g2_DrawBitmap
 507              	.LVL34:
  85:Src/main_screen.c ****     }
 508              		.loc 1 85 9 is_stmt 1 view .LVU104
  85:Src/main_screen.c ****     }
 509              		.loc 1 85 36 is_stmt 0 view .LVU105
 510 0072 104B     		ldr	r3, .L35+12
 511 0074 0022     		movs	r2, #0
 512 0076 5A61     		str	r2, [r3, #20]
 513              	.L27:
  96:Src/main_screen.c **** }
 514              		.loc 1 96 1 view .LVU106
 515 0078 03B0     		add	sp, sp, #12
 516              	.LCFI15:
 517              		.cfi_remember_state
 518              		.cfi_def_cfa_offset 12
 519              		@ sp needed
 520 007a 30BD     		pop	{r4, r5, pc}
 521              	.L34:
 522              	.LCFI16:
 523              		.cfi_restore_state
  90:Src/main_screen.c ****         main_scr.tick.rotate_fan = HAL_GetTick();
 524              		.loc 1 90 9 is_stmt 1 view .LVU107
  90:Src/main_screen.c ****         main_scr.tick.rotate_fan = HAL_GetTick();
 525              		.loc 1 90 39 is_stmt 0 view .LVU108
 526 007c 0D4C     		ldr	r4, .L35+12
 527 007e 2379     		ldrb	r3, [r4, #4]	@ zero_extendqisi2
  90:Src/main_screen.c ****         main_scr.tick.rotate_fan = HAL_GetTick();
 528              		.loc 1 90 28 view .LVU109
 529 0080 DB43     		mvns	r3, r3
 530 0082 2371     		strb	r3, [r4, #4]
  91:Src/main_screen.c ****     }
 531              		.loc 1 91 9 is_stmt 1 view .LVU110
  91:Src/main_screen.c ****     }
 532              		.loc 1 91 36 is_stmt 0 view .LVU111
 533 0084 FFF7FEFF 		bl	HAL_GetTick
 534              	.LVL35:
  91:Src/main_screen.c ****     }
 535              		.loc 1 91 34 view .LVU112
 536 0088 E060     		str	r0, [r4, #12]
 537 008a D6E7     		b	.L30
 538              	.L32:
  95:Src/main_screen.c **** }
 539              		.loc 1 95 71 discriminator 1 view .LVU113
 540 008c 0C4A     		ldr	r2, .L35+24
 541 008e 1378     		ldrb	r3, [r2]	@ zero_extendqisi2
  95:Src/main_screen.c **** }
 542              		.loc 1 95 26 discriminator 1 view .LVU114
 543 0090 5168     		ldr	r1, [r2, #4]
 544 0092 0191     		str	r1, [sp, #4]
 545 0094 5278     		ldrb	r2, [r2, #1]	@ zero_extendqisi2
 546 0096 0092     		str	r2, [sp]
 547 0098 DB08     		lsrs	r3, r3, #3
 548 009a 2622     		movs	r2, #38
 549 009c 4421     		movs	r1, #68
ARM GAS  C:\Users\behun\AppData\Local\Temp\cc75mIAu.s 			page 13


 550 009e 0248     		ldr	r0, .L35
 551 00a0 FFF7FEFF 		bl	u8g2_DrawBitmap
 552              	.LVL36:
 553 00a4 E8E7     		b	.L27
 554              	.L36:
 555 00a6 00BF     		.align	2
 556              	.L35:
 557 00a8 00000000 		.word	u8g2
 558 00ac 00000000 		.word	u8g2_font_micro_tr
 559 00b0 00000000 		.word	.LC3
 560 00b4 00000000 		.word	main_scr
 561 00b8 04000000 		.word	.LC4
 562 00bc 00000000 		.word	bmp_fan_rotate
 563 00c0 00000000 		.word	bmp_fan_origin
 564              		.cfi_endproc
 565              	.LFE70:
 567              		.section	.text.Socket_Status,"ax",%progbits
 568              		.align	1
 569              		.global	Socket_Status
 570              		.syntax unified
 571              		.thumb
 572              		.thumb_func
 573              		.fpu softvfp
 575              	Socket_Status:
 576              	.LVL37:
 577              	.LFB71:
  97:Src/main_screen.c **** void Socket_Status(uint8_t sStatus)
  98:Src/main_screen.c **** {
 578              		.loc 1 98 1 is_stmt 1 view -0
 579              		.cfi_startproc
 580              		@ args = 0, pretend = 0, frame = 0
 581              		@ frame_needed = 0, uses_anonymous_args = 0
 582              		.loc 1 98 1 is_stmt 0 view .LVU116
 583 0000 10B5     		push	{r4, lr}
 584              	.LCFI17:
 585              		.cfi_def_cfa_offset 8
 586              		.cfi_offset 4, -8
 587              		.cfi_offset 14, -4
 588 0002 82B0     		sub	sp, sp, #8
 589              	.LCFI18:
 590              		.cfi_def_cfa_offset 16
  99:Src/main_screen.c ****     if (sStatus)
 591              		.loc 1 99 5 is_stmt 1 view .LVU117
 592              		.loc 1 99 8 is_stmt 0 view .LVU118
 593 0004 10B3     		cbz	r0, .L38
 100:Src/main_screen.c ****     {
 101:Src/main_screen.c ****         u8g2_DrawBitmap(&u8g2, 98, 34, bmp_socket_on.width / 8, bmp_socket_on.height, bmp_socket_on
 594              		.loc 1 101 9 is_stmt 1 view .LVU119
 595              		.loc 1 101 53 is_stmt 0 view .LVU120
 596 0006 224A     		ldr	r2, .L41
 597 0008 1378     		ldrb	r3, [r2]	@ zero_extendqisi2
 598              		.loc 1 101 9 view .LVU121
 599 000a 224C     		ldr	r4, .L41+4
 600 000c 5168     		ldr	r1, [r2, #4]
 601 000e 0191     		str	r1, [sp, #4]
 602 0010 5278     		ldrb	r2, [r2, #1]	@ zero_extendqisi2
 603 0012 0092     		str	r2, [sp]
ARM GAS  C:\Users\behun\AppData\Local\Temp\cc75mIAu.s 			page 14


 604 0014 DB08     		lsrs	r3, r3, #3
 605 0016 2222     		movs	r2, #34
 606 0018 6221     		movs	r1, #98
 607 001a 2046     		mov	r0, r4
 608              	.LVL38:
 609              		.loc 1 101 9 view .LVU122
 610 001c FFF7FEFF 		bl	u8g2_DrawBitmap
 611              	.LVL39:
 102:Src/main_screen.c ****         u8g2_SetFont(&u8g2, u8g2_font_u8glib_4_tf);
 612              		.loc 1 102 9 is_stmt 1 view .LVU123
 613 0020 1D49     		ldr	r1, .L41+8
 614 0022 2046     		mov	r0, r4
 615 0024 FFF7FEFF 		bl	u8g2_SetFont
 616              	.LVL40:
 103:Src/main_screen.c ****         u8g2_DrawStr(&u8g2, 108, 62, "ON");
 617              		.loc 1 103 9 view .LVU124
 618 0028 1C4B     		ldr	r3, .L41+12
 619 002a 3E22     		movs	r2, #62
 620 002c 6C21     		movs	r1, #108
 621 002e 2046     		mov	r0, r4
 622 0030 FFF7FEFF 		bl	u8g2_DrawStr
 623              	.LVL41:
 104:Src/main_screen.c ****         u8g2_SetFont(&u8g2, u8g2_font_micro_tr);
 624              		.loc 1 104 9 view .LVU125
 625 0034 1A49     		ldr	r1, .L41+16
 626 0036 2046     		mov	r0, r4
 627 0038 FFF7FEFF 		bl	u8g2_SetFont
 628              	.LVL42:
 105:Src/main_screen.c ****         u8g2_DrawStr(&u8g2, 101, 33, "SOCKET");
 629              		.loc 1 105 9 view .LVU126
 630 003c 194B     		ldr	r3, .L41+20
 631 003e 2122     		movs	r2, #33
 632 0040 6521     		movs	r1, #101
 633 0042 2046     		mov	r0, r4
 634 0044 FFF7FEFF 		bl	u8g2_DrawStr
 635              	.LVL43:
 636              	.L37:
 106:Src/main_screen.c ****     }
 107:Src/main_screen.c ****     else
 108:Src/main_screen.c ****     {
 109:Src/main_screen.c ****         u8g2_DrawBitmap(&u8g2, 98, 34, bmp_socket_off.width / 8, bmp_socket_off.height, bmp_socket_
 110:Src/main_screen.c ****         u8g2_SetFont(&u8g2, u8g2_font_u8glib_4_tf);
 111:Src/main_screen.c ****         u8g2_DrawStr(&u8g2, 105, 62, "OFF");
 112:Src/main_screen.c ****         u8g2_SetFont(&u8g2, u8g2_font_micro_tr);
 113:Src/main_screen.c ****         u8g2_DrawStr(&u8g2, 101, 33, "SOCKET");
 114:Src/main_screen.c ****     }
 115:Src/main_screen.c **** }
 637              		.loc 1 115 1 is_stmt 0 view .LVU127
 638 0048 02B0     		add	sp, sp, #8
 639              	.LCFI19:
 640              		.cfi_remember_state
 641              		.cfi_def_cfa_offset 8
 642              		@ sp needed
 643 004a 10BD     		pop	{r4, pc}
 644              	.LVL44:
 645              	.L38:
 646              	.LCFI20:
ARM GAS  C:\Users\behun\AppData\Local\Temp\cc75mIAu.s 			page 15


 647              		.cfi_restore_state
 109:Src/main_screen.c ****         u8g2_SetFont(&u8g2, u8g2_font_u8glib_4_tf);
 648              		.loc 1 109 9 is_stmt 1 view .LVU128
 109:Src/main_screen.c ****         u8g2_SetFont(&u8g2, u8g2_font_u8glib_4_tf);
 649              		.loc 1 109 54 is_stmt 0 view .LVU129
 650 004c 164A     		ldr	r2, .L41+24
 651 004e 1378     		ldrb	r3, [r2]	@ zero_extendqisi2
 109:Src/main_screen.c ****         u8g2_SetFont(&u8g2, u8g2_font_u8glib_4_tf);
 652              		.loc 1 109 9 view .LVU130
 653 0050 104C     		ldr	r4, .L41+4
 654 0052 5168     		ldr	r1, [r2, #4]
 655 0054 0191     		str	r1, [sp, #4]
 656 0056 5278     		ldrb	r2, [r2, #1]	@ zero_extendqisi2
 657 0058 0092     		str	r2, [sp]
 658 005a DB08     		lsrs	r3, r3, #3
 659 005c 2222     		movs	r2, #34
 660 005e 6221     		movs	r1, #98
 661 0060 2046     		mov	r0, r4
 662              	.LVL45:
 109:Src/main_screen.c ****         u8g2_SetFont(&u8g2, u8g2_font_u8glib_4_tf);
 663              		.loc 1 109 9 view .LVU131
 664 0062 FFF7FEFF 		bl	u8g2_DrawBitmap
 665              	.LVL46:
 110:Src/main_screen.c ****         u8g2_DrawStr(&u8g2, 105, 62, "OFF");
 666              		.loc 1 110 9 is_stmt 1 view .LVU132
 667 0066 0C49     		ldr	r1, .L41+8
 668 0068 2046     		mov	r0, r4
 669 006a FFF7FEFF 		bl	u8g2_SetFont
 670              	.LVL47:
 111:Src/main_screen.c ****         u8g2_SetFont(&u8g2, u8g2_font_micro_tr);
 671              		.loc 1 111 9 view .LVU133
 672 006e 0F4B     		ldr	r3, .L41+28
 673 0070 3E22     		movs	r2, #62
 674 0072 6921     		movs	r1, #105
 675 0074 2046     		mov	r0, r4
 676 0076 FFF7FEFF 		bl	u8g2_DrawStr
 677              	.LVL48:
 112:Src/main_screen.c ****         u8g2_DrawStr(&u8g2, 101, 33, "SOCKET");
 678              		.loc 1 112 9 view .LVU134
 679 007a 0949     		ldr	r1, .L41+16
 680 007c 2046     		mov	r0, r4
 681 007e FFF7FEFF 		bl	u8g2_SetFont
 682              	.LVL49:
 113:Src/main_screen.c ****     }
 683              		.loc 1 113 9 view .LVU135
 684 0082 084B     		ldr	r3, .L41+20
 685 0084 2122     		movs	r2, #33
 686 0086 6521     		movs	r1, #101
 687 0088 2046     		mov	r0, r4
 688 008a FFF7FEFF 		bl	u8g2_DrawStr
 689              	.LVL50:
 690              		.loc 1 115 1 is_stmt 0 view .LVU136
 691 008e DBE7     		b	.L37
 692              	.L42:
 693              		.align	2
 694              	.L41:
 695 0090 00000000 		.word	bmp_socket_on
ARM GAS  C:\Users\behun\AppData\Local\Temp\cc75mIAu.s 			page 16


 696 0094 00000000 		.word	u8g2
 697 0098 00000000 		.word	u8g2_font_u8glib_4_tf
 698 009c 00000000 		.word	.LC5
 699 00a0 00000000 		.word	u8g2_font_micro_tr
 700 00a4 04000000 		.word	.LC6
 701 00a8 00000000 		.word	bmp_socket_off
 702 00ac 0C000000 		.word	.LC7
 703              		.cfi_endproc
 704              	.LFE71:
 706              		.section	.text.Filter_Val,"ax",%progbits
 707              		.align	1
 708              		.global	Filter_Val
 709              		.syntax unified
 710              		.thumb
 711              		.thumb_func
 712              		.fpu softvfp
 714              	Filter_Val:
 715              	.LVL51:
 716              	.LFB72:
 116:Src/main_screen.c **** 
 117:Src/main_screen.c **** /*void Filter_Pcent(uint8_t percent)
 118:Src/main_screen.c **** {
 119:Src/main_screen.c ****     uint8_t buff[5];
 120:Src/main_screen.c ****     uint8_t warnBuff[30];
 121:Src/main_screen.c ****     uint8_t line;
 122:Src/main_screen.c ****     line = percent * 50 / 100;
 123:Src/main_screen.c ****     u8g2_SetFont(&u8g2, u8g2_font_5x7_tf);
 124:Src/main_screen.c ****     if((percent <= 100) && (percent >= 70))
 125:Src/main_screen.c ****         u8g2_DrawStr(&u8g2, 17, 21, "The filter is good!");
 126:Src/main_screen.c ****     else if((percent <= 70) && (percent > 40))
 127:Src/main_screen.c ****         u8g2_DrawStr(&u8g2, 17, 21, "The filter medium!");
 128:Src/main_screen.c ****     else if((percent <= 40) && (percent > 10))
 129:Src/main_screen.c ****         u8g2_DrawStr(&u8g2, 17, 21, "The filter low!");
 130:Src/main_screen.c ****     else
 131:Src/main_screen.c ****     {
 132:Src/main_screen.c ****         if(HAL_GetTick() - Warn_Blink > 1000)
 133:Src/main_screen.c ****         {
 134:Src/main_screen.c ****             blink = !blink;
 135:Src/main_screen.c ****             printf("Blinkd: %d \n", blink);
 136:Src/main_screen.c ****             Warn_Blink = HAL_GetTick();
 137:Src/main_screen.c ****         }
 138:Src/main_screen.c ****         u8g2_SetFont(&u8g2, u8g2_font_5x7_mf);
 139:Src/main_screen.c ****         blink?u8g2_DrawStr(&u8g2, 17, 21, "Please change filter!"):u8g2_DrawStr(&u8g2, 17, 21, "   
 140:Src/main_screen.c ****         // blink?sprintf(warnBuff, "Please change filter!"):sprintf(warnBuff, "                 ");
 141:Src/main_screen.c ****         // if(blink)
 142:Src/main_screen.c ****         // {
 143:Src/main_screen.c ****         //     u8g2_SetFont(&u8g2, u8g2_font_5x7_mf);
 144:Src/main_screen.c ****         //     u8g2_DrawStr(&u8g2, 17, 21, "                      ");
 145:Src/main_screen.c ****         // }
 146:Src/main_screen.c ****         // else
 147:Src/main_screen.c ****         // {
 148:Src/main_screen.c ****         //     u8g2_SetFont(&u8g2, u8g2_font_5x7_mf);
 149:Src/main_screen.c ****         //     u8g2_DrawStr(&u8g2, 17, 21, "Please change filter!");
 150:Src/main_screen.c ****         // }
 151:Src/main_screen.c ****     }
 152:Src/main_screen.c ****     u8g2_DrawStr(&u8g2, 7, 10, "Filter:");
 153:Src/main_screen.c ****     u8g2_DrawFrame(&u8g2, 43, 2, 54, 10);
ARM GAS  C:\Users\behun\AppData\Local\Temp\cc75mIAu.s 			page 17


 154:Src/main_screen.c ****     sprintf(buff, "%d %%", percent);
 155:Src/main_screen.c ****     u8g2_DrawStr(&u8g2, 98, 10, buff);
 156:Src/main_screen.c ****     u8g2_DrawBox(&u8g2, 45, 4, line, 6); 
 157:Src/main_screen.c ****         
 158:Src/main_screen.c **** }*/
 159:Src/main_screen.c **** void Filter_Val(uint16_t val)
 160:Src/main_screen.c **** {
 717              		.loc 1 160 1 is_stmt 1 view -0
 718              		.cfi_startproc
 719              		@ args = 0, pretend = 0, frame = 8
 720              		@ frame_needed = 0, uses_anonymous_args = 0
 721              		.loc 1 160 1 is_stmt 0 view .LVU138
 722 0000 70B5     		push	{r4, r5, r6, lr}
 723              	.LCFI21:
 724              		.cfi_def_cfa_offset 16
 725              		.cfi_offset 4, -16
 726              		.cfi_offset 5, -12
 727              		.cfi_offset 6, -8
 728              		.cfi_offset 14, -4
 729 0002 84B0     		sub	sp, sp, #16
 730              	.LCFI22:
 731              		.cfi_def_cfa_offset 32
 732 0004 0446     		mov	r4, r0
 161:Src/main_screen.c ****     uint8_t perc[3];
 733              		.loc 1 161 5 is_stmt 1 view .LVU139
 162:Src/main_screen.c ****     u8g2_SetFont(&u8g2, u8g2_font_5x7_mf);
 734              		.loc 1 162 5 view .LVU140
 735 0006 5D4D     		ldr	r5, .L58
 736 0008 5D49     		ldr	r1, .L58+4
 737 000a 2846     		mov	r0, r5
 738              	.LVL52:
 739              		.loc 1 162 5 is_stmt 0 view .LVU141
 740 000c FFF7FEFF 		bl	u8g2_SetFont
 741              	.LVL53:
 163:Src/main_screen.c ****     u8g2_DrawStr(&u8g2, 7, 10, "Filter:");
 742              		.loc 1 163 5 is_stmt 1 view .LVU142
 743 0010 5C4B     		ldr	r3, .L58+8
 744 0012 0A22     		movs	r2, #10
 745 0014 0721     		movs	r1, #7
 746 0016 2846     		mov	r0, r5
 747 0018 FFF7FEFF 		bl	u8g2_DrawStr
 748              	.LVL54:
 164:Src/main_screen.c ****     u8g2_DrawFrame(&u8g2, 43, 2, 54, 10);
 749              		.loc 1 164 5 view .LVU143
 750 001c 0A23     		movs	r3, #10
 751 001e 0093     		str	r3, [sp]
 752 0020 3623     		movs	r3, #54
 753 0022 0222     		movs	r2, #2
 754 0024 2B21     		movs	r1, #43
 755 0026 2846     		mov	r0, r5
 756 0028 FFF7FEFF 		bl	u8g2_DrawFrame
 757              	.LVL55:
 165:Src/main_screen.c ****     if (val < Min_Pa)
 758              		.loc 1 165 5 view .LVU144
 759              		.loc 1 165 8 is_stmt 0 view .LVU145
 760 002c 182C     		cmp	r4, #24
 761 002e 0AD9     		bls	.L54
ARM GAS  C:\Users\behun\AppData\Local\Temp\cc75mIAu.s 			page 18


 762              	.L44:
 166:Src/main_screen.c ****     {
 167:Src/main_screen.c ****         u8g2_DrawStr(&u8g2, 98, 10, itoa(Max_Percent, perc, 10)); //Value percent of the filter
 168:Src/main_screen.c ****         u8g2_DrawBox(&u8g2, 45, 4, Max_Pixel, 6);                 //Value pixel of the filter
 169:Src/main_screen.c ****         u8g2_DrawStr(&u8g2, 115, 10, "%");
 170:Src/main_screen.c ****         u8g2_DrawStr(&u8g2, 18, 21, "The filter is new!"); // When Filter = 100%, show string char.
 171:Src/main_screen.c ****         // printf("filter is good\n");
 172:Src/main_screen.c ****     }
 173:Src/main_screen.c ****     if (val >= Min_Pa && val <= Min_Pa * (Max_Pa / Min_Pa - 1))
 763              		.loc 1 173 5 is_stmt 1 view .LVU146
 764              		.loc 1 173 23 is_stmt 0 view .LVU147
 765 0030 A4F11903 		sub	r3, r4, #25
 766 0034 9BB2     		uxth	r3, r3
 767              		.loc 1 173 8 view .LVU148
 768 0036 B3F5E17F 		cmp	r3, #450
 769 003a 38D9     		bls	.L52
 770              	.L46:
 174:Src/main_screen.c ****     {
 175:Src/main_screen.c ****         for (uint8_t i = 1; i <= (Max_Pa / Min_Pa - 1); i++)
 176:Src/main_screen.c ****         {
 177:Src/main_screen.c ****             if ((val >= Min_Pa * i) && (val < Min_Pa * (i + 1)))
 178:Src/main_screen.c ****                 filt_data.count = i;
 179:Src/main_screen.c ****         }
 180:Src/main_screen.c ****         filt_data.pc = Max_Percent - (4 * filt_data.count);
 181:Src/main_screen.c ****         filt_data.px = Max_Pixel - (2 * filt_data.count);
 182:Src/main_screen.c ****         // filt_data.pc = val * 50 / (Max_Pa/2);
 183:Src/main_screen.c ****         // filt_data.px = val * 25 / (Max_Pa/2);
 184:Src/main_screen.c ****         u8g2_DrawStr(&u8g2, 99, 10, itoa(filt_data.pc, perc, 10)); //Value percent of the filter
 185:Src/main_screen.c ****         u8g2_DrawBox(&u8g2, 45, 4, filt_data.px, 6);               //Value pixel of the filter
 186:Src/main_screen.c ****         u8g2_DrawStr(&u8g2, 111, 10, "%");
 187:Src/main_screen.c ****         u8g2_DrawStr(&u8g2, 10, 21, "The filter is working!"); // When Filter = 100%, show string c
 188:Src/main_screen.c ****         // printf("filter is working\n");
 189:Src/main_screen.c ****     }
 190:Src/main_screen.c **** 
 191:Src/main_screen.c ****     if (val >= Max_Pa)
 771              		.loc 1 191 5 is_stmt 1 view .LVU149
 772              		.loc 1 191 8 is_stmt 0 view .LVU150
 773 003c B4F5FA7F 		cmp	r4, #500
 774 0040 61D2     		bcs	.L55
 775              	.L43:
 192:Src/main_screen.c ****     {
 193:Src/main_screen.c ****         u8g2_DrawStr(&u8g2, 99, 10, itoa(Min_Percent, perc, 10)); //Value percent of the filter
 194:Src/main_screen.c ****         u8g2_DrawBox(&u8g2, 45, 4, Min_Pixel, 6);                 //Value pixel of the filter
 195:Src/main_screen.c ****         u8g2_DrawStr(&u8g2, 111, 10, "%");
 196:Src/main_screen.c ****         // printf("The filter is Maximun!\n");
 197:Src/main_screen.c ****         if (HAL_GetTick() - filt_data.tick > 1000)
 198:Src/main_screen.c ****         {
 199:Src/main_screen.c ****             filt_data.reverse = ~filt_data.reverse;
 200:Src/main_screen.c ****             filt_data.tick = HAL_GetTick();
 201:Src/main_screen.c ****         }
 202:Src/main_screen.c ****         filt_data.reverse ? u8g2_DrawStr(&u8g2, 2, 21, "Please change the filter!")
 203:Src/main_screen.c ****                           : u8g2_DrawStr(&u8g2, 2, 21, "                         ");
 204:Src/main_screen.c ****         // When Filter is 20%, show string char.
 205:Src/main_screen.c ****     }
 206:Src/main_screen.c **** }
 776              		.loc 1 206 1 view .LVU151
 777 0042 04B0     		add	sp, sp, #16
ARM GAS  C:\Users\behun\AppData\Local\Temp\cc75mIAu.s 			page 19


 778              	.LCFI23:
 779              		.cfi_remember_state
 780              		.cfi_def_cfa_offset 16
 781              		@ sp needed
 782 0044 70BD     		pop	{r4, r5, r6, pc}
 783              	.L54:
 784              	.LCFI24:
 785              		.cfi_restore_state
 167:Src/main_screen.c ****         u8g2_DrawBox(&u8g2, 45, 4, Max_Pixel, 6);                 //Value pixel of the filter
 786              		.loc 1 167 9 is_stmt 1 view .LVU152
 167:Src/main_screen.c ****         u8g2_DrawBox(&u8g2, 45, 4, Max_Pixel, 6);                 //Value pixel of the filter
 787              		.loc 1 167 37 is_stmt 0 view .LVU153
 788 0046 0A22     		movs	r2, #10
 789 0048 03A9     		add	r1, sp, #12
 790 004a 6420     		movs	r0, #100
 791 004c FFF7FEFF 		bl	itoa
 792              	.LVL56:
 167:Src/main_screen.c ****         u8g2_DrawBox(&u8g2, 45, 4, Max_Pixel, 6);                 //Value pixel of the filter
 793              		.loc 1 167 9 view .LVU154
 794 0050 0346     		mov	r3, r0
 795 0052 0A22     		movs	r2, #10
 796 0054 6221     		movs	r1, #98
 797 0056 2846     		mov	r0, r5
 798 0058 FFF7FEFF 		bl	u8g2_DrawStr
 799              	.LVL57:
 168:Src/main_screen.c ****         u8g2_DrawStr(&u8g2, 115, 10, "%");
 800              		.loc 1 168 9 is_stmt 1 view .LVU155
 801 005c 0623     		movs	r3, #6
 802 005e 0093     		str	r3, [sp]
 803 0060 3223     		movs	r3, #50
 804 0062 0422     		movs	r2, #4
 805 0064 2D21     		movs	r1, #45
 806 0066 2846     		mov	r0, r5
 807 0068 FFF7FEFF 		bl	u8g2_DrawBox
 808              	.LVL58:
 169:Src/main_screen.c ****         u8g2_DrawStr(&u8g2, 18, 21, "The filter is new!"); // When Filter = 100%, show string char.
 809              		.loc 1 169 9 view .LVU156
 810 006c 464B     		ldr	r3, .L58+12
 811 006e 0A22     		movs	r2, #10
 812 0070 7321     		movs	r1, #115
 813 0072 2846     		mov	r0, r5
 814 0074 FFF7FEFF 		bl	u8g2_DrawStr
 815              	.LVL59:
 170:Src/main_screen.c ****         // printf("filter is good\n");
 816              		.loc 1 170 9 view .LVU157
 817 0078 444B     		ldr	r3, .L58+16
 818 007a 1522     		movs	r2, #21
 819 007c 1221     		movs	r1, #18
 820 007e 2846     		mov	r0, r5
 821 0080 FFF7FEFF 		bl	u8g2_DrawStr
 822              	.LVL60:
 823 0084 D4E7     		b	.L44
 824              	.LVL61:
 825              	.L47:
 826              	.LBB2:
 175:Src/main_screen.c ****         {
 827              		.loc 1 175 58 is_stmt 0 discriminator 2 view .LVU158
ARM GAS  C:\Users\behun\AppData\Local\Temp\cc75mIAu.s 			page 20


 828 0086 0133     		adds	r3, r3, #1
 829              	.LVL62:
 175:Src/main_screen.c ****         {
 830              		.loc 1 175 58 discriminator 2 view .LVU159
 831 0088 DBB2     		uxtb	r3, r3
 832              	.LVL63:
 833              	.L45:
 175:Src/main_screen.c ****         {
 834              		.loc 1 175 9 discriminator 1 view .LVU160
 835 008a 132B     		cmp	r3, #19
 836 008c 11D8     		bhi	.L56
 177:Src/main_screen.c ****                 filt_data.count = i;
 837              		.loc 1 177 13 is_stmt 1 view .LVU161
 177:Src/main_screen.c ****                 filt_data.count = i;
 838              		.loc 1 177 32 is_stmt 0 view .LVU162
 839 008e 03EB8302 		add	r2, r3, r3, lsl #2
 840 0092 02EB8202 		add	r2, r2, r2, lsl #2
 177:Src/main_screen.c ****                 filt_data.count = i;
 841              		.loc 1 177 16 view .LVU163
 842 0096 9442     		cmp	r4, r2
 843 0098 F5DB     		blt	.L47
 177:Src/main_screen.c ****                 filt_data.count = i;
 844              		.loc 1 177 59 discriminator 1 view .LVU164
 845 009a 5A1C     		adds	r2, r3, #1
 177:Src/main_screen.c ****                 filt_data.count = i;
 846              		.loc 1 177 54 discriminator 1 view .LVU165
 847 009c 02EB8202 		add	r2, r2, r2, lsl #2
 848 00a0 02EB8202 		add	r2, r2, r2, lsl #2
 177:Src/main_screen.c ****                 filt_data.count = i;
 849              		.loc 1 177 37 discriminator 1 view .LVU166
 850 00a4 9442     		cmp	r4, r2
 851 00a6 EEDA     		bge	.L47
 178:Src/main_screen.c ****         }
 852              		.loc 1 178 17 is_stmt 1 view .LVU167
 178:Src/main_screen.c ****         }
 853              		.loc 1 178 33 is_stmt 0 view .LVU168
 854 00a8 394A     		ldr	r2, .L58+20
 855 00aa 1373     		strb	r3, [r2, #12]
 856 00ac EBE7     		b	.L47
 857              	.LVL64:
 858              	.L52:
 175:Src/main_screen.c ****         {
 859              		.loc 1 175 22 view .LVU169
 860 00ae 0123     		movs	r3, #1
 861 00b0 EBE7     		b	.L45
 862              	.LVL65:
 863              	.L56:
 175:Src/main_screen.c ****         {
 864              		.loc 1 175 22 view .LVU170
 865              	.LBE2:
 180:Src/main_screen.c ****         filt_data.px = Max_Pixel - (2 * filt_data.count);
 866              		.loc 1 180 9 is_stmt 1 view .LVU171
 180:Src/main_screen.c ****         filt_data.px = Max_Pixel - (2 * filt_data.count);
 867              		.loc 1 180 52 is_stmt 0 view .LVU172
 868 00b2 374E     		ldr	r6, .L58+20
 869 00b4 337B     		ldrb	r3, [r6, #12]	@ zero_extendqisi2
 870              	.LVL66:
ARM GAS  C:\Users\behun\AppData\Local\Temp\cc75mIAu.s 			page 21


 180:Src/main_screen.c ****         filt_data.px = Max_Pixel - (2 * filt_data.count);
 871              		.loc 1 180 36 view .LVU173
 872 00b6 C3F11903 		rsb	r3, r3, #25
 180:Src/main_screen.c ****         filt_data.px = Max_Pixel - (2 * filt_data.count);
 873              		.loc 1 180 22 view .LVU174
 874 00ba DBB2     		uxtb	r3, r3
 875 00bc 9800     		lsls	r0, r3, #2
 876 00be C0B2     		uxtb	r0, r0
 877 00c0 3071     		strb	r0, [r6, #4]
 181:Src/main_screen.c ****         // filt_data.pc = val * 50 / (Max_Pa/2);
 878              		.loc 1 181 9 is_stmt 1 view .LVU175
 181:Src/main_screen.c ****         // filt_data.pc = val * 50 / (Max_Pa/2);
 879              		.loc 1 181 22 is_stmt 0 view .LVU176
 880 00c2 5B00     		lsls	r3, r3, #1
 881 00c4 F370     		strb	r3, [r6, #3]
 184:Src/main_screen.c ****         u8g2_DrawBox(&u8g2, 45, 4, filt_data.px, 6);               //Value pixel of the filter
 882              		.loc 1 184 9 is_stmt 1 view .LVU177
 184:Src/main_screen.c ****         u8g2_DrawBox(&u8g2, 45, 4, filt_data.px, 6);               //Value pixel of the filter
 883              		.loc 1 184 37 is_stmt 0 view .LVU178
 884 00c6 0A22     		movs	r2, #10
 885 00c8 03A9     		add	r1, sp, #12
 886 00ca FFF7FEFF 		bl	itoa
 887              	.LVL67:
 184:Src/main_screen.c ****         u8g2_DrawBox(&u8g2, 45, 4, filt_data.px, 6);               //Value pixel of the filter
 888              		.loc 1 184 9 view .LVU179
 889 00ce 2B4D     		ldr	r5, .L58
 890 00d0 0346     		mov	r3, r0
 891 00d2 0A22     		movs	r2, #10
 892 00d4 6321     		movs	r1, #99
 893 00d6 2846     		mov	r0, r5
 894 00d8 FFF7FEFF 		bl	u8g2_DrawStr
 895              	.LVL68:
 185:Src/main_screen.c ****         u8g2_DrawStr(&u8g2, 111, 10, "%");
 896              		.loc 1 185 9 is_stmt 1 view .LVU180
 897 00dc 0623     		movs	r3, #6
 898 00de 0093     		str	r3, [sp]
 899 00e0 F378     		ldrb	r3, [r6, #3]	@ zero_extendqisi2
 900 00e2 0422     		movs	r2, #4
 901 00e4 2D21     		movs	r1, #45
 902 00e6 2846     		mov	r0, r5
 903 00e8 FFF7FEFF 		bl	u8g2_DrawBox
 904              	.LVL69:
 186:Src/main_screen.c ****         u8g2_DrawStr(&u8g2, 10, 21, "The filter is working!"); // When Filter = 100%, show string c
 905              		.loc 1 186 9 view .LVU181
 906 00ec 264B     		ldr	r3, .L58+12
 907 00ee 0A22     		movs	r2, #10
 908 00f0 6F21     		movs	r1, #111
 909 00f2 2846     		mov	r0, r5
 910 00f4 FFF7FEFF 		bl	u8g2_DrawStr
 911              	.LVL70:
 187:Src/main_screen.c ****         // printf("filter is working\n");
 912              		.loc 1 187 9 view .LVU182
 913 00f8 264B     		ldr	r3, .L58+24
 914 00fa 1522     		movs	r2, #21
 915 00fc 0A21     		movs	r1, #10
 916 00fe 2846     		mov	r0, r5
 917 0100 FFF7FEFF 		bl	u8g2_DrawStr
ARM GAS  C:\Users\behun\AppData\Local\Temp\cc75mIAu.s 			page 22


 918              	.LVL71:
 919 0104 9AE7     		b	.L46
 920              	.L55:
 193:Src/main_screen.c ****         u8g2_DrawBox(&u8g2, 45, 4, Min_Pixel, 6);                 //Value pixel of the filter
 921              		.loc 1 193 9 view .LVU183
 193:Src/main_screen.c ****         u8g2_DrawBox(&u8g2, 45, 4, Min_Pixel, 6);                 //Value pixel of the filter
 922              		.loc 1 193 37 is_stmt 0 view .LVU184
 923 0106 0A22     		movs	r2, #10
 924 0108 03A9     		add	r1, sp, #12
 925 010a 1420     		movs	r0, #20
 926 010c FFF7FEFF 		bl	itoa
 927              	.LVL72:
 193:Src/main_screen.c ****         u8g2_DrawBox(&u8g2, 45, 4, Min_Pixel, 6);                 //Value pixel of the filter
 928              		.loc 1 193 9 view .LVU185
 929 0110 1A4C     		ldr	r4, .L58
 930 0112 0346     		mov	r3, r0
 931 0114 0A22     		movs	r2, #10
 932 0116 6321     		movs	r1, #99
 933 0118 2046     		mov	r0, r4
 934 011a FFF7FEFF 		bl	u8g2_DrawStr
 935              	.LVL73:
 194:Src/main_screen.c ****         u8g2_DrawStr(&u8g2, 111, 10, "%");
 936              		.loc 1 194 9 is_stmt 1 view .LVU186
 937 011e 0623     		movs	r3, #6
 938 0120 0093     		str	r3, [sp]
 939 0122 0A23     		movs	r3, #10
 940 0124 0422     		movs	r2, #4
 941 0126 2D21     		movs	r1, #45
 942 0128 2046     		mov	r0, r4
 943 012a FFF7FEFF 		bl	u8g2_DrawBox
 944              	.LVL74:
 195:Src/main_screen.c ****         // printf("The filter is Maximun!\n");
 945              		.loc 1 195 9 view .LVU187
 946 012e 164B     		ldr	r3, .L58+12
 947 0130 0A22     		movs	r2, #10
 948 0132 6F21     		movs	r1, #111
 949 0134 2046     		mov	r0, r4
 950 0136 FFF7FEFF 		bl	u8g2_DrawStr
 951              	.LVL75:
 197:Src/main_screen.c ****         {
 952              		.loc 1 197 9 view .LVU188
 197:Src/main_screen.c ****         {
 953              		.loc 1 197 13 is_stmt 0 view .LVU189
 954 013a FFF7FEFF 		bl	HAL_GetTick
 955              	.LVL76:
 197:Src/main_screen.c ****         {
 956              		.loc 1 197 38 view .LVU190
 957 013e 144B     		ldr	r3, .L58+20
 958 0140 9B68     		ldr	r3, [r3, #8]
 197:Src/main_screen.c ****         {
 959              		.loc 1 197 27 view .LVU191
 960 0142 C01A     		subs	r0, r0, r3
 197:Src/main_screen.c ****         {
 961              		.loc 1 197 12 view .LVU192
 962 0144 B0F57A7F 		cmp	r0, #1000
 963 0148 09D8     		bhi	.L57
 964              	.L50:
ARM GAS  C:\Users\behun\AppData\Local\Temp\cc75mIAu.s 			page 23


 202:Src/main_screen.c ****                           : u8g2_DrawStr(&u8g2, 2, 21, "                         ");
 965              		.loc 1 202 9 is_stmt 1 view .LVU193
 202:Src/main_screen.c ****                           : u8g2_DrawStr(&u8g2, 2, 21, "                         ");
 966              		.loc 1 202 18 is_stmt 0 view .LVU194
 967 014a 114B     		ldr	r3, .L58+20
 968 014c 5B79     		ldrb	r3, [r3, #5]	@ zero_extendqisi2
 203:Src/main_screen.c ****         // When Filter is 20%, show string char.
 969              		.loc 1 203 27 view .LVU195
 970 014e 73B1     		cbz	r3, .L51
 202:Src/main_screen.c ****                           : u8g2_DrawStr(&u8g2, 2, 21, "                         ");
 971              		.loc 1 202 29 discriminator 1 view .LVU196
 972 0150 114B     		ldr	r3, .L58+28
 973 0152 1522     		movs	r2, #21
 974 0154 0221     		movs	r1, #2
 975 0156 0948     		ldr	r0, .L58
 976 0158 FFF7FEFF 		bl	u8g2_DrawStr
 977              	.LVL77:
 978 015c 71E7     		b	.L43
 979              	.L57:
 199:Src/main_screen.c ****             filt_data.tick = HAL_GetTick();
 980              		.loc 1 199 13 is_stmt 1 view .LVU197
 199:Src/main_screen.c ****             filt_data.tick = HAL_GetTick();
 981              		.loc 1 199 43 is_stmt 0 view .LVU198
 982 015e 0C4C     		ldr	r4, .L58+20
 983 0160 6379     		ldrb	r3, [r4, #5]	@ zero_extendqisi2
 199:Src/main_screen.c ****             filt_data.tick = HAL_GetTick();
 984              		.loc 1 199 31 view .LVU199
 985 0162 DB43     		mvns	r3, r3
 986 0164 6371     		strb	r3, [r4, #5]
 200:Src/main_screen.c ****         }
 987              		.loc 1 200 13 is_stmt 1 view .LVU200
 200:Src/main_screen.c ****         }
 988              		.loc 1 200 30 is_stmt 0 view .LVU201
 989 0166 FFF7FEFF 		bl	HAL_GetTick
 990              	.LVL78:
 200:Src/main_screen.c ****         }
 991              		.loc 1 200 28 view .LVU202
 992 016a A060     		str	r0, [r4, #8]
 993 016c EDE7     		b	.L50
 994              	.L51:
 203:Src/main_screen.c ****         // When Filter is 20%, show string char.
 995              		.loc 1 203 29 discriminator 2 view .LVU203
 996 016e 0B4B     		ldr	r3, .L58+32
 997 0170 1522     		movs	r2, #21
 998 0172 0221     		movs	r1, #2
 999 0174 0148     		ldr	r0, .L58
 1000 0176 FFF7FEFF 		bl	u8g2_DrawStr
 1001              	.LVL79:
 1002              		.loc 1 206 1 discriminator 2 view .LVU204
 1003 017a 62E7     		b	.L43
 1004              	.L59:
 1005              		.align	2
 1006              	.L58:
 1007 017c 00000000 		.word	u8g2
 1008 0180 00000000 		.word	u8g2_font_5x7_mf
 1009 0184 00000000 		.word	.LC8
 1010 0188 08000000 		.word	.LC9
ARM GAS  C:\Users\behun\AppData\Local\Temp\cc75mIAu.s 			page 24


 1011 018c 0C000000 		.word	.LC10
 1012 0190 00000000 		.word	filt_data
 1013 0194 20000000 		.word	.LC11
 1014 0198 38000000 		.word	.LC12
 1015 019c 54000000 		.word	.LC13
 1016              		.cfi_endproc
 1017              	.LFE72:
 1019              		.section	.text.Horizontal,"ax",%progbits
 1020              		.align	1
 1021              		.global	Horizontal
 1022              		.syntax unified
 1023              		.thumb
 1024              		.thumb_func
 1025              		.fpu softvfp
 1027              	Horizontal:
 1028              	.LFB73:
 207:Src/main_screen.c **** 
 208:Src/main_screen.c **** void Horizontal(void)
 209:Src/main_screen.c **** {
 1029              		.loc 1 209 1 is_stmt 1 view -0
 1030              		.cfi_startproc
 1031              		@ args = 0, pretend = 0, frame = 0
 1032              		@ frame_needed = 0, uses_anonymous_args = 0
 1033 0000 70B5     		push	{r4, r5, r6, lr}
 1034              	.LCFI25:
 1035              		.cfi_def_cfa_offset 16
 1036              		.cfi_offset 4, -16
 1037              		.cfi_offset 5, -12
 1038              		.cfi_offset 6, -8
 1039              		.cfi_offset 14, -4
 1040 0002 82B0     		sub	sp, sp, #8
 1041              	.LCFI26:
 1042              		.cfi_def_cfa_offset 24
 210:Src/main_screen.c ****     u8g2_SetDrawColor(&u8g2, 1);
 1043              		.loc 1 210 5 view .LVU206
 1044 0004 154C     		ldr	r4, .L62
 1045 0006 0121     		movs	r1, #1
 1046 0008 2046     		mov	r0, r4
 1047 000a FFF7FEFF 		bl	u8g2_SetDrawColor
 1048              	.LVL80:
 211:Src/main_screen.c ****     u8g2_DrawFrame(&u8g2, 0, 24, 128, 40);
 1049              		.loc 1 211 5 view .LVU207
 1050 000e 2825     		movs	r5, #40
 1051 0010 0095     		str	r5, [sp]
 1052 0012 8023     		movs	r3, #128
 1053 0014 1822     		movs	r2, #24
 1054 0016 0021     		movs	r1, #0
 1055 0018 2046     		mov	r0, r4
 1056 001a FFF7FEFF 		bl	u8g2_DrawFrame
 1057              	.LVL81:
 212:Src/main_screen.c ****     u8g2_DrawHLine(&u8g2, 0, 36, 128);
 1058              		.loc 1 212 5 view .LVU208
 1059 001e 8023     		movs	r3, #128
 1060 0020 2422     		movs	r2, #36
 1061 0022 0021     		movs	r1, #0
 1062 0024 2046     		mov	r0, r4
 1063 0026 FFF7FEFF 		bl	u8g2_DrawHLine
ARM GAS  C:\Users\behun\AppData\Local\Temp\cc75mIAu.s 			page 25


 1064              	.LVL82:
 213:Src/main_screen.c ****     u8g2_DrawHVLine(&u8g2, 32, 24, 40, 1);
 1065              		.loc 1 213 5 view .LVU209
 1066 002a 0126     		movs	r6, #1
 1067 002c 0096     		str	r6, [sp]
 1068 002e 2B46     		mov	r3, r5
 1069 0030 1822     		movs	r2, #24
 1070 0032 2021     		movs	r1, #32
 1071 0034 2046     		mov	r0, r4
 1072 0036 FFF7FEFF 		bl	u8g2_DrawHVLine
 1073              	.LVL83:
 214:Src/main_screen.c ****     u8g2_DrawHVLine(&u8g2, 64, 24, 40, 1);
 1074              		.loc 1 214 5 view .LVU210
 1075 003a 0096     		str	r6, [sp]
 1076 003c 2B46     		mov	r3, r5
 1077 003e 1822     		movs	r2, #24
 1078 0040 4021     		movs	r1, #64
 1079 0042 2046     		mov	r0, r4
 1080 0044 FFF7FEFF 		bl	u8g2_DrawHVLine
 1081              	.LVL84:
 215:Src/main_screen.c ****     u8g2_DrawHVLine(&u8g2, 96, 24, 40, 1);
 1082              		.loc 1 215 5 view .LVU211
 1083 0048 0096     		str	r6, [sp]
 1084 004a 2B46     		mov	r3, r5
 1085 004c 1822     		movs	r2, #24
 1086 004e 6021     		movs	r1, #96
 1087 0050 2046     		mov	r0, r4
 1088 0052 FFF7FEFF 		bl	u8g2_DrawHVLine
 1089              	.LVL85:
 216:Src/main_screen.c **** }
 1090              		.loc 1 216 1 is_stmt 0 view .LVU212
 1091 0056 02B0     		add	sp, sp, #8
 1092              	.LCFI27:
 1093              		.cfi_def_cfa_offset 16
 1094              		@ sp needed
 1095 0058 70BD     		pop	{r4, r5, r6, pc}
 1096              	.L63:
 1097 005a 00BF     		.align	2
 1098              	.L62:
 1099 005c 00000000 		.word	u8g2
 1100              		.cfi_endproc
 1101              	.LFE73:
 1103              		.section	.text.Main_Screen_Manage,"ax",%progbits
 1104              		.align	1
 1105              		.global	Main_Screen_Manage
 1106              		.syntax unified
 1107              		.thumb
 1108              		.thumb_func
 1109              		.fpu softvfp
 1111              	Main_Screen_Manage:
 1112              	.LFB74:
 217:Src/main_screen.c **** 
 218:Src/main_screen.c **** /* Management devices|: Neon, UV, Fan, Socket, filter status */
 219:Src/main_screen.c **** void Main_Screen_Manage(void)
 220:Src/main_screen.c **** {
 1113              		.loc 1 220 1 is_stmt 1 view -0
 1114              		.cfi_startproc
ARM GAS  C:\Users\behun\AppData\Local\Temp\cc75mIAu.s 			page 26


 1115              		@ args = 0, pretend = 0, frame = 0
 1116              		@ frame_needed = 0, uses_anonymous_args = 0
 1117 0000 10B5     		push	{r4, lr}
 1118              	.LCFI28:
 1119              		.cfi_def_cfa_offset 8
 1120              		.cfi_offset 4, -8
 1121              		.cfi_offset 14, -4
 221:Src/main_screen.c ****     Lamp_Status(main_scr.lampStatus);
 1122              		.loc 1 221 5 view .LVU214
 1123 0002 0A4C     		ldr	r4, .L66
 1124 0004 2078     		ldrb	r0, [r4]	@ zero_extendqisi2
 1125 0006 FFF7FEFF 		bl	Lamp_Status
 1126              	.LVL86:
 222:Src/main_screen.c ****     UV_Status(main_scr.uvStatus);
 1127              		.loc 1 222 5 view .LVU215
 1128 000a 6078     		ldrb	r0, [r4, #1]	@ zero_extendqisi2
 1129 000c FFF7FEFF 		bl	UV_Status
 1130              	.LVL87:
 223:Src/main_screen.c ****     Fan_Status(main_scr.fanStatus);
 1131              		.loc 1 223 5 view .LVU216
 1132 0010 A078     		ldrb	r0, [r4, #2]	@ zero_extendqisi2
 1133 0012 FFF7FEFF 		bl	Fan_Status
 1134              	.LVL88:
 224:Src/main_screen.c ****     Socket_Status(main_scr.socketStatus);
 1135              		.loc 1 224 5 view .LVU217
 1136 0016 E078     		ldrb	r0, [r4, #3]	@ zero_extendqisi2
 1137 0018 FFF7FEFF 		bl	Socket_Status
 1138              	.LVL89:
 225:Src/main_screen.c ****     Horizontal();
 1139              		.loc 1 225 5 view .LVU218
 1140 001c FFF7FEFF 		bl	Horizontal
 1141              	.LVL90:
 226:Src/main_screen.c ****     Filter_Val(filt_data.val); //Function get value from the filter and converter into percent./*  
 1142              		.loc 1 226 5 view .LVU219
 1143 0020 034B     		ldr	r3, .L66+4
 1144 0022 1888     		ldrh	r0, [r3]
 1145 0024 FFF7FEFF 		bl	Filter_Val
 1146              	.LVL91:
 227:Src/main_screen.c **** }
 1147              		.loc 1 227 1 is_stmt 0 view .LVU220
 1148 0028 10BD     		pop	{r4, pc}
 1149              	.L67:
 1150 002a 00BF     		.align	2
 1151              	.L66:
 1152 002c 00000000 		.word	main_scr
 1153 0030 00000000 		.word	filt_data
 1154              		.cfi_endproc
 1155              	.LFE74:
 1157              		.global	blink
 1158              		.comm	Warn_Blink,4,4
 1159              		.comm	main_scr,24,4
 1160              		.comm	u8g2,128,4
 1161              		.comm	bmp_temp,8,4
 1162              		.section	.data.blink,"aw"
 1165              	blink:
 1166 0000 01       		.byte	1
 1167              		.section	.rodata.Fan_Status.str1.4,"aMS",%progbits,1
ARM GAS  C:\Users\behun\AppData\Local\Temp\cc75mIAu.s 			page 27


 1168              		.align	2
 1169              	.LC3:
 1170 0000 46414E00 		.ascii	"FAN\000"
 1171              	.LC4:
 1172 0004 546F7461 		.ascii	"Total time of the Fan working: %d\012\000"
 1172      6C207469 
 1172      6D65206F 
 1172      66207468 
 1172      65204661 
 1173              		.section	.rodata.Filter_Val.str1.4,"aMS",%progbits,1
 1174              		.align	2
 1175              	.LC8:
 1176 0000 46696C74 		.ascii	"Filter:\000"
 1176      65723A00 
 1177              	.LC9:
 1178 0008 2500     		.ascii	"%\000"
 1179 000a 0000     		.space	2
 1180              	.LC10:
 1181 000c 54686520 		.ascii	"The filter is new!\000"
 1181      66696C74 
 1181      65722069 
 1181      73206E65 
 1181      772100
 1182 001f 00       		.space	1
 1183              	.LC11:
 1184 0020 54686520 		.ascii	"The filter is working!\000"
 1184      66696C74 
 1184      65722069 
 1184      7320776F 
 1184      726B696E 
 1185 0037 00       		.space	1
 1186              	.LC12:
 1187 0038 506C6561 		.ascii	"Please change the filter!\000"
 1187      73652063 
 1187      68616E67 
 1187      65207468 
 1187      65206669 
 1188 0052 0000     		.space	2
 1189              	.LC13:
 1190 0054 20202020 		.ascii	"                         \000"
 1190      20202020 
 1190      20202020 
 1190      20202020 
 1190      20202020 
 1191              		.section	.rodata.Lamp_Status.str1.4,"aMS",%progbits,1
 1192              		.align	2
 1193              	.LC0:
 1194 0000 4E454F4E 		.ascii	"NEON\000"
 1194      00
 1195              		.section	.rodata.Socket_Status.str1.4,"aMS",%progbits,1
 1196              		.align	2
 1197              	.LC5:
 1198 0000 4F4E00   		.ascii	"ON\000"
 1199 0003 00       		.space	1
 1200              	.LC6:
 1201 0004 534F434B 		.ascii	"SOCKET\000"
 1201      455400
ARM GAS  C:\Users\behun\AppData\Local\Temp\cc75mIAu.s 			page 28


 1202 000b 00       		.space	1
 1203              	.LC7:
 1204 000c 4F464600 		.ascii	"OFF\000"
 1205              		.section	.rodata.TimerOff_Uv.str1.4,"aMS",%progbits,1
 1206              		.align	2
 1207              	.LC1:
 1208 0000 54696D65 		.ascii	"Time to off UV: %d \012\000"
 1208      20746F20 
 1208      6F666620 
 1208      55563A20 
 1208      2564200A 
 1209              		.section	.rodata.UV_Status.str1.4,"aMS",%progbits,1
 1210              		.align	2
 1211              	.LC2:
 1212 0000 555600   		.ascii	"UV\000"
 1213              		.text
 1214              	.Letext0:
 1215              		.file 2 "c:\\program files (x86)\\gnu tools arm embedded\\8 2019-q3-update\\arm-none-eabi\\include
 1216              		.file 3 "c:\\program files (x86)\\gnu tools arm embedded\\8 2019-q3-update\\arm-none-eabi\\include
 1217              		.file 4 "Drivers/CMSIS/Include/core_cm3.h"
 1218              		.file 5 "Drivers/CMSIS/Device/ST/STM32F1xx/Include/system_stm32f1xx.h"
 1219              		.file 6 "c:\\program files (x86)\\gnu tools arm embedded\\8 2019-q3-update\\lib\\gcc\\arm-none-eab
 1220              		.file 7 "c:\\program files (x86)\\gnu tools arm embedded\\8 2019-q3-update\\arm-none-eabi\\include
 1221              		.file 8 "c:\\program files (x86)\\gnu tools arm embedded\\8 2019-q3-update\\arm-none-eabi\\include
 1222              		.file 9 "c:\\program files (x86)\\gnu tools arm embedded\\8 2019-q3-update\\arm-none-eabi\\include
 1223              		.file 10 "Drivers/STM32F1xx_HAL_Driver/Inc/stm32f1xx_hal.h"
 1224              		.file 11 "Inc/user_bitmap.h"
 1225              		.file 12 "Inc/main_screen.h"
 1226              		.file 13 "u8g2/csrc/u8x8.h"
 1227              		.file 14 "u8g2/csrc/u8g2.h"
 1228              		.file 15 "Inc/filter_data.h"
 1229              		.file 16 "c:\\program files (x86)\\gnu tools arm embedded\\8 2019-q3-update\\arm-none-eabi\\includ
 1230              		.file 17 "c:\\program files (x86)\\gnu tools arm embedded\\8 2019-q3-update\\arm-none-eabi\\includ
ARM GAS  C:\Users\behun\AppData\Local\Temp\cc75mIAu.s 			page 29

