ARM GAS  C:\Users\behun\AppData\Local\Temp\ccTro3hg.s 			page 1


   1              		.cpu cortex-m3
   2              		.eabi_attribute 20, 1
   3              		.eabi_attribute 21, 1
   4              		.eabi_attribute 23, 3
   5              		.eabi_attribute 24, 1
   6              		.eabi_attribute 25, 1
   7              		.eabi_attribute 26, 1
   8              		.eabi_attribute 30, 1
   9              		.eabi_attribute 34, 1
  10              		.eabi_attribute 18, 4
  11              		.file	"main_screen.c"
  12              		.text
  13              	.Ltext0:
  14              		.cfi_sections	.debug_frame
  15              		.section	.text.main_screen_init,"ax",%progbits
  16              		.align	1
  17              		.global	main_screen_init
  18              		.arch armv7-m
  19              		.syntax unified
  20              		.thumb
  21              		.thumb_func
  22              		.fpu softvfp
  24              	main_screen_init:
  25              	.LFB66:
  26              		.file 1 "Src/main_screen.c"
   1:Src/main_screen.c **** #include "main_screen.h"
   2:Src/main_screen.c **** #include "u8g2.h"
   3:Src/main_screen.c **** #include "key.h"
   4:Src/main_screen.c **** #include "filter_data.h"
   5:Src/main_screen.c **** #include <stdlib.h>
   6:Src/main_screen.c **** 
   7:Src/main_screen.c **** u8g2_t u8g2;
   8:Src/main_screen.c **** 
   9:Src/main_screen.c **** MAIN_SCREEN_STR main_scr;
  10:Src/main_screen.c **** uint32_t Warn_Blink;
  11:Src/main_screen.c **** uint8_t blink = 1;
  12:Src/main_screen.c **** 
  13:Src/main_screen.c **** void main_screen_init(void)
  14:Src/main_screen.c **** {
  27              		.loc 1 14 1 view -0
  28              		.cfi_startproc
  29              		@ args = 0, pretend = 0, frame = 0
  30              		@ frame_needed = 0, uses_anonymous_args = 0
  31 0000 10B5     		push	{r4, lr}
  32              	.LCFI0:
  33              		.cfi_def_cfa_offset 8
  34              		.cfi_offset 4, -8
  35              		.cfi_offset 14, -4
  15:Src/main_screen.c ****     main_scr.lampStatus = 0;
  36              		.loc 1 15 5 view .LVU1
  37              		.loc 1 15 25 is_stmt 0 view .LVU2
  38 0002 094C     		ldr	r4, .L3
  39 0004 0023     		movs	r3, #0
  40 0006 2370     		strb	r3, [r4]
  16:Src/main_screen.c ****     main_scr.uvStatus = 0;
  41              		.loc 1 16 5 is_stmt 1 view .LVU3
  42              		.loc 1 16 23 is_stmt 0 view .LVU4
ARM GAS  C:\Users\behun\AppData\Local\Temp\ccTro3hg.s 			page 2


  43 0008 6370     		strb	r3, [r4, #1]
  17:Src/main_screen.c ****     main_scr.fanStatus = 0;
  44              		.loc 1 17 5 is_stmt 1 view .LVU5
  45              		.loc 1 17 24 is_stmt 0 view .LVU6
  46 000a A370     		strb	r3, [r4, #2]
  18:Src/main_screen.c ****     main_scr.socketStatus = 0;
  47              		.loc 1 18 5 is_stmt 1 view .LVU7
  48              		.loc 1 18 27 is_stmt 0 view .LVU8
  49 000c E370     		strb	r3, [r4, #3]
  19:Src/main_screen.c ****     main_scr.fanRotate = 0;
  50              		.loc 1 19 5 is_stmt 1 view .LVU9
  51              		.loc 1 19 24 is_stmt 0 view .LVU10
  52 000e 2371     		strb	r3, [r4, #4]
  20:Src/main_screen.c ****     u8g2_ClearBuffer(&u8g2);
  53              		.loc 1 20 5 is_stmt 1 view .LVU11
  54 0010 0648     		ldr	r0, .L3+4
  55 0012 FFF7FEFF 		bl	u8g2_ClearBuffer
  56              	.LVL0:
  21:Src/main_screen.c ****     main_scr.tick = HAL_GetTick();
  57              		.loc 1 21 5 view .LVU12
  58              		.loc 1 21 21 is_stmt 0 view .LVU13
  59 0016 FFF7FEFF 		bl	HAL_GetTick
  60              	.LVL1:
  61              		.loc 1 21 19 view .LVU14
  62 001a A060     		str	r0, [r4, #8]
  22:Src/main_screen.c ****     Warn_Blink = HAL_GetTick();
  63              		.loc 1 22 5 is_stmt 1 view .LVU15
  64              		.loc 1 22 18 is_stmt 0 view .LVU16
  65 001c FFF7FEFF 		bl	HAL_GetTick
  66              	.LVL2:
  67              		.loc 1 22 16 view .LVU17
  68 0020 034B     		ldr	r3, .L3+8
  69 0022 1860     		str	r0, [r3]
  23:Src/main_screen.c **** }
  70              		.loc 1 23 1 view .LVU18
  71 0024 10BD     		pop	{r4, pc}
  72              	.L4:
  73 0026 00BF     		.align	2
  74              	.L3:
  75 0028 00000000 		.word	main_scr
  76 002c 00000000 		.word	u8g2
  77 0030 00000000 		.word	Warn_Blink
  78              		.cfi_endproc
  79              	.LFE66:
  81              		.section	.text.Lamp_Status,"ax",%progbits
  82              		.align	1
  83              		.global	Lamp_Status
  84              		.syntax unified
  85              		.thumb
  86              		.thumb_func
  87              		.fpu softvfp
  89              	Lamp_Status:
  90              	.LVL3:
  91              	.LFB67:
  24:Src/main_screen.c **** 
  25:Src/main_screen.c **** void Lamp_Status(uint8_t lampStatus)
  26:Src/main_screen.c **** {
ARM GAS  C:\Users\behun\AppData\Local\Temp\ccTro3hg.s 			page 3


  92              		.loc 1 26 1 is_stmt 1 view -0
  93              		.cfi_startproc
  94              		@ args = 0, pretend = 0, frame = 0
  95              		@ frame_needed = 0, uses_anonymous_args = 0
  96              		.loc 1 26 1 is_stmt 0 view .LVU20
  97 0000 10B5     		push	{r4, lr}
  98              	.LCFI1:
  99              		.cfi_def_cfa_offset 8
 100              		.cfi_offset 4, -8
 101              		.cfi_offset 14, -4
 102 0002 82B0     		sub	sp, sp, #8
 103              	.LCFI2:
 104              		.cfi_def_cfa_offset 16
  27:Src/main_screen.c ****     if (lampStatus)
 105              		.loc 1 27 5 is_stmt 1 view .LVU21
 106              		.loc 1 27 8 is_stmt 0 view .LVU22
 107 0004 C0B1     		cbz	r0, .L6
  28:Src/main_screen.c ****     {
  29:Src/main_screen.c ****         // u8g2_ClearBuffer(&u8g2);
  30:Src/main_screen.c ****         u8g2_DrawBitmap(&u8g2, 0, 33, bmp_neon_on.width / 8, bmp_neon_on.height, bmp_neon_on.data);
 108              		.loc 1 30 9 is_stmt 1 view .LVU23
 109              		.loc 1 30 50 is_stmt 0 view .LVU24
 110 0006 184A     		ldr	r2, .L9
 111 0008 1378     		ldrb	r3, [r2]	@ zero_extendqisi2
 112              		.loc 1 30 9 view .LVU25
 113 000a 184C     		ldr	r4, .L9+4
 114 000c 5168     		ldr	r1, [r2, #4]
 115 000e 0191     		str	r1, [sp, #4]
 116 0010 5278     		ldrb	r2, [r2, #1]	@ zero_extendqisi2
 117 0012 0092     		str	r2, [sp]
 118 0014 DB08     		lsrs	r3, r3, #3
 119 0016 2122     		movs	r2, #33
 120 0018 0021     		movs	r1, #0
 121 001a 2046     		mov	r0, r4
 122              	.LVL4:
 123              		.loc 1 30 9 view .LVU26
 124 001c FFF7FEFF 		bl	u8g2_DrawBitmap
 125              	.LVL5:
  31:Src/main_screen.c ****         u8g2_SetFont(&u8g2, u8g2_font_micro_tr);
 126              		.loc 1 31 9 is_stmt 1 view .LVU27
 127 0020 1349     		ldr	r1, .L9+8
 128 0022 2046     		mov	r0, r4
 129 0024 FFF7FEFF 		bl	u8g2_SetFont
 130              	.LVL6:
  32:Src/main_screen.c ****         // u8g2_SetDrawColor(&u8g2, ~lampStatus);
  33:Src/main_screen.c ****         u8g2_DrawStr(&u8g2, 9, 33, "NEON");
 131              		.loc 1 33 9 view .LVU28
 132 0028 124B     		ldr	r3, .L9+12
 133 002a 2122     		movs	r2, #33
 134 002c 0921     		movs	r1, #9
 135 002e 2046     		mov	r0, r4
 136 0030 FFF7FEFF 		bl	u8g2_DrawStr
 137              	.LVL7:
 138              	.L5:
  34:Src/main_screen.c ****     }
  35:Src/main_screen.c ****     else
  36:Src/main_screen.c ****     {
ARM GAS  C:\Users\behun\AppData\Local\Temp\ccTro3hg.s 			page 4


  37:Src/main_screen.c ****         // u8g2_ClearBuffer(&u8g2);
  38:Src/main_screen.c ****         u8g2_DrawBitmap(&u8g2, 0, 33, bmp_neon_off.width / 8, bmp_neon_off.height, bmp_neon_off.dat
  39:Src/main_screen.c ****         u8g2_SetFont(&u8g2, u8g2_font_micro_tr);
  40:Src/main_screen.c ****         // u8g2_SetDrawColor(&u8g2, ~lampStatus);
  41:Src/main_screen.c ****         u8g2_DrawStr(&u8g2, 9, 33, "NEON");
  42:Src/main_screen.c ****     }
  43:Src/main_screen.c **** }
 139              		.loc 1 43 1 is_stmt 0 view .LVU29
 140 0034 02B0     		add	sp, sp, #8
 141              	.LCFI3:
 142              		.cfi_remember_state
 143              		.cfi_def_cfa_offset 8
 144              		@ sp needed
 145 0036 10BD     		pop	{r4, pc}
 146              	.LVL8:
 147              	.L6:
 148              	.LCFI4:
 149              		.cfi_restore_state
  38:Src/main_screen.c ****         u8g2_SetFont(&u8g2, u8g2_font_micro_tr);
 150              		.loc 1 38 9 is_stmt 1 view .LVU30
  38:Src/main_screen.c ****         u8g2_SetFont(&u8g2, u8g2_font_micro_tr);
 151              		.loc 1 38 51 is_stmt 0 view .LVU31
 152 0038 0F4A     		ldr	r2, .L9+16
 153 003a 1378     		ldrb	r3, [r2]	@ zero_extendqisi2
  38:Src/main_screen.c ****         u8g2_SetFont(&u8g2, u8g2_font_micro_tr);
 154              		.loc 1 38 9 view .LVU32
 155 003c 0B4C     		ldr	r4, .L9+4
 156 003e 5168     		ldr	r1, [r2, #4]
 157 0040 0191     		str	r1, [sp, #4]
 158 0042 5278     		ldrb	r2, [r2, #1]	@ zero_extendqisi2
 159 0044 0092     		str	r2, [sp]
 160 0046 DB08     		lsrs	r3, r3, #3
 161 0048 2122     		movs	r2, #33
 162 004a 0021     		movs	r1, #0
 163 004c 2046     		mov	r0, r4
 164              	.LVL9:
  38:Src/main_screen.c ****         u8g2_SetFont(&u8g2, u8g2_font_micro_tr);
 165              		.loc 1 38 9 view .LVU33
 166 004e FFF7FEFF 		bl	u8g2_DrawBitmap
 167              	.LVL10:
  39:Src/main_screen.c ****         // u8g2_SetDrawColor(&u8g2, ~lampStatus);
 168              		.loc 1 39 9 is_stmt 1 view .LVU34
 169 0052 0749     		ldr	r1, .L9+8
 170 0054 2046     		mov	r0, r4
 171 0056 FFF7FEFF 		bl	u8g2_SetFont
 172              	.LVL11:
  41:Src/main_screen.c ****     }
 173              		.loc 1 41 9 view .LVU35
 174 005a 064B     		ldr	r3, .L9+12
 175 005c 2122     		movs	r2, #33
 176 005e 0921     		movs	r1, #9
 177 0060 2046     		mov	r0, r4
 178 0062 FFF7FEFF 		bl	u8g2_DrawStr
 179              	.LVL12:
 180              		.loc 1 43 1 is_stmt 0 view .LVU36
 181 0066 E5E7     		b	.L5
 182              	.L10:
ARM GAS  C:\Users\behun\AppData\Local\Temp\ccTro3hg.s 			page 5


 183              		.align	2
 184              	.L9:
 185 0068 00000000 		.word	bmp_neon_on
 186 006c 00000000 		.word	u8g2
 187 0070 00000000 		.word	u8g2_font_micro_tr
 188 0074 00000000 		.word	.LC0
 189 0078 00000000 		.word	bmp_neon_off
 190              		.cfi_endproc
 191              	.LFE67:
 193              		.section	.text.UV_Status,"ax",%progbits
 194              		.align	1
 195              		.global	UV_Status
 196              		.syntax unified
 197              		.thumb
 198              		.thumb_func
 199              		.fpu softvfp
 201              	UV_Status:
 202              	.LVL13:
 203              	.LFB68:
  44:Src/main_screen.c **** void UV_Status(uint8_t uvStatus)
  45:Src/main_screen.c **** {
 204              		.loc 1 45 1 is_stmt 1 view -0
 205              		.cfi_startproc
 206              		@ args = 0, pretend = 0, frame = 0
 207              		@ frame_needed = 0, uses_anonymous_args = 0
 208              		.loc 1 45 1 is_stmt 0 view .LVU38
 209 0000 30B5     		push	{r4, r5, lr}
 210              	.LCFI5:
 211              		.cfi_def_cfa_offset 12
 212              		.cfi_offset 4, -12
 213              		.cfi_offset 5, -8
 214              		.cfi_offset 14, -4
 215 0002 83B0     		sub	sp, sp, #12
 216              	.LCFI6:
 217              		.cfi_def_cfa_offset 24
 218 0004 0546     		mov	r5, r0
  46:Src/main_screen.c ****     u8g2_SetFont(&u8g2, u8g2_font_micro_tr);
 219              		.loc 1 46 5 is_stmt 1 view .LVU39
 220 0006 134C     		ldr	r4, .L15
 221 0008 1349     		ldr	r1, .L15+4
 222 000a 2046     		mov	r0, r4
 223              	.LVL14:
 224              		.loc 1 46 5 is_stmt 0 view .LVU40
 225 000c FFF7FEFF 		bl	u8g2_SetFont
 226              	.LVL15:
  47:Src/main_screen.c ****     u8g2_DrawStr(&u8g2, 45, 33, "UV");
 227              		.loc 1 47 5 is_stmt 1 view .LVU41
 228 0010 124B     		ldr	r3, .L15+8
 229 0012 2122     		movs	r2, #33
 230 0014 2D21     		movs	r1, #45
 231 0016 2046     		mov	r0, r4
 232 0018 FFF7FEFF 		bl	u8g2_DrawStr
 233              	.LVL16:
  48:Src/main_screen.c ****     if (uvStatus)
 234              		.loc 1 48 5 view .LVU42
 235              		.loc 1 48 8 is_stmt 0 view .LVU43
 236 001c 6DB1     		cbz	r5, .L12
ARM GAS  C:\Users\behun\AppData\Local\Temp\ccTro3hg.s 			page 6


  49:Src/main_screen.c ****     {
  50:Src/main_screen.c ****         u8g2_DrawBitmap(&u8g2, 32, 33, bmp_uv_on.width / 8, bmp_uv_on.height, bmp_uv_on.data);
 237              		.loc 1 50 9 is_stmt 1 view .LVU44
 238              		.loc 1 50 49 is_stmt 0 view .LVU45
 239 001e 104A     		ldr	r2, .L15+12
 240 0020 1378     		ldrb	r3, [r2]	@ zero_extendqisi2
 241              		.loc 1 50 9 view .LVU46
 242 0022 5168     		ldr	r1, [r2, #4]
 243 0024 0191     		str	r1, [sp, #4]
 244 0026 5278     		ldrb	r2, [r2, #1]	@ zero_extendqisi2
 245 0028 0092     		str	r2, [sp]
 246 002a DB08     		lsrs	r3, r3, #3
 247 002c 2122     		movs	r2, #33
 248 002e 2021     		movs	r1, #32
 249 0030 2046     		mov	r0, r4
 250 0032 FFF7FEFF 		bl	u8g2_DrawBitmap
 251              	.LVL17:
 252              	.L11:
  51:Src/main_screen.c ****     }
  52:Src/main_screen.c ****     else
  53:Src/main_screen.c ****     {
  54:Src/main_screen.c ****         u8g2_DrawBitmap(&u8g2, 32, 33, bmp_uv_off.width / 8, bmp_uv_off.height, bmp_uv_off.data);
  55:Src/main_screen.c ****     }
  56:Src/main_screen.c **** }
 253              		.loc 1 56 1 view .LVU47
 254 0036 03B0     		add	sp, sp, #12
 255              	.LCFI7:
 256              		.cfi_remember_state
 257              		.cfi_def_cfa_offset 12
 258              		@ sp needed
 259 0038 30BD     		pop	{r4, r5, pc}
 260              	.L12:
 261              	.LCFI8:
 262              		.cfi_restore_state
  54:Src/main_screen.c ****     }
 263              		.loc 1 54 9 is_stmt 1 view .LVU48
  54:Src/main_screen.c ****     }
 264              		.loc 1 54 50 is_stmt 0 view .LVU49
 265 003a 0A4A     		ldr	r2, .L15+16
 266 003c 1378     		ldrb	r3, [r2]	@ zero_extendqisi2
  54:Src/main_screen.c ****     }
 267              		.loc 1 54 9 view .LVU50
 268 003e 5168     		ldr	r1, [r2, #4]
 269 0040 0191     		str	r1, [sp, #4]
 270 0042 5278     		ldrb	r2, [r2, #1]	@ zero_extendqisi2
 271 0044 0092     		str	r2, [sp]
 272 0046 DB08     		lsrs	r3, r3, #3
 273 0048 2122     		movs	r2, #33
 274 004a 2021     		movs	r1, #32
 275 004c 0148     		ldr	r0, .L15
 276 004e FFF7FEFF 		bl	u8g2_DrawBitmap
 277              	.LVL18:
 278              		.loc 1 56 1 view .LVU51
 279 0052 F0E7     		b	.L11
 280              	.L16:
 281              		.align	2
 282              	.L15:
ARM GAS  C:\Users\behun\AppData\Local\Temp\ccTro3hg.s 			page 7


 283 0054 00000000 		.word	u8g2
 284 0058 00000000 		.word	u8g2_font_micro_tr
 285 005c 00000000 		.word	.LC1
 286 0060 00000000 		.word	bmp_uv_on
 287 0064 00000000 		.word	bmp_uv_off
 288              		.cfi_endproc
 289              	.LFE68:
 291              		.section	.text.Fan_Status,"ax",%progbits
 292              		.align	1
 293              		.global	Fan_Status
 294              		.syntax unified
 295              		.thumb
 296              		.thumb_func
 297              		.fpu softvfp
 299              	Fan_Status:
 300              	.LVL19:
 301              	.LFB69:
  57:Src/main_screen.c **** 
  58:Src/main_screen.c **** void Fan_Status(uint8_t fanStatus)
  59:Src/main_screen.c **** {
 302              		.loc 1 59 1 is_stmt 1 view -0
 303              		.cfi_startproc
 304              		@ args = 0, pretend = 0, frame = 0
 305              		@ frame_needed = 0, uses_anonymous_args = 0
 306              		.loc 1 59 1 is_stmt 0 view .LVU53
 307 0000 10B5     		push	{r4, lr}
 308              	.LCFI9:
 309              		.cfi_def_cfa_offset 8
 310              		.cfi_offset 4, -8
 311              		.cfi_offset 14, -4
 312 0002 82B0     		sub	sp, sp, #8
 313              	.LCFI10:
 314              		.cfi_def_cfa_offset 16
  60:Src/main_screen.c ****     if ((HAL_GetTick() - main_scr.tick > 200) && main_scr.fanStatus)
 315              		.loc 1 60 5 is_stmt 1 view .LVU54
 316              		.loc 1 60 10 is_stmt 0 view .LVU55
 317 0004 FFF7FEFF 		bl	HAL_GetTick
 318              	.LVL20:
 319              		.loc 1 60 34 view .LVU56
 320 0008 214B     		ldr	r3, .L23
 321 000a 9B68     		ldr	r3, [r3, #8]
 322              		.loc 1 60 24 view .LVU57
 323 000c C01A     		subs	r0, r0, r3
 324              		.loc 1 60 8 view .LVU58
 325 000e C828     		cmp	r0, #200
 326 0010 02D9     		bls	.L18
 327              		.loc 1 60 58 discriminator 1 view .LVU59
 328 0012 1F4B     		ldr	r3, .L23
 329 0014 9B78     		ldrb	r3, [r3, #2]	@ zero_extendqisi2
 330              		.loc 1 60 47 discriminator 1 view .LVU60
 331 0016 DBB9     		cbnz	r3, .L22
 332              	.L18:
  61:Src/main_screen.c ****     {
  62:Src/main_screen.c ****         main_scr.fanRotate = ~main_scr.fanRotate;
  63:Src/main_screen.c ****         main_scr.tick = HAL_GetTick();
  64:Src/main_screen.c ****     }
  65:Src/main_screen.c ****     if (main_scr.fanRotate)
ARM GAS  C:\Users\behun\AppData\Local\Temp\ccTro3hg.s 			page 8


 333              		.loc 1 65 5 is_stmt 1 view .LVU61
 334              		.loc 1 65 17 is_stmt 0 view .LVU62
 335 0018 1D4B     		ldr	r3, .L23
 336 001a 1B79     		ldrb	r3, [r3, #4]	@ zero_extendqisi2
 337              		.loc 1 65 8 view .LVU63
 338 001c 03B3     		cbz	r3, .L19
  66:Src/main_screen.c ****     {
  67:Src/main_screen.c ****         u8g2_SetFont(&u8g2, u8g2_font_micro_tr);
 339              		.loc 1 67 9 is_stmt 1 view .LVU64
 340 001e 1D4C     		ldr	r4, .L23+4
 341 0020 1D49     		ldr	r1, .L23+8
 342 0022 2046     		mov	r0, r4
 343 0024 FFF7FEFF 		bl	u8g2_SetFont
 344              	.LVL21:
  68:Src/main_screen.c ****         u8g2_DrawStr(&u8g2, 75, 33, "FAN");
 345              		.loc 1 68 9 view .LVU65
 346 0028 1C4B     		ldr	r3, .L23+12
 347 002a 2122     		movs	r2, #33
 348 002c 4B21     		movs	r1, #75
 349 002e 2046     		mov	r0, r4
 350 0030 FFF7FEFF 		bl	u8g2_DrawStr
 351              	.LVL22:
  69:Src/main_screen.c ****         u8g2_DrawBitmap(&u8g2, 68, 38, bmp_fan_rotate.width / 8, bmp_fan_rotate.height, bmp_fan_rot
 352              		.loc 1 69 9 view .LVU66
 353              		.loc 1 69 54 is_stmt 0 view .LVU67
 354 0034 1A4A     		ldr	r2, .L23+16
 355 0036 1378     		ldrb	r3, [r2]	@ zero_extendqisi2
 356              		.loc 1 69 9 view .LVU68
 357 0038 5168     		ldr	r1, [r2, #4]
 358 003a 0191     		str	r1, [sp, #4]
 359 003c 5278     		ldrb	r2, [r2, #1]	@ zero_extendqisi2
 360 003e 0092     		str	r2, [sp]
 361 0040 DB08     		lsrs	r3, r3, #3
 362 0042 2622     		movs	r2, #38
 363 0044 4421     		movs	r1, #68
 364 0046 2046     		mov	r0, r4
 365 0048 FFF7FEFF 		bl	u8g2_DrawBitmap
 366              	.LVL23:
 367              	.L17:
  70:Src/main_screen.c ****     }
  71:Src/main_screen.c ****     else
  72:Src/main_screen.c ****     {
  73:Src/main_screen.c ****         u8g2_SetFont(&u8g2, u8g2_font_micro_tr);
  74:Src/main_screen.c ****         u8g2_DrawStr(&u8g2, 75, 33, "FAN");
  75:Src/main_screen.c ****         u8g2_DrawBitmap(&u8g2, 68, 38, bmp_fan_origin.width / 8, bmp_fan_origin.height, bmp_fan_ori
  76:Src/main_screen.c ****     }
  77:Src/main_screen.c **** }
 368              		.loc 1 77 1 view .LVU69
 369 004c 02B0     		add	sp, sp, #8
 370              	.LCFI11:
 371              		.cfi_remember_state
 372              		.cfi_def_cfa_offset 8
 373              		@ sp needed
 374 004e 10BD     		pop	{r4, pc}
 375              	.L22:
 376              	.LCFI12:
 377              		.cfi_restore_state
ARM GAS  C:\Users\behun\AppData\Local\Temp\ccTro3hg.s 			page 9


  62:Src/main_screen.c ****         main_scr.tick = HAL_GetTick();
 378              		.loc 1 62 9 is_stmt 1 view .LVU70
  62:Src/main_screen.c ****         main_scr.tick = HAL_GetTick();
 379              		.loc 1 62 39 is_stmt 0 view .LVU71
 380 0050 0F4C     		ldr	r4, .L23
 381 0052 2379     		ldrb	r3, [r4, #4]	@ zero_extendqisi2
  62:Src/main_screen.c ****         main_scr.tick = HAL_GetTick();
 382              		.loc 1 62 28 view .LVU72
 383 0054 DB43     		mvns	r3, r3
 384 0056 2371     		strb	r3, [r4, #4]
  63:Src/main_screen.c ****     }
 385              		.loc 1 63 9 is_stmt 1 view .LVU73
  63:Src/main_screen.c ****     }
 386              		.loc 1 63 25 is_stmt 0 view .LVU74
 387 0058 FFF7FEFF 		bl	HAL_GetTick
 388              	.LVL24:
  63:Src/main_screen.c ****     }
 389              		.loc 1 63 23 view .LVU75
 390 005c A060     		str	r0, [r4, #8]
 391 005e DBE7     		b	.L18
 392              	.L19:
  73:Src/main_screen.c ****         u8g2_DrawStr(&u8g2, 75, 33, "FAN");
 393              		.loc 1 73 9 is_stmt 1 view .LVU76
 394 0060 0C4C     		ldr	r4, .L23+4
 395 0062 0D49     		ldr	r1, .L23+8
 396 0064 2046     		mov	r0, r4
 397 0066 FFF7FEFF 		bl	u8g2_SetFont
 398              	.LVL25:
  74:Src/main_screen.c ****         u8g2_DrawBitmap(&u8g2, 68, 38, bmp_fan_origin.width / 8, bmp_fan_origin.height, bmp_fan_ori
 399              		.loc 1 74 9 view .LVU77
 400 006a 0C4B     		ldr	r3, .L23+12
 401 006c 2122     		movs	r2, #33
 402 006e 4B21     		movs	r1, #75
 403 0070 2046     		mov	r0, r4
 404 0072 FFF7FEFF 		bl	u8g2_DrawStr
 405              	.LVL26:
  75:Src/main_screen.c ****     }
 406              		.loc 1 75 9 view .LVU78
  75:Src/main_screen.c ****     }
 407              		.loc 1 75 54 is_stmt 0 view .LVU79
 408 0076 0B4A     		ldr	r2, .L23+20
 409 0078 1378     		ldrb	r3, [r2]	@ zero_extendqisi2
  75:Src/main_screen.c ****     }
 410              		.loc 1 75 9 view .LVU80
 411 007a 5168     		ldr	r1, [r2, #4]
 412 007c 0191     		str	r1, [sp, #4]
 413 007e 5278     		ldrb	r2, [r2, #1]	@ zero_extendqisi2
 414 0080 0092     		str	r2, [sp]
 415 0082 DB08     		lsrs	r3, r3, #3
 416 0084 2622     		movs	r2, #38
 417 0086 4421     		movs	r1, #68
 418 0088 2046     		mov	r0, r4
 419 008a FFF7FEFF 		bl	u8g2_DrawBitmap
 420              	.LVL27:
 421              		.loc 1 77 1 view .LVU81
 422 008e DDE7     		b	.L17
 423              	.L24:
ARM GAS  C:\Users\behun\AppData\Local\Temp\ccTro3hg.s 			page 10


 424              		.align	2
 425              	.L23:
 426 0090 00000000 		.word	main_scr
 427 0094 00000000 		.word	u8g2
 428 0098 00000000 		.word	u8g2_font_micro_tr
 429 009c 00000000 		.word	.LC2
 430 00a0 00000000 		.word	bmp_fan_rotate
 431 00a4 00000000 		.word	bmp_fan_origin
 432              		.cfi_endproc
 433              	.LFE69:
 435              		.section	.text.Socket_Status,"ax",%progbits
 436              		.align	1
 437              		.global	Socket_Status
 438              		.syntax unified
 439              		.thumb
 440              		.thumb_func
 441              		.fpu softvfp
 443              	Socket_Status:
 444              	.LVL28:
 445              	.LFB70:
  78:Src/main_screen.c **** void Socket_Status(uint8_t sStatus)
  79:Src/main_screen.c **** {
 446              		.loc 1 79 1 is_stmt 1 view -0
 447              		.cfi_startproc
 448              		@ args = 0, pretend = 0, frame = 0
 449              		@ frame_needed = 0, uses_anonymous_args = 0
 450              		.loc 1 79 1 is_stmt 0 view .LVU83
 451 0000 10B5     		push	{r4, lr}
 452              	.LCFI13:
 453              		.cfi_def_cfa_offset 8
 454              		.cfi_offset 4, -8
 455              		.cfi_offset 14, -4
 456 0002 82B0     		sub	sp, sp, #8
 457              	.LCFI14:
 458              		.cfi_def_cfa_offset 16
  80:Src/main_screen.c ****     if (sStatus)
 459              		.loc 1 80 5 is_stmt 1 view .LVU84
 460              		.loc 1 80 8 is_stmt 0 view .LVU85
 461 0004 10B3     		cbz	r0, .L26
  81:Src/main_screen.c ****     {
  82:Src/main_screen.c ****         u8g2_DrawBitmap(&u8g2, 98, 34, bmp_socket_on.width / 8, bmp_socket_on.height, bmp_socket_on
 462              		.loc 1 82 9 is_stmt 1 view .LVU86
 463              		.loc 1 82 53 is_stmt 0 view .LVU87
 464 0006 224A     		ldr	r2, .L29
 465 0008 1378     		ldrb	r3, [r2]	@ zero_extendqisi2
 466              		.loc 1 82 9 view .LVU88
 467 000a 224C     		ldr	r4, .L29+4
 468 000c 5168     		ldr	r1, [r2, #4]
 469 000e 0191     		str	r1, [sp, #4]
 470 0010 5278     		ldrb	r2, [r2, #1]	@ zero_extendqisi2
 471 0012 0092     		str	r2, [sp]
 472 0014 DB08     		lsrs	r3, r3, #3
 473 0016 2222     		movs	r2, #34
 474 0018 6221     		movs	r1, #98
 475 001a 2046     		mov	r0, r4
 476              	.LVL29:
 477              		.loc 1 82 9 view .LVU89
ARM GAS  C:\Users\behun\AppData\Local\Temp\ccTro3hg.s 			page 11


 478 001c FFF7FEFF 		bl	u8g2_DrawBitmap
 479              	.LVL30:
  83:Src/main_screen.c ****         u8g2_SetFont(&u8g2, u8g2_font_u8glib_4_tf);
 480              		.loc 1 83 9 is_stmt 1 view .LVU90
 481 0020 1D49     		ldr	r1, .L29+8
 482 0022 2046     		mov	r0, r4
 483 0024 FFF7FEFF 		bl	u8g2_SetFont
 484              	.LVL31:
  84:Src/main_screen.c ****         u8g2_DrawStr(&u8g2, 108, 62, "ON");
 485              		.loc 1 84 9 view .LVU91
 486 0028 1C4B     		ldr	r3, .L29+12
 487 002a 3E22     		movs	r2, #62
 488 002c 6C21     		movs	r1, #108
 489 002e 2046     		mov	r0, r4
 490 0030 FFF7FEFF 		bl	u8g2_DrawStr
 491              	.LVL32:
  85:Src/main_screen.c ****         u8g2_SetFont(&u8g2, u8g2_font_micro_tr);
 492              		.loc 1 85 9 view .LVU92
 493 0034 1A49     		ldr	r1, .L29+16
 494 0036 2046     		mov	r0, r4
 495 0038 FFF7FEFF 		bl	u8g2_SetFont
 496              	.LVL33:
  86:Src/main_screen.c ****         // u8g2_SetDrawColor(&u8g2, ~sStatus);
  87:Src/main_screen.c ****         u8g2_DrawStr(&u8g2, 101, 33, "SOCKET");
 497              		.loc 1 87 9 view .LVU93
 498 003c 194B     		ldr	r3, .L29+20
 499 003e 2122     		movs	r2, #33
 500 0040 6521     		movs	r1, #101
 501 0042 2046     		mov	r0, r4
 502 0044 FFF7FEFF 		bl	u8g2_DrawStr
 503              	.LVL34:
 504              	.L25:
  88:Src/main_screen.c ****     }
  89:Src/main_screen.c ****     else
  90:Src/main_screen.c ****     {
  91:Src/main_screen.c ****         u8g2_DrawBitmap(&u8g2, 98, 34, bmp_socket_off.width / 8, bmp_socket_off.height, bmp_socket_
  92:Src/main_screen.c ****         u8g2_SetFont(&u8g2, u8g2_font_u8glib_4_tf);
  93:Src/main_screen.c ****         u8g2_DrawStr(&u8g2, 105, 62, "OFF");
  94:Src/main_screen.c ****         u8g2_SetFont(&u8g2, u8g2_font_micro_tr);
  95:Src/main_screen.c ****         // u8g2_SetDrawColor(&u8g2, ~sStatus);
  96:Src/main_screen.c ****         u8g2_DrawStr(&u8g2, 101, 33, "SOCKET");
  97:Src/main_screen.c ****     }
  98:Src/main_screen.c **** }
 505              		.loc 1 98 1 is_stmt 0 view .LVU94
 506 0048 02B0     		add	sp, sp, #8
 507              	.LCFI15:
 508              		.cfi_remember_state
 509              		.cfi_def_cfa_offset 8
 510              		@ sp needed
 511 004a 10BD     		pop	{r4, pc}
 512              	.LVL35:
 513              	.L26:
 514              	.LCFI16:
 515              		.cfi_restore_state
  91:Src/main_screen.c ****         u8g2_SetFont(&u8g2, u8g2_font_u8glib_4_tf);
 516              		.loc 1 91 9 is_stmt 1 view .LVU95
  91:Src/main_screen.c ****         u8g2_SetFont(&u8g2, u8g2_font_u8glib_4_tf);
ARM GAS  C:\Users\behun\AppData\Local\Temp\ccTro3hg.s 			page 12


 517              		.loc 1 91 54 is_stmt 0 view .LVU96
 518 004c 164A     		ldr	r2, .L29+24
 519 004e 1378     		ldrb	r3, [r2]	@ zero_extendqisi2
  91:Src/main_screen.c ****         u8g2_SetFont(&u8g2, u8g2_font_u8glib_4_tf);
 520              		.loc 1 91 9 view .LVU97
 521 0050 104C     		ldr	r4, .L29+4
 522 0052 5168     		ldr	r1, [r2, #4]
 523 0054 0191     		str	r1, [sp, #4]
 524 0056 5278     		ldrb	r2, [r2, #1]	@ zero_extendqisi2
 525 0058 0092     		str	r2, [sp]
 526 005a DB08     		lsrs	r3, r3, #3
 527 005c 2222     		movs	r2, #34
 528 005e 6221     		movs	r1, #98
 529 0060 2046     		mov	r0, r4
 530              	.LVL36:
  91:Src/main_screen.c ****         u8g2_SetFont(&u8g2, u8g2_font_u8glib_4_tf);
 531              		.loc 1 91 9 view .LVU98
 532 0062 FFF7FEFF 		bl	u8g2_DrawBitmap
 533              	.LVL37:
  92:Src/main_screen.c ****         u8g2_DrawStr(&u8g2, 105, 62, "OFF");
 534              		.loc 1 92 9 is_stmt 1 view .LVU99
 535 0066 0C49     		ldr	r1, .L29+8
 536 0068 2046     		mov	r0, r4
 537 006a FFF7FEFF 		bl	u8g2_SetFont
 538              	.LVL38:
  93:Src/main_screen.c ****         u8g2_SetFont(&u8g2, u8g2_font_micro_tr);
 539              		.loc 1 93 9 view .LVU100
 540 006e 0F4B     		ldr	r3, .L29+28
 541 0070 3E22     		movs	r2, #62
 542 0072 6921     		movs	r1, #105
 543 0074 2046     		mov	r0, r4
 544 0076 FFF7FEFF 		bl	u8g2_DrawStr
 545              	.LVL39:
  94:Src/main_screen.c ****         // u8g2_SetDrawColor(&u8g2, ~sStatus);
 546              		.loc 1 94 9 view .LVU101
 547 007a 0949     		ldr	r1, .L29+16
 548 007c 2046     		mov	r0, r4
 549 007e FFF7FEFF 		bl	u8g2_SetFont
 550              	.LVL40:
  96:Src/main_screen.c ****     }
 551              		.loc 1 96 9 view .LVU102
 552 0082 084B     		ldr	r3, .L29+20
 553 0084 2122     		movs	r2, #33
 554 0086 6521     		movs	r1, #101
 555 0088 2046     		mov	r0, r4
 556 008a FFF7FEFF 		bl	u8g2_DrawStr
 557              	.LVL41:
 558              		.loc 1 98 1 is_stmt 0 view .LVU103
 559 008e DBE7     		b	.L25
 560              	.L30:
 561              		.align	2
 562              	.L29:
 563 0090 00000000 		.word	bmp_socket_on
 564 0094 00000000 		.word	u8g2
 565 0098 00000000 		.word	u8g2_font_u8glib_4_tf
 566 009c 00000000 		.word	.LC3
 567 00a0 00000000 		.word	u8g2_font_micro_tr
ARM GAS  C:\Users\behun\AppData\Local\Temp\ccTro3hg.s 			page 13


 568 00a4 04000000 		.word	.LC4
 569 00a8 00000000 		.word	bmp_socket_off
 570 00ac 0C000000 		.word	.LC5
 571              		.cfi_endproc
 572              	.LFE70:
 574              		.section	.text.Filter_Val,"ax",%progbits
 575              		.align	1
 576              		.global	Filter_Val
 577              		.syntax unified
 578              		.thumb
 579              		.thumb_func
 580              		.fpu softvfp
 582              	Filter_Val:
 583              	.LVL42:
 584              	.LFB71:
  99:Src/main_screen.c **** 
 100:Src/main_screen.c **** /*void Filter_Pcent(uint8_t percent)
 101:Src/main_screen.c **** {
 102:Src/main_screen.c ****     uint8_t buff[5];
 103:Src/main_screen.c ****     uint8_t warnBuff[30];
 104:Src/main_screen.c ****     uint8_t line;
 105:Src/main_screen.c ****     line = percent * 50 / 100;
 106:Src/main_screen.c ****     u8g2_SetFont(&u8g2, u8g2_font_5x7_tf);
 107:Src/main_screen.c ****     if((percent <= 100) && (percent >= 70))
 108:Src/main_screen.c ****         u8g2_DrawStr(&u8g2, 17, 21, "The filter is good!");
 109:Src/main_screen.c ****     else if((percent <= 70) && (percent > 40))
 110:Src/main_screen.c ****         u8g2_DrawStr(&u8g2, 17, 21, "The filter medium!");
 111:Src/main_screen.c ****     else if((percent <= 40) && (percent > 10))
 112:Src/main_screen.c ****         u8g2_DrawStr(&u8g2, 17, 21, "The filter low!");
 113:Src/main_screen.c ****     else
 114:Src/main_screen.c ****     {
 115:Src/main_screen.c ****         if(HAL_GetTick() - Warn_Blink > 1000)
 116:Src/main_screen.c ****         {
 117:Src/main_screen.c ****             blink = !blink;
 118:Src/main_screen.c ****             printf("Blinkd: %d \n", blink);
 119:Src/main_screen.c ****             Warn_Blink = HAL_GetTick();
 120:Src/main_screen.c ****         }
 121:Src/main_screen.c ****         u8g2_SetFont(&u8g2, u8g2_font_5x7_mf);
 122:Src/main_screen.c ****         blink?u8g2_DrawStr(&u8g2, 17, 21, "Please change filter!"):u8g2_DrawStr(&u8g2, 17, 21, "   
 123:Src/main_screen.c ****         // blink?sprintf(warnBuff, "Please change filter!"):sprintf(warnBuff, "                 ");
 124:Src/main_screen.c ****         // if(blink)
 125:Src/main_screen.c ****         // {
 126:Src/main_screen.c ****         //     u8g2_SetFont(&u8g2, u8g2_font_5x7_mf);
 127:Src/main_screen.c ****         //     u8g2_DrawStr(&u8g2, 17, 21, "                      ");
 128:Src/main_screen.c ****         // }
 129:Src/main_screen.c ****         // else
 130:Src/main_screen.c ****         // {
 131:Src/main_screen.c ****         //     u8g2_SetFont(&u8g2, u8g2_font_5x7_mf);
 132:Src/main_screen.c ****         //     u8g2_DrawStr(&u8g2, 17, 21, "Please change filter!");
 133:Src/main_screen.c ****         // }
 134:Src/main_screen.c ****     }
 135:Src/main_screen.c ****     u8g2_DrawStr(&u8g2, 7, 10, "Filter:");
 136:Src/main_screen.c ****     u8g2_DrawFrame(&u8g2, 43, 2, 54, 10);
 137:Src/main_screen.c ****     sprintf(buff, "%d %%", percent);
 138:Src/main_screen.c ****     u8g2_DrawStr(&u8g2, 98, 10, buff);
 139:Src/main_screen.c ****     u8g2_DrawBox(&u8g2, 45, 4, line, 6); 
 140:Src/main_screen.c ****         
ARM GAS  C:\Users\behun\AppData\Local\Temp\ccTro3hg.s 			page 14


 141:Src/main_screen.c **** }*/
 142:Src/main_screen.c **** void Filter_Val(uint16_t val)
 143:Src/main_screen.c **** {
 585              		.loc 1 143 1 is_stmt 1 view -0
 586              		.cfi_startproc
 587              		@ args = 0, pretend = 0, frame = 8
 588              		@ frame_needed = 0, uses_anonymous_args = 0
 589              		.loc 1 143 1 is_stmt 0 view .LVU105
 590 0000 70B5     		push	{r4, r5, r6, lr}
 591              	.LCFI17:
 592              		.cfi_def_cfa_offset 16
 593              		.cfi_offset 4, -16
 594              		.cfi_offset 5, -12
 595              		.cfi_offset 6, -8
 596              		.cfi_offset 14, -4
 597 0002 84B0     		sub	sp, sp, #16
 598              	.LCFI18:
 599              		.cfi_def_cfa_offset 32
 600 0004 0446     		mov	r4, r0
 144:Src/main_screen.c ****     uint8_t perc[3];
 601              		.loc 1 144 5 is_stmt 1 view .LVU106
 145:Src/main_screen.c ****     u8g2_SetFont(&u8g2, u8g2_font_5x7_mf);
 602              		.loc 1 145 5 view .LVU107
 603 0006 5B4D     		ldr	r5, .L46
 604 0008 5B49     		ldr	r1, .L46+4
 605 000a 2846     		mov	r0, r5
 606              	.LVL43:
 607              		.loc 1 145 5 is_stmt 0 view .LVU108
 608 000c FFF7FEFF 		bl	u8g2_SetFont
 609              	.LVL44:
 146:Src/main_screen.c ****     u8g2_DrawStr(&u8g2, 7, 10, "Filter:");
 610              		.loc 1 146 5 is_stmt 1 view .LVU109
 611 0010 5A4B     		ldr	r3, .L46+8
 612 0012 0A22     		movs	r2, #10
 613 0014 0721     		movs	r1, #7
 614 0016 2846     		mov	r0, r5
 615 0018 FFF7FEFF 		bl	u8g2_DrawStr
 616              	.LVL45:
 147:Src/main_screen.c ****     u8g2_DrawFrame(&u8g2, 43, 2, 54, 10);
 617              		.loc 1 147 5 view .LVU110
 618 001c 0A23     		movs	r3, #10
 619 001e 0093     		str	r3, [sp]
 620 0020 3623     		movs	r3, #54
 621 0022 0222     		movs	r2, #2
 622 0024 2B21     		movs	r1, #43
 623 0026 2846     		mov	r0, r5
 624 0028 FFF7FEFF 		bl	u8g2_DrawFrame
 625              	.LVL46:
 148:Src/main_screen.c ****     if (val < Min_Pa)
 626              		.loc 1 148 5 view .LVU111
 627              		.loc 1 148 8 is_stmt 0 view .LVU112
 628 002c 0E2C     		cmp	r4, #14
 629 002e 0AD9     		bls	.L42
 630              	.L32:
 149:Src/main_screen.c ****     {
 150:Src/main_screen.c ****         u8g2_DrawStr(&u8g2, 98, 10, itoa(Max_Percent, perc, 10)); //variable x
 151:Src/main_screen.c ****         u8g2_DrawBox(&u8g2, 45, 4, Max_Pixel, 6);                 //Value of filter
ARM GAS  C:\Users\behun\AppData\Local\Temp\ccTro3hg.s 			page 15


 152:Src/main_screen.c ****         u8g2_DrawStr(&u8g2, 115, 10, "%");
 153:Src/main_screen.c ****         u8g2_DrawStr(&u8g2, 18, 21, "The filter is new!"); // When Filter = 100%, show string char.
 154:Src/main_screen.c ****         // printf("filter is good\n");
 155:Src/main_screen.c ****     }
 156:Src/main_screen.c ****     if (val >= Min_Pa && val <= Min_Pa * 19)
 631              		.loc 1 156 5 is_stmt 1 view .LVU113
 632              		.loc 1 156 23 is_stmt 0 view .LVU114
 633 0030 A4F10F03 		sub	r3, r4, #15
 634 0034 9BB2     		uxth	r3, r3
 635              		.loc 1 156 8 view .LVU115
 636 0036 B3F5877F 		cmp	r3, #270
 637 003a 34D9     		bls	.L40
 638              	.L34:
 157:Src/main_screen.c ****     {
 158:Src/main_screen.c ****         for (uint8_t i = 1; i <= 19; i++)
 159:Src/main_screen.c ****         {
 160:Src/main_screen.c ****             if ((val >= Min_Pa * i) && (val < Min_Pa * (i + 1)))
 161:Src/main_screen.c ****                 filt_data.count = i;
 162:Src/main_screen.c ****         }
 163:Src/main_screen.c ****         filt_data.pc = Max_Percent - (4 * filt_data.count);
 164:Src/main_screen.c ****         filt_data.px = Max_Pixel - (2 * filt_data.count);
 165:Src/main_screen.c ****         u8g2_DrawStr(&u8g2, 99, 10, itoa(filt_data.pc, perc, 10)); //variable x
 166:Src/main_screen.c ****         u8g2_DrawBox(&u8g2, 45, 4, filt_data.px, 6);               //Value of filter
 167:Src/main_screen.c ****         u8g2_DrawStr(&u8g2, 111, 10, "%");
 168:Src/main_screen.c ****         u8g2_DrawStr(&u8g2, 10, 21, "The filter is working!"); // When Filter = 100%, show string c
 169:Src/main_screen.c ****         // printf("filter is working\n");
 170:Src/main_screen.c ****     }
 171:Src/main_screen.c **** 
 172:Src/main_screen.c ****     if (val >= Max_Pa)
 639              		.loc 1 172 5 is_stmt 1 view .LVU116
 640              		.loc 1 172 8 is_stmt 0 view .LVU117
 641 003c B4F5967F 		cmp	r4, #300
 642 0040 5DD2     		bcs	.L43
 643              	.L31:
 173:Src/main_screen.c ****     {
 174:Src/main_screen.c ****         u8g2_DrawStr(&u8g2, 99, 10, itoa(Min_Percent, perc, 10)); //variable x
 175:Src/main_screen.c ****         u8g2_DrawBox(&u8g2, 45, 4, Min_Pixel, 6);                 //Value of filter
 176:Src/main_screen.c ****         u8g2_DrawStr(&u8g2, 111, 10, "%");
 177:Src/main_screen.c ****         // printf("The filter is Maximun!\n");
 178:Src/main_screen.c ****         if (HAL_GetTick() - filt_data.tick > 1000)
 179:Src/main_screen.c ****         {
 180:Src/main_screen.c ****             filt_data.reverse = ~filt_data.reverse;
 181:Src/main_screen.c ****             filt_data.tick = HAL_GetTick();
 182:Src/main_screen.c ****         }
 183:Src/main_screen.c ****         filt_data.reverse ? u8g2_DrawStr(&u8g2, 2, 21, "Please change the filter!") : u8g2_DrawStr(
 184:Src/main_screen.c ****         // When Filter is 20%, show string char.
 185:Src/main_screen.c ****     }
 186:Src/main_screen.c **** }
 644              		.loc 1 186 1 view .LVU118
 645 0042 04B0     		add	sp, sp, #16
 646              	.LCFI19:
 647              		.cfi_remember_state
 648              		.cfi_def_cfa_offset 16
 649              		@ sp needed
 650 0044 70BD     		pop	{r4, r5, r6, pc}
 651              	.L42:
 652              	.LCFI20:
ARM GAS  C:\Users\behun\AppData\Local\Temp\ccTro3hg.s 			page 16


 653              		.cfi_restore_state
 150:Src/main_screen.c ****         u8g2_DrawBox(&u8g2, 45, 4, Max_Pixel, 6);                 //Value of filter
 654              		.loc 1 150 9 is_stmt 1 view .LVU119
 150:Src/main_screen.c ****         u8g2_DrawBox(&u8g2, 45, 4, Max_Pixel, 6);                 //Value of filter
 655              		.loc 1 150 37 is_stmt 0 view .LVU120
 656 0046 0A22     		movs	r2, #10
 657 0048 03A9     		add	r1, sp, #12
 658 004a 6420     		movs	r0, #100
 659 004c FFF7FEFF 		bl	itoa
 660              	.LVL47:
 150:Src/main_screen.c ****         u8g2_DrawBox(&u8g2, 45, 4, Max_Pixel, 6);                 //Value of filter
 661              		.loc 1 150 9 view .LVU121
 662 0050 0346     		mov	r3, r0
 663 0052 0A22     		movs	r2, #10
 664 0054 6221     		movs	r1, #98
 665 0056 2846     		mov	r0, r5
 666 0058 FFF7FEFF 		bl	u8g2_DrawStr
 667              	.LVL48:
 151:Src/main_screen.c ****         u8g2_DrawStr(&u8g2, 115, 10, "%");
 668              		.loc 1 151 9 is_stmt 1 view .LVU122
 669 005c 0623     		movs	r3, #6
 670 005e 0093     		str	r3, [sp]
 671 0060 3223     		movs	r3, #50
 672 0062 0422     		movs	r2, #4
 673 0064 2D21     		movs	r1, #45
 674 0066 2846     		mov	r0, r5
 675 0068 FFF7FEFF 		bl	u8g2_DrawBox
 676              	.LVL49:
 152:Src/main_screen.c ****         u8g2_DrawStr(&u8g2, 18, 21, "The filter is new!"); // When Filter = 100%, show string char.
 677              		.loc 1 152 9 view .LVU123
 678 006c 444B     		ldr	r3, .L46+12
 679 006e 0A22     		movs	r2, #10
 680 0070 7321     		movs	r1, #115
 681 0072 2846     		mov	r0, r5
 682 0074 FFF7FEFF 		bl	u8g2_DrawStr
 683              	.LVL50:
 153:Src/main_screen.c ****         // printf("filter is good\n");
 684              		.loc 1 153 9 view .LVU124
 685 0078 424B     		ldr	r3, .L46+16
 686 007a 1522     		movs	r2, #21
 687 007c 1221     		movs	r1, #18
 688 007e 2846     		mov	r0, r5
 689 0080 FFF7FEFF 		bl	u8g2_DrawStr
 690              	.LVL51:
 691 0084 D4E7     		b	.L32
 692              	.LVL52:
 693              	.L35:
 694              	.LBB2:
 158:Src/main_screen.c ****         {
 695              		.loc 1 158 39 is_stmt 0 discriminator 2 view .LVU125
 696 0086 0133     		adds	r3, r3, #1
 697              	.LVL53:
 158:Src/main_screen.c ****         {
 698              		.loc 1 158 39 discriminator 2 view .LVU126
 699 0088 DBB2     		uxtb	r3, r3
 700              	.LVL54:
 701              	.L33:
ARM GAS  C:\Users\behun\AppData\Local\Temp\ccTro3hg.s 			page 17


 158:Src/main_screen.c ****         {
 702              		.loc 1 158 9 discriminator 1 view .LVU127
 703 008a 132B     		cmp	r3, #19
 704 008c 0DD8     		bhi	.L44
 160:Src/main_screen.c ****                 filt_data.count = i;
 705              		.loc 1 160 13 is_stmt 1 view .LVU128
 160:Src/main_screen.c ****                 filt_data.count = i;
 706              		.loc 1 160 32 is_stmt 0 view .LVU129
 707 008e C3EB0312 		rsb	r2, r3, r3, lsl #4
 160:Src/main_screen.c ****                 filt_data.count = i;
 708              		.loc 1 160 16 view .LVU130
 709 0092 9442     		cmp	r4, r2
 710 0094 F7DB     		blt	.L35
 160:Src/main_screen.c ****                 filt_data.count = i;
 711              		.loc 1 160 59 discriminator 1 view .LVU131
 712 0096 5A1C     		adds	r2, r3, #1
 160:Src/main_screen.c ****                 filt_data.count = i;
 713              		.loc 1 160 54 discriminator 1 view .LVU132
 714 0098 C2EB0212 		rsb	r2, r2, r2, lsl #4
 160:Src/main_screen.c ****                 filt_data.count = i;
 715              		.loc 1 160 37 discriminator 1 view .LVU133
 716 009c 9442     		cmp	r4, r2
 717 009e F2DA     		bge	.L35
 161:Src/main_screen.c ****         }
 718              		.loc 1 161 17 is_stmt 1 view .LVU134
 161:Src/main_screen.c ****         }
 719              		.loc 1 161 33 is_stmt 0 view .LVU135
 720 00a0 394A     		ldr	r2, .L46+20
 721 00a2 1373     		strb	r3, [r2, #12]
 722 00a4 EFE7     		b	.L35
 723              	.LVL55:
 724              	.L40:
 158:Src/main_screen.c ****         {
 725              		.loc 1 158 22 view .LVU136
 726 00a6 0123     		movs	r3, #1
 727 00a8 EFE7     		b	.L33
 728              	.LVL56:
 729              	.L44:
 158:Src/main_screen.c ****         {
 730              		.loc 1 158 22 view .LVU137
 731              	.LBE2:
 163:Src/main_screen.c ****         filt_data.px = Max_Pixel - (2 * filt_data.count);
 732              		.loc 1 163 9 is_stmt 1 view .LVU138
 163:Src/main_screen.c ****         filt_data.px = Max_Pixel - (2 * filt_data.count);
 733              		.loc 1 163 52 is_stmt 0 view .LVU139
 734 00aa 374E     		ldr	r6, .L46+20
 735 00ac 337B     		ldrb	r3, [r6, #12]	@ zero_extendqisi2
 736              	.LVL57:
 163:Src/main_screen.c ****         filt_data.px = Max_Pixel - (2 * filt_data.count);
 737              		.loc 1 163 36 view .LVU140
 738 00ae C3F11903 		rsb	r3, r3, #25
 163:Src/main_screen.c ****         filt_data.px = Max_Pixel - (2 * filt_data.count);
 739              		.loc 1 163 22 view .LVU141
 740 00b2 DBB2     		uxtb	r3, r3
 741 00b4 9800     		lsls	r0, r3, #2
 742 00b6 C0B2     		uxtb	r0, r0
 743 00b8 3071     		strb	r0, [r6, #4]
ARM GAS  C:\Users\behun\AppData\Local\Temp\ccTro3hg.s 			page 18


 164:Src/main_screen.c ****         u8g2_DrawStr(&u8g2, 99, 10, itoa(filt_data.pc, perc, 10)); //variable x
 744              		.loc 1 164 9 is_stmt 1 view .LVU142
 164:Src/main_screen.c ****         u8g2_DrawStr(&u8g2, 99, 10, itoa(filt_data.pc, perc, 10)); //variable x
 745              		.loc 1 164 22 is_stmt 0 view .LVU143
 746 00ba 5B00     		lsls	r3, r3, #1
 747 00bc F370     		strb	r3, [r6, #3]
 165:Src/main_screen.c ****         u8g2_DrawBox(&u8g2, 45, 4, filt_data.px, 6);               //Value of filter
 748              		.loc 1 165 9 is_stmt 1 view .LVU144
 165:Src/main_screen.c ****         u8g2_DrawBox(&u8g2, 45, 4, filt_data.px, 6);               //Value of filter
 749              		.loc 1 165 37 is_stmt 0 view .LVU145
 750 00be 0A22     		movs	r2, #10
 751 00c0 03A9     		add	r1, sp, #12
 752 00c2 FFF7FEFF 		bl	itoa
 753              	.LVL58:
 165:Src/main_screen.c ****         u8g2_DrawBox(&u8g2, 45, 4, filt_data.px, 6);               //Value of filter
 754              		.loc 1 165 9 view .LVU146
 755 00c6 2B4D     		ldr	r5, .L46
 756 00c8 0346     		mov	r3, r0
 757 00ca 0A22     		movs	r2, #10
 758 00cc 6321     		movs	r1, #99
 759 00ce 2846     		mov	r0, r5
 760 00d0 FFF7FEFF 		bl	u8g2_DrawStr
 761              	.LVL59:
 166:Src/main_screen.c ****         u8g2_DrawStr(&u8g2, 111, 10, "%");
 762              		.loc 1 166 9 is_stmt 1 view .LVU147
 763 00d4 0623     		movs	r3, #6
 764 00d6 0093     		str	r3, [sp]
 765 00d8 F378     		ldrb	r3, [r6, #3]	@ zero_extendqisi2
 766 00da 0422     		movs	r2, #4
 767 00dc 2D21     		movs	r1, #45
 768 00de 2846     		mov	r0, r5
 769 00e0 FFF7FEFF 		bl	u8g2_DrawBox
 770              	.LVL60:
 167:Src/main_screen.c ****         u8g2_DrawStr(&u8g2, 10, 21, "The filter is working!"); // When Filter = 100%, show string c
 771              		.loc 1 167 9 view .LVU148
 772 00e4 264B     		ldr	r3, .L46+12
 773 00e6 0A22     		movs	r2, #10
 774 00e8 6F21     		movs	r1, #111
 775 00ea 2846     		mov	r0, r5
 776 00ec FFF7FEFF 		bl	u8g2_DrawStr
 777              	.LVL61:
 168:Src/main_screen.c ****         // printf("filter is working\n");
 778              		.loc 1 168 9 view .LVU149
 779 00f0 264B     		ldr	r3, .L46+24
 780 00f2 1522     		movs	r2, #21
 781 00f4 0A21     		movs	r1, #10
 782 00f6 2846     		mov	r0, r5
 783 00f8 FFF7FEFF 		bl	u8g2_DrawStr
 784              	.LVL62:
 785 00fc 9EE7     		b	.L34
 786              	.L43:
 174:Src/main_screen.c ****         u8g2_DrawBox(&u8g2, 45, 4, Min_Pixel, 6);                 //Value of filter
 787              		.loc 1 174 9 view .LVU150
 174:Src/main_screen.c ****         u8g2_DrawBox(&u8g2, 45, 4, Min_Pixel, 6);                 //Value of filter
 788              		.loc 1 174 37 is_stmt 0 view .LVU151
 789 00fe 0A22     		movs	r2, #10
 790 0100 03A9     		add	r1, sp, #12
ARM GAS  C:\Users\behun\AppData\Local\Temp\ccTro3hg.s 			page 19


 791 0102 1420     		movs	r0, #20
 792 0104 FFF7FEFF 		bl	itoa
 793              	.LVL63:
 174:Src/main_screen.c ****         u8g2_DrawBox(&u8g2, 45, 4, Min_Pixel, 6);                 //Value of filter
 794              		.loc 1 174 9 view .LVU152
 795 0108 1A4C     		ldr	r4, .L46
 796 010a 0346     		mov	r3, r0
 797 010c 0A22     		movs	r2, #10
 798 010e 6321     		movs	r1, #99
 799 0110 2046     		mov	r0, r4
 800 0112 FFF7FEFF 		bl	u8g2_DrawStr
 801              	.LVL64:
 175:Src/main_screen.c ****         u8g2_DrawStr(&u8g2, 111, 10, "%");
 802              		.loc 1 175 9 is_stmt 1 view .LVU153
 803 0116 0623     		movs	r3, #6
 804 0118 0093     		str	r3, [sp]
 805 011a 0A23     		movs	r3, #10
 806 011c 0422     		movs	r2, #4
 807 011e 2D21     		movs	r1, #45
 808 0120 2046     		mov	r0, r4
 809 0122 FFF7FEFF 		bl	u8g2_DrawBox
 810              	.LVL65:
 176:Src/main_screen.c ****         // printf("The filter is Maximun!\n");
 811              		.loc 1 176 9 view .LVU154
 812 0126 164B     		ldr	r3, .L46+12
 813 0128 0A22     		movs	r2, #10
 814 012a 6F21     		movs	r1, #111
 815 012c 2046     		mov	r0, r4
 816 012e FFF7FEFF 		bl	u8g2_DrawStr
 817              	.LVL66:
 178:Src/main_screen.c ****         {
 818              		.loc 1 178 9 view .LVU155
 178:Src/main_screen.c ****         {
 819              		.loc 1 178 13 is_stmt 0 view .LVU156
 820 0132 FFF7FEFF 		bl	HAL_GetTick
 821              	.LVL67:
 178:Src/main_screen.c ****         {
 822              		.loc 1 178 38 view .LVU157
 823 0136 144B     		ldr	r3, .L46+20
 824 0138 9B68     		ldr	r3, [r3, #8]
 178:Src/main_screen.c ****         {
 825              		.loc 1 178 27 view .LVU158
 826 013a C01A     		subs	r0, r0, r3
 178:Src/main_screen.c ****         {
 827              		.loc 1 178 12 view .LVU159
 828 013c B0F57A7F 		cmp	r0, #1000
 829 0140 09D8     		bhi	.L45
 830              	.L38:
 183:Src/main_screen.c ****         // When Filter is 20%, show string char.
 831              		.loc 1 183 9 is_stmt 1 view .LVU160
 183:Src/main_screen.c ****         // When Filter is 20%, show string char.
 832              		.loc 1 183 18 is_stmt 0 view .LVU161
 833 0142 114B     		ldr	r3, .L46+20
 834 0144 5B79     		ldrb	r3, [r3, #5]	@ zero_extendqisi2
 183:Src/main_screen.c ****         // When Filter is 20%, show string char.
 835              		.loc 1 183 85 view .LVU162
 836 0146 73B1     		cbz	r3, .L39
ARM GAS  C:\Users\behun\AppData\Local\Temp\ccTro3hg.s 			page 20


 183:Src/main_screen.c ****         // When Filter is 20%, show string char.
 837              		.loc 1 183 29 discriminator 1 view .LVU163
 838 0148 114B     		ldr	r3, .L46+28
 839 014a 1522     		movs	r2, #21
 840 014c 0221     		movs	r1, #2
 841 014e 0948     		ldr	r0, .L46
 842 0150 FFF7FEFF 		bl	u8g2_DrawStr
 843              	.LVL68:
 844 0154 75E7     		b	.L31
 845              	.L45:
 180:Src/main_screen.c ****             filt_data.tick = HAL_GetTick();
 846              		.loc 1 180 13 is_stmt 1 view .LVU164
 180:Src/main_screen.c ****             filt_data.tick = HAL_GetTick();
 847              		.loc 1 180 43 is_stmt 0 view .LVU165
 848 0156 0C4C     		ldr	r4, .L46+20
 849 0158 6379     		ldrb	r3, [r4, #5]	@ zero_extendqisi2
 180:Src/main_screen.c ****             filt_data.tick = HAL_GetTick();
 850              		.loc 1 180 31 view .LVU166
 851 015a DB43     		mvns	r3, r3
 852 015c 6371     		strb	r3, [r4, #5]
 181:Src/main_screen.c ****         }
 853              		.loc 1 181 13 is_stmt 1 view .LVU167
 181:Src/main_screen.c ****         }
 854              		.loc 1 181 30 is_stmt 0 view .LVU168
 855 015e FFF7FEFF 		bl	HAL_GetTick
 856              	.LVL69:
 181:Src/main_screen.c ****         }
 857              		.loc 1 181 28 view .LVU169
 858 0162 A060     		str	r0, [r4, #8]
 859 0164 EDE7     		b	.L38
 860              	.L39:
 183:Src/main_screen.c ****         // When Filter is 20%, show string char.
 861              		.loc 1 183 87 discriminator 2 view .LVU170
 862 0166 0B4B     		ldr	r3, .L46+32
 863 0168 1522     		movs	r2, #21
 864 016a 0221     		movs	r1, #2
 865 016c 0148     		ldr	r0, .L46
 866 016e FFF7FEFF 		bl	u8g2_DrawStr
 867              	.LVL70:
 868              		.loc 1 186 1 discriminator 2 view .LVU171
 869 0172 66E7     		b	.L31
 870              	.L47:
 871              		.align	2
 872              	.L46:
 873 0174 00000000 		.word	u8g2
 874 0178 00000000 		.word	u8g2_font_5x7_mf
 875 017c 00000000 		.word	.LC6
 876 0180 08000000 		.word	.LC7
 877 0184 0C000000 		.word	.LC8
 878 0188 00000000 		.word	filt_data
 879 018c 20000000 		.word	.LC9
 880 0190 38000000 		.word	.LC10
 881 0194 54000000 		.word	.LC11
 882              		.cfi_endproc
 883              	.LFE71:
 885              		.section	.text.Horizontal,"ax",%progbits
 886              		.align	1
ARM GAS  C:\Users\behun\AppData\Local\Temp\ccTro3hg.s 			page 21


 887              		.global	Horizontal
 888              		.syntax unified
 889              		.thumb
 890              		.thumb_func
 891              		.fpu softvfp
 893              	Horizontal:
 894              	.LFB72:
 187:Src/main_screen.c **** void Horizontal(void)
 188:Src/main_screen.c **** {
 895              		.loc 1 188 1 is_stmt 1 view -0
 896              		.cfi_startproc
 897              		@ args = 0, pretend = 0, frame = 0
 898              		@ frame_needed = 0, uses_anonymous_args = 0
 899 0000 70B5     		push	{r4, r5, r6, lr}
 900              	.LCFI21:
 901              		.cfi_def_cfa_offset 16
 902              		.cfi_offset 4, -16
 903              		.cfi_offset 5, -12
 904              		.cfi_offset 6, -8
 905              		.cfi_offset 14, -4
 906 0002 82B0     		sub	sp, sp, #8
 907              	.LCFI22:
 908              		.cfi_def_cfa_offset 24
 189:Src/main_screen.c ****     u8g2_SetDrawColor(&u8g2, 1);
 909              		.loc 1 189 5 view .LVU173
 910 0004 154C     		ldr	r4, .L50
 911 0006 0121     		movs	r1, #1
 912 0008 2046     		mov	r0, r4
 913 000a FFF7FEFF 		bl	u8g2_SetDrawColor
 914              	.LVL71:
 190:Src/main_screen.c ****     u8g2_DrawFrame(&u8g2, 0, 24, 128, 40);
 915              		.loc 1 190 5 view .LVU174
 916 000e 2825     		movs	r5, #40
 917 0010 0095     		str	r5, [sp]
 918 0012 8023     		movs	r3, #128
 919 0014 1822     		movs	r2, #24
 920 0016 0021     		movs	r1, #0
 921 0018 2046     		mov	r0, r4
 922 001a FFF7FEFF 		bl	u8g2_DrawFrame
 923              	.LVL72:
 191:Src/main_screen.c ****     u8g2_DrawHLine(&u8g2, 0, 36, 128);
 924              		.loc 1 191 5 view .LVU175
 925 001e 8023     		movs	r3, #128
 926 0020 2422     		movs	r2, #36
 927 0022 0021     		movs	r1, #0
 928 0024 2046     		mov	r0, r4
 929 0026 FFF7FEFF 		bl	u8g2_DrawHLine
 930              	.LVL73:
 192:Src/main_screen.c ****     u8g2_DrawHVLine(&u8g2, 32, 24, 40, 1);
 931              		.loc 1 192 5 view .LVU176
 932 002a 0126     		movs	r6, #1
 933 002c 0096     		str	r6, [sp]
 934 002e 2B46     		mov	r3, r5
 935 0030 1822     		movs	r2, #24
 936 0032 2021     		movs	r1, #32
 937 0034 2046     		mov	r0, r4
 938 0036 FFF7FEFF 		bl	u8g2_DrawHVLine
ARM GAS  C:\Users\behun\AppData\Local\Temp\ccTro3hg.s 			page 22


 939              	.LVL74:
 193:Src/main_screen.c ****     u8g2_DrawHVLine(&u8g2, 64, 24, 40, 1);
 940              		.loc 1 193 5 view .LVU177
 941 003a 0096     		str	r6, [sp]
 942 003c 2B46     		mov	r3, r5
 943 003e 1822     		movs	r2, #24
 944 0040 4021     		movs	r1, #64
 945 0042 2046     		mov	r0, r4
 946 0044 FFF7FEFF 		bl	u8g2_DrawHVLine
 947              	.LVL75:
 194:Src/main_screen.c ****     u8g2_DrawHVLine(&u8g2, 96, 24, 40, 1);
 948              		.loc 1 194 5 view .LVU178
 949 0048 0096     		str	r6, [sp]
 950 004a 2B46     		mov	r3, r5
 951 004c 1822     		movs	r2, #24
 952 004e 6021     		movs	r1, #96
 953 0050 2046     		mov	r0, r4
 954 0052 FFF7FEFF 		bl	u8g2_DrawHVLine
 955              	.LVL76:
 195:Src/main_screen.c **** }
 956              		.loc 1 195 1 is_stmt 0 view .LVU179
 957 0056 02B0     		add	sp, sp, #8
 958              	.LCFI23:
 959              		.cfi_def_cfa_offset 16
 960              		@ sp needed
 961 0058 70BD     		pop	{r4, r5, r6, pc}
 962              	.L51:
 963 005a 00BF     		.align	2
 964              	.L50:
 965 005c 00000000 		.word	u8g2
 966              		.cfi_endproc
 967              	.LFE72:
 969              		.section	.text.Main_Screen_Manage,"ax",%progbits
 970              		.align	1
 971              		.global	Main_Screen_Manage
 972              		.syntax unified
 973              		.thumb
 974              		.thumb_func
 975              		.fpu softvfp
 977              	Main_Screen_Manage:
 978              	.LFB73:
 196:Src/main_screen.c **** void Main_Screen_Manage(void)
 197:Src/main_screen.c **** {
 979              		.loc 1 197 1 is_stmt 1 view -0
 980              		.cfi_startproc
 981              		@ args = 0, pretend = 0, frame = 0
 982              		@ frame_needed = 0, uses_anonymous_args = 0
 983 0000 10B5     		push	{r4, lr}
 984              	.LCFI24:
 985              		.cfi_def_cfa_offset 8
 986              		.cfi_offset 4, -8
 987              		.cfi_offset 14, -4
 198:Src/main_screen.c ****     Lamp_Status(main_scr.lampStatus);
 988              		.loc 1 198 5 view .LVU181
 989 0002 0A4C     		ldr	r4, .L54
 990 0004 2078     		ldrb	r0, [r4]	@ zero_extendqisi2
 991 0006 FFF7FEFF 		bl	Lamp_Status
ARM GAS  C:\Users\behun\AppData\Local\Temp\ccTro3hg.s 			page 23


 992              	.LVL77:
 199:Src/main_screen.c ****     UV_Status(main_scr.uvStatus);
 993              		.loc 1 199 5 view .LVU182
 994 000a 6078     		ldrb	r0, [r4, #1]	@ zero_extendqisi2
 995 000c FFF7FEFF 		bl	UV_Status
 996              	.LVL78:
 200:Src/main_screen.c ****     Fan_Status(main_scr.fanStatus);
 997              		.loc 1 200 5 view .LVU183
 998 0010 A078     		ldrb	r0, [r4, #2]	@ zero_extendqisi2
 999 0012 FFF7FEFF 		bl	Fan_Status
 1000              	.LVL79:
 201:Src/main_screen.c ****     Socket_Status(main_scr.socketStatus);
 1001              		.loc 1 201 5 view .LVU184
 1002 0016 E078     		ldrb	r0, [r4, #3]	@ zero_extendqisi2
 1003 0018 FFF7FEFF 		bl	Socket_Status
 1004              	.LVL80:
 202:Src/main_screen.c ****     Horizontal();
 1005              		.loc 1 202 5 view .LVU185
 1006 001c FFF7FEFF 		bl	Horizontal
 1007              	.LVL81:
 203:Src/main_screen.c ****     Filter_Val(filt_data.val); //Function get value from the filter and converter into percent.
 1008              		.loc 1 203 5 view .LVU186
 1009 0020 034B     		ldr	r3, .L54+4
 1010 0022 1888     		ldrh	r0, [r3]
 1011 0024 FFF7FEFF 		bl	Filter_Val
 1012              	.LVL82:
 204:Src/main_screen.c ****     // Filter_Val(500); //Test value of filter
 205:Src/main_screen.c **** }
 1013              		.loc 1 205 1 is_stmt 0 view .LVU187
 1014 0028 10BD     		pop	{r4, pc}
 1015              	.L55:
 1016 002a 00BF     		.align	2
 1017              	.L54:
 1018 002c 00000000 		.word	main_scr
 1019 0030 00000000 		.word	filt_data
 1020              		.cfi_endproc
 1021              	.LFE73:
 1023              		.global	blink
 1024              		.comm	Warn_Blink,4,4
 1025              		.comm	main_scr,12,4
 1026              		.comm	u8g2,128,4
 1027              		.comm	bmp_temp,8,4
 1028              		.section	.data.blink,"aw"
 1031              	blink:
 1032 0000 01       		.byte	1
 1033              		.section	.rodata.Fan_Status.str1.4,"aMS",%progbits,1
 1034              		.align	2
 1035              	.LC2:
 1036 0000 46414E00 		.ascii	"FAN\000"
 1037              		.section	.rodata.Filter_Val.str1.4,"aMS",%progbits,1
 1038              		.align	2
 1039              	.LC6:
 1040 0000 46696C74 		.ascii	"Filter:\000"
 1040      65723A00 
 1041              	.LC7:
 1042 0008 2500     		.ascii	"%\000"
 1043 000a 0000     		.space	2
ARM GAS  C:\Users\behun\AppData\Local\Temp\ccTro3hg.s 			page 24


 1044              	.LC8:
 1045 000c 54686520 		.ascii	"The filter is new!\000"
 1045      66696C74 
 1045      65722069 
 1045      73206E65 
 1045      772100
 1046 001f 00       		.space	1
 1047              	.LC9:
 1048 0020 54686520 		.ascii	"The filter is working!\000"
 1048      66696C74 
 1048      65722069 
 1048      7320776F 
 1048      726B696E 
 1049 0037 00       		.space	1
 1050              	.LC10:
 1051 0038 506C6561 		.ascii	"Please change the filter!\000"
 1051      73652063 
 1051      68616E67 
 1051      65207468 
 1051      65206669 
 1052 0052 0000     		.space	2
 1053              	.LC11:
 1054 0054 20202020 		.ascii	"                         \000"
 1054      20202020 
 1054      20202020 
 1054      20202020 
 1054      20202020 
 1055              		.section	.rodata.Lamp_Status.str1.4,"aMS",%progbits,1
 1056              		.align	2
 1057              	.LC0:
 1058 0000 4E454F4E 		.ascii	"NEON\000"
 1058      00
 1059              		.section	.rodata.Socket_Status.str1.4,"aMS",%progbits,1
 1060              		.align	2
 1061              	.LC3:
 1062 0000 4F4E00   		.ascii	"ON\000"
 1063 0003 00       		.space	1
 1064              	.LC4:
 1065 0004 534F434B 		.ascii	"SOCKET\000"
 1065      455400
 1066 000b 00       		.space	1
 1067              	.LC5:
 1068 000c 4F464600 		.ascii	"OFF\000"
 1069              		.section	.rodata.UV_Status.str1.4,"aMS",%progbits,1
 1070              		.align	2
 1071              	.LC1:
 1072 0000 555600   		.ascii	"UV\000"
 1073              		.text
 1074              	.Letext0:
 1075              		.file 2 "c:\\program files (x86)\\gnu tools arm embedded\\8 2019-q3-update\\arm-none-eabi\\include
 1076              		.file 3 "c:\\program files (x86)\\gnu tools arm embedded\\8 2019-q3-update\\arm-none-eabi\\include
 1077              		.file 4 "Drivers/CMSIS/Include/core_cm3.h"
 1078              		.file 5 "Drivers/CMSIS/Device/ST/STM32F1xx/Include/system_stm32f1xx.h"
 1079              		.file 6 "c:\\program files (x86)\\gnu tools arm embedded\\8 2019-q3-update\\lib\\gcc\\arm-none-eab
 1080              		.file 7 "c:\\program files (x86)\\gnu tools arm embedded\\8 2019-q3-update\\arm-none-eabi\\include
 1081              		.file 8 "c:\\program files (x86)\\gnu tools arm embedded\\8 2019-q3-update\\arm-none-eabi\\include
 1082              		.file 9 "c:\\program files (x86)\\gnu tools arm embedded\\8 2019-q3-update\\arm-none-eabi\\include
ARM GAS  C:\Users\behun\AppData\Local\Temp\ccTro3hg.s 			page 25


 1083              		.file 10 "Drivers/STM32F1xx_HAL_Driver/Inc/stm32f1xx_hal.h"
 1084              		.file 11 "Inc/user_bitmap.h"
 1085              		.file 12 "Inc/main_screen.h"
 1086              		.file 13 "u8g2/csrc/u8x8.h"
 1087              		.file 14 "u8g2/csrc/u8g2.h"
 1088              		.file 15 "Inc/filter_data.h"
 1089              		.file 16 "c:\\program files (x86)\\gnu tools arm embedded\\8 2019-q3-update\\arm-none-eabi\\includ
ARM GAS  C:\Users\behun\AppData\Local\Temp\ccTro3hg.s 			page 26


DEFINED SYMBOLS
                            *ABS*:00000000 main_screen.c
C:\Users\behun\AppData\Local\Temp\ccTro3hg.s:16     .text.main_screen_init:00000000 $t
C:\Users\behun\AppData\Local\Temp\ccTro3hg.s:24     .text.main_screen_init:00000000 main_screen_init
C:\Users\behun\AppData\Local\Temp\ccTro3hg.s:75     .text.main_screen_init:00000028 $d
                            *COM*:0000000c main_scr
                            *COM*:00000080 u8g2
                            *COM*:00000004 Warn_Blink
C:\Users\behun\AppData\Local\Temp\ccTro3hg.s:82     .text.Lamp_Status:00000000 $t
C:\Users\behun\AppData\Local\Temp\ccTro3hg.s:89     .text.Lamp_Status:00000000 Lamp_Status
C:\Users\behun\AppData\Local\Temp\ccTro3hg.s:185    .text.Lamp_Status:00000068 $d
C:\Users\behun\AppData\Local\Temp\ccTro3hg.s:194    .text.UV_Status:00000000 $t
C:\Users\behun\AppData\Local\Temp\ccTro3hg.s:201    .text.UV_Status:00000000 UV_Status
C:\Users\behun\AppData\Local\Temp\ccTro3hg.s:283    .text.UV_Status:00000054 $d
C:\Users\behun\AppData\Local\Temp\ccTro3hg.s:292    .text.Fan_Status:00000000 $t
C:\Users\behun\AppData\Local\Temp\ccTro3hg.s:299    .text.Fan_Status:00000000 Fan_Status
C:\Users\behun\AppData\Local\Temp\ccTro3hg.s:426    .text.Fan_Status:00000090 $d
C:\Users\behun\AppData\Local\Temp\ccTro3hg.s:436    .text.Socket_Status:00000000 $t
C:\Users\behun\AppData\Local\Temp\ccTro3hg.s:443    .text.Socket_Status:00000000 Socket_Status
C:\Users\behun\AppData\Local\Temp\ccTro3hg.s:563    .text.Socket_Status:00000090 $d
C:\Users\behun\AppData\Local\Temp\ccTro3hg.s:575    .text.Filter_Val:00000000 $t
C:\Users\behun\AppData\Local\Temp\ccTro3hg.s:582    .text.Filter_Val:00000000 Filter_Val
C:\Users\behun\AppData\Local\Temp\ccTro3hg.s:873    .text.Filter_Val:00000174 $d
C:\Users\behun\AppData\Local\Temp\ccTro3hg.s:886    .text.Horizontal:00000000 $t
C:\Users\behun\AppData\Local\Temp\ccTro3hg.s:893    .text.Horizontal:00000000 Horizontal
C:\Users\behun\AppData\Local\Temp\ccTro3hg.s:965    .text.Horizontal:0000005c $d
C:\Users\behun\AppData\Local\Temp\ccTro3hg.s:970    .text.Main_Screen_Manage:00000000 $t
C:\Users\behun\AppData\Local\Temp\ccTro3hg.s:977    .text.Main_Screen_Manage:00000000 Main_Screen_Manage
C:\Users\behun\AppData\Local\Temp\ccTro3hg.s:1018   .text.Main_Screen_Manage:0000002c $d
C:\Users\behun\AppData\Local\Temp\ccTro3hg.s:1031   .data.blink:00000000 blink
                            *COM*:00000008 bmp_temp
C:\Users\behun\AppData\Local\Temp\ccTro3hg.s:1034   .rodata.Fan_Status.str1.4:00000000 $d
C:\Users\behun\AppData\Local\Temp\ccTro3hg.s:1038   .rodata.Filter_Val.str1.4:00000000 $d
C:\Users\behun\AppData\Local\Temp\ccTro3hg.s:1056   .rodata.Lamp_Status.str1.4:00000000 $d
C:\Users\behun\AppData\Local\Temp\ccTro3hg.s:1060   .rodata.Socket_Status.str1.4:00000000 $d
C:\Users\behun\AppData\Local\Temp\ccTro3hg.s:1070   .rodata.UV_Status.str1.4:00000000 $d

UNDEFINED SYMBOLS
u8g2_ClearBuffer
HAL_GetTick
u8g2_DrawBitmap
u8g2_SetFont
u8g2_DrawStr
bmp_neon_on
u8g2_font_micro_tr
bmp_neon_off
bmp_uv_on
bmp_uv_off
bmp_fan_rotate
bmp_fan_origin
bmp_socket_on
u8g2_font_u8glib_4_tf
bmp_socket_off
u8g2_DrawFrame
itoa
u8g2_DrawBox
u8g2_font_5x7_mf
ARM GAS  C:\Users\behun\AppData\Local\Temp\ccTro3hg.s 			page 27


filt_data
u8g2_SetDrawColor
u8g2_DrawHLine
u8g2_DrawHVLine
