ARM GAS  /var/folders/rk/zpr83dd14lx588t7kb0yv2b40000gn/T//cc3igAjz.s 			page 1


   1              		.cpu cortex-m3
   2              		.eabi_attribute 20, 1
   3              		.eabi_attribute 21, 1
   4              		.eabi_attribute 23, 3
   5              		.eabi_attribute 24, 1
   6              		.eabi_attribute 25, 1
   7              		.eabi_attribute 26, 1
   8              		.eabi_attribute 30, 1
   9              		.eabi_attribute 34, 1
  10              		.eabi_attribute 18, 4
  11              		.file	"menu_handler.c"
  12              		.text
  13              	.Ltext0:
  14              		.cfi_sections	.debug_frame
  15              		.section	.text.normalEvt,"ax",%progbits
  16              		.align	1
  17              		.global	normalEvt
  18              		.syntax unified
  19              		.thumb
  20              		.thumb_func
  21              		.fpu softvfp
  23              	normalEvt:
  24              	.LFB66:
  25              		.file 1 "Src/menu_handler.c"
   1:Src/menu_handler.c **** #include "menu.h"
   2:Src/menu_handler.c **** #include "menu_handler.h"
   3:Src/menu_handler.c **** #include "main.h"
   4:Src/menu_handler.c **** #include <stdio.h>
   5:Src/menu_handler.c **** #include <string.h>
   6:Src/menu_handler.c **** #include "clock_rtc.h"
   7:Src/menu_handler.c **** #include "info_screen.h"
   8:Src/menu_handler.c **** #include "system.h"
   9:Src/menu_handler.c **** #include "lcd_backlight.h"
  10:Src/menu_handler.c **** #include "config.h"
  11:Src/menu_handler.c **** 
  12:Src/menu_handler.c **** uint8_t buff[90];
  13:Src/menu_handler.c **** uint8_t ten,unit;
  14:Src/menu_handler.c **** uint8_t logGetBuff[32];
  15:Src/menu_handler.c **** DATE_TIME menuRtc;
  16:Src/menu_handler.c **** 
  17:Src/menu_handler.c **** uint16_t normalEvt(uint8_t add, uint16_t key)
  18:Src/menu_handler.c **** {
  26              		.loc 1 18 0
  27              		.cfi_startproc
  28              		@ args = 0, pretend = 0, frame = 0
  29              		@ frame_needed = 0, uses_anonymous_args = 0
  30              		@ link register save eliminated.
  31              	.LVL0:
  19:Src/menu_handler.c ****   return 0;
  20:Src/menu_handler.c **** }
  32              		.loc 1 20 0
  33 0000 0020     		movs	r0, #0
  34              	.LVL1:
  35 0002 7047     		bx	lr
  36              		.cfi_endproc
  37              	.LFE66:
  39              		.section	.text.Dis1Evt,"ax",%progbits
ARM GAS  /var/folders/rk/zpr83dd14lx588t7kb0yv2b40000gn/T//cc3igAjz.s 			page 2


  40              		.align	1
  41              		.global	Dis1Evt
  42              		.syntax unified
  43              		.thumb
  44              		.thumb_func
  45              		.fpu softvfp
  47              	Dis1Evt:
  48              	.LFB67:
  21:Src/menu_handler.c **** 
  22:Src/menu_handler.c **** uint16_t Dis1Evt(uint8_t add, uint16_t key)
  23:Src/menu_handler.c **** {
  49              		.loc 1 23 0
  50              		.cfi_startproc
  51              		@ args = 0, pretend = 0, frame = 0
  52              		@ frame_needed = 0, uses_anonymous_args = 0
  53              		@ link register save eliminated.
  54              	.LVL2:
  24:Src/menu_handler.c ****   menuRtc = localTime;
  55              		.loc 1 24 0
  56 0000 034B     		ldr	r3, .L3
  57 0002 044A     		ldr	r2, .L3+4
  58 0004 1168     		ldr	r1, [r2]	@ unaligned
  59              	.LVL3:
  60 0006 5268     		ldr	r2, [r2, #4]	@ unaligned
  61 0008 1960     		str	r1, [r3]	@ unaligned
  62 000a 5A60     		str	r2, [r3, #4]	@ unaligned
  25:Src/menu_handler.c ****   return 0;
  26:Src/menu_handler.c **** }
  63              		.loc 1 26 0
  64 000c 0020     		movs	r0, #0
  65              	.LVL4:
  66 000e 7047     		bx	lr
  67              	.L4:
  68              		.align	2
  69              	.L3:
  70 0010 00000000 		.word	menuRtc
  71 0014 00000000 		.word	localTime
  72              		.cfi_endproc
  73              	.LFE67:
  75              		.section	.text.Dis2Evt,"ax",%progbits
  76              		.align	1
  77              		.global	Dis2Evt
  78              		.syntax unified
  79              		.thumb
  80              		.thumb_func
  81              		.fpu softvfp
  83              	Dis2Evt:
  84              	.LFB68:
  27:Src/menu_handler.c **** 
  28:Src/menu_handler.c **** uint16_t Dis2Evt(uint8_t add, uint16_t key)
  29:Src/menu_handler.c **** {
  85              		.loc 1 29 0
  86              		.cfi_startproc
  87              		@ args = 0, pretend = 0, frame = 0
  88              		@ frame_needed = 0, uses_anonymous_args = 0
  89              		@ link register save eliminated.
  90              	.LVL5:
ARM GAS  /var/folders/rk/zpr83dd14lx588t7kb0yv2b40000gn/T//cc3igAjz.s 			page 3


  30:Src/menu_handler.c ****   return 0;
  31:Src/menu_handler.c **** }
  91              		.loc 1 31 0
  92 0000 0020     		movs	r0, #0
  93              	.LVL6:
  94 0002 7047     		bx	lr
  95              		.cfi_endproc
  96              	.LFE68:
  98              		.section	.text.Dis3Evt,"ax",%progbits
  99              		.align	1
 100              		.global	Dis3Evt
 101              		.syntax unified
 102              		.thumb
 103              		.thumb_func
 104              		.fpu softvfp
 106              	Dis3Evt:
 107              	.LFB69:
  32:Src/menu_handler.c **** 
  33:Src/menu_handler.c **** uint16_t Dis3Evt(uint8_t add, uint16_t key)
  34:Src/menu_handler.c **** {
 108              		.loc 1 34 0
 109              		.cfi_startproc
 110              		@ args = 0, pretend = 0, frame = 0
 111              		@ frame_needed = 0, uses_anonymous_args = 0
 112              		@ link register save eliminated.
 113              	.LVL7:
  35:Src/menu_handler.c ****   return 0;
  36:Src/menu_handler.c **** }
 114              		.loc 1 36 0
 115 0000 0020     		movs	r0, #0
 116              	.LVL8:
 117 0002 7047     		bx	lr
 118              		.cfi_endproc
 119              	.LFE69:
 121              		.section	.text.Dis4Evt,"ax",%progbits
 122              		.align	1
 123              		.global	Dis4Evt
 124              		.syntax unified
 125              		.thumb
 126              		.thumb_func
 127              		.fpu softvfp
 129              	Dis4Evt:
 130              	.LFB70:
  37:Src/menu_handler.c **** 
  38:Src/menu_handler.c **** uint16_t Dis4Evt(uint8_t add, uint16_t key)
  39:Src/menu_handler.c **** {
 131              		.loc 1 39 0
 132              		.cfi_startproc
 133              		@ args = 0, pretend = 0, frame = 0
 134              		@ frame_needed = 0, uses_anonymous_args = 0
 135              		@ link register save eliminated.
 136              	.LVL9:
  40:Src/menu_handler.c ****   return 0;
  41:Src/menu_handler.c **** }
 137              		.loc 1 41 0
 138 0000 0020     		movs	r0, #0
 139              	.LVL10:
ARM GAS  /var/folders/rk/zpr83dd14lx588t7kb0yv2b40000gn/T//cc3igAjz.s 			page 4


 140 0002 7047     		bx	lr
 141              		.cfi_endproc
 142              	.LFE70:
 144              		.section	.text.SetTimeEvt,"ax",%progbits
 145              		.align	1
 146              		.global	SetTimeEvt
 147              		.syntax unified
 148              		.thumb
 149              		.thumb_func
 150              		.fpu softvfp
 152              	SetTimeEvt:
 153              	.LFB71:
  42:Src/menu_handler.c **** 
  43:Src/menu_handler.c **** uint16_t SetTimeEvt(uint8_t add, uint16_t key)
  44:Src/menu_handler.c **** {
 154              		.loc 1 44 0
 155              		.cfi_startproc
 156              		@ args = 0, pretend = 0, frame = 0
 157              		@ frame_needed = 0, uses_anonymous_args = 0
 158              	.LVL11:
 159 0000 2DE9F041 		push	{r4, r5, r6, r7, r8, lr}
 160              	.LCFI0:
 161              		.cfi_def_cfa_offset 24
 162              		.cfi_offset 4, -24
 163              		.cfi_offset 5, -20
 164              		.cfi_offset 6, -16
 165              		.cfi_offset 7, -12
 166              		.cfi_offset 8, -8
 167              		.cfi_offset 14, -4
 168 0004 82B0     		sub	sp, sp, #8
 169              	.LCFI1:
 170              		.cfi_def_cfa_offset 32
 171 0006 0546     		mov	r5, r0
 172 0008 0C46     		mov	r4, r1
  45:Src/menu_handler.c ****   memset(buff, 0, sizeof(buff));
 173              		.loc 1 45 0
 174 000a 5A22     		movs	r2, #90
 175 000c 0021     		movs	r1, #0
 176              	.LVL12:
 177 000e A048     		ldr	r0, .L40
 178              	.LVL13:
 179 0010 FFF7FEFF 		bl	memset
 180              	.LVL14:
  46:Src/menu_handler.c ****   if(treeView[add].keyMode != menuIdxLast)
 181              		.loc 1 46 0
 182 0014 6420     		movs	r0, #100
 183 0016 00FB05F0 		mul	r0, r0, r5
 184 001a 9E4B     		ldr	r3, .L40+4
 185 001c 1D5A     		ldrh	r5, [r3, r0]
 186 001e 9E4B     		ldr	r3, .L40+8
 187 0020 1B88     		ldrh	r3, [r3]
 188 0022 9D42     		cmp	r5, r3
 189 0024 02D0     		beq	.L9
  47:Src/menu_handler.c ****   {
  48:Src/menu_handler.c ****     menuCursor = 0;
 190              		.loc 1 48 0
 191 0026 9D4B     		ldr	r3, .L40+12
ARM GAS  /var/folders/rk/zpr83dd14lx588t7kb0yv2b40000gn/T//cc3igAjz.s 			page 5


 192 0028 0022     		movs	r2, #0
 193 002a 1A80     		strh	r2, [r3]	@ movhi
 194              	.L9:
  49:Src/menu_handler.c ****   }
  50:Src/menu_handler.c ****   if(key == BTN_NEXT)
 195              		.loc 1 50 0
 196 002c 032C     		cmp	r4, #3
 197 002e 09D0     		beq	.L37
 198              	.L10:
  51:Src/menu_handler.c ****   {
  52:Src/menu_handler.c ****     if(++menuCursor>5) menuCursor = 0;
  53:Src/menu_handler.c ****     // if(menuCursor < 5)menuCursor++;
  54:Src/menu_handler.c ****   }
  55:Src/menu_handler.c **** 
  56:Src/menu_handler.c ****   if(key == BTN_UP)
 199              		.loc 1 56 0
 200 0030 DCB9     		cbnz	r4, .L11
  57:Src/menu_handler.c ****   {
  58:Src/menu_handler.c ****     switch(menuCursor)
 201              		.loc 1 58 0
 202 0032 9A4B     		ldr	r3, .L40+12
 203 0034 1B88     		ldrh	r3, [r3]
 204 0036 052B     		cmp	r3, #5
 205 0038 17D8     		bhi	.L11
 206 003a DFE803F0 		tbb	[pc, r3]
 207              	.L13:
 208 003e 0E       		.byte	(.L12-.L13)/2
 209 003f 31       		.byte	(.L14-.L13)/2
 210 0040 3A       		.byte	(.L15-.L13)/2
 211 0041 43       		.byte	(.L16-.L13)/2
 212 0042 4C       		.byte	(.L17-.L13)/2
 213 0043 55       		.byte	(.L18-.L13)/2
 214              		.p2align 1
 215              	.L37:
  52:Src/menu_handler.c ****     // if(menuCursor < 5)menuCursor++;
 216              		.loc 1 52 0
 217 0044 954A     		ldr	r2, .L40+12
 218 0046 1388     		ldrh	r3, [r2]
 219 0048 0133     		adds	r3, r3, #1
 220 004a 9BB2     		uxth	r3, r3
 221 004c 1380     		strh	r3, [r2]	@ movhi
 222 004e 052B     		cmp	r3, #5
 223 0050 EED9     		bls	.L10
  52:Src/menu_handler.c ****     // if(menuCursor < 5)menuCursor++;
 224              		.loc 1 52 0 is_stmt 0 discriminator 1
 225 0052 1346     		mov	r3, r2
 226 0054 0022     		movs	r2, #0
 227 0056 1A80     		strh	r2, [r3]	@ movhi
 228 0058 EAE7     		b	.L10
 229              	.L12:
  59:Src/menu_handler.c ****     {
  60:Src/menu_handler.c ****       case 0:
  61:Src/menu_handler.c ****         if(menuRtc.hour < 23)menuRtc.hour++;
 230              		.loc 1 61 0 is_stmt 1
 231 005a 914B     		ldr	r3, .L40+16
 232 005c 93F90530 		ldrsb	r3, [r3, #5]
 233 0060 162B     		cmp	r3, #22
ARM GAS  /var/folders/rk/zpr83dd14lx588t7kb0yv2b40000gn/T//cc3igAjz.s 			page 6


 234 0062 02DC     		bgt	.L11
 235              		.loc 1 61 0 is_stmt 0 discriminator 1
 236 0064 0133     		adds	r3, r3, #1
 237 0066 8E4A     		ldr	r2, .L40+16
 238 0068 5371     		strb	r3, [r2, #5]
 239              	.L11:
  62:Src/menu_handler.c ****         break;
  63:Src/menu_handler.c ****       case 1:
  64:Src/menu_handler.c ****         if(menuRtc.min < 59)menuRtc.min++;
  65:Src/menu_handler.c ****         break;
  66:Src/menu_handler.c ****       case 2:
  67:Src/menu_handler.c ****         if(menuRtc.sec < 59)menuRtc.sec++;
  68:Src/menu_handler.c ****         break;
  69:Src/menu_handler.c ****       case 3:
  70:Src/menu_handler.c ****         if(menuRtc.mday < 31)menuRtc.mday++;
  71:Src/menu_handler.c ****         break;
  72:Src/menu_handler.c ****       case 4:
  73:Src/menu_handler.c ****         if(menuRtc.month < 12)menuRtc.month++;
  74:Src/menu_handler.c ****         break;
  75:Src/menu_handler.c ****       case 5:
  76:Src/menu_handler.c ****         if(menuRtc.year < 2099)menuRtc.year++;
  77:Src/menu_handler.c ****         break;
  78:Src/menu_handler.c ****     }
  79:Src/menu_handler.c ****   }
  80:Src/menu_handler.c ****   if(key == BTN_DOWN)
 240              		.loc 1 80 0 is_stmt 1
 241 006a 012C     		cmp	r4, #1
 242 006c 47D0     		beq	.L38
 243              	.L19:
  81:Src/menu_handler.c ****   {
  82:Src/menu_handler.c ****     switch(menuCursor)
  83:Src/menu_handler.c ****     {
  84:Src/menu_handler.c ****       case 0:
  85:Src/menu_handler.c ****         if(menuRtc.hour != 0)menuRtc.hour--;
  86:Src/menu_handler.c ****         break;
  87:Src/menu_handler.c ****       case 1:
  88:Src/menu_handler.c ****         if(menuRtc.min != 0)menuRtc.min--;
  89:Src/menu_handler.c ****         break;
  90:Src/menu_handler.c ****       case 2:
  91:Src/menu_handler.c ****         if(menuRtc.sec != 0)menuRtc.sec--;
  92:Src/menu_handler.c ****         break;
  93:Src/menu_handler.c ****       case 3:
  94:Src/menu_handler.c ****         if(menuRtc.mday > 1)menuRtc.mday--;
  95:Src/menu_handler.c ****         break;
  96:Src/menu_handler.c ****       case 4:
  97:Src/menu_handler.c ****         if(menuRtc.month > 1)menuRtc.month--;
  98:Src/menu_handler.c ****         break;
  99:Src/menu_handler.c ****       case 5:
 100:Src/menu_handler.c ****         if(menuRtc.year > 2000)menuRtc.year--;
 101:Src/menu_handler.c ****         break;
 102:Src/menu_handler.c ****     }
 103:Src/menu_handler.c ****   }
 104:Src/menu_handler.c ****   u8g2_SetFont(&u8g2, u8g2_font_unifont_t_symbols);
 244              		.loc 1 104 0
 245 006e 8D4E     		ldr	r6, .L40+20
 246 0070 8D49     		ldr	r1, .L40+24
 247 0072 3046     		mov	r0, r6
ARM GAS  /var/folders/rk/zpr83dd14lx588t7kb0yv2b40000gn/T//cc3igAjz.s 			page 7


 248 0074 FFF7FEFF 		bl	u8g2_SetFont
 249              	.LVL15:
 105:Src/menu_handler.c ****   u8g2_DrawGlyph(&u8g2, 5, 36, 0x23f1);
 250              		.loc 1 105 0
 251 0078 42F2F133 		movw	r3, #9201
 252 007c 2422     		movs	r2, #36
 253 007e 0521     		movs	r1, #5
 254 0080 3046     		mov	r0, r6
 255 0082 FFF7FEFF 		bl	u8g2_DrawGlyph
 256              	.LVL16:
 106:Src/menu_handler.c ****   switch(menuCursor)
 257              		.loc 1 106 0
 258 0086 854B     		ldr	r3, .L40+12
 259 0088 1B88     		ldrh	r3, [r3]
 260 008a 052B     		cmp	r3, #5
 261 008c 00F2B380 		bhi	.L27
 262 0090 DFE813F0 		tbh	[pc, r3, lsl #1]
 263              	.L29:
 264 0094 7600     		.2byte	(.L28-.L29)/2
 265 0096 B800     		.2byte	(.L30-.L29)/2
 266 0098 1801     		.2byte	(.L31-.L29)/2
 267 009a 5401     		.2byte	(.L32-.L29)/2
 268 009c 9001     		.2byte	(.L33-.L29)/2
 269 009e D601     		.2byte	(.L34-.L29)/2
 270              		.p2align 1
 271              	.L14:
  64:Src/menu_handler.c ****         break;
 272              		.loc 1 64 0
 273 00a0 7F4B     		ldr	r3, .L40+16
 274 00a2 93F90630 		ldrsb	r3, [r3, #6]
 275 00a6 3A2B     		cmp	r3, #58
 276 00a8 DFDC     		bgt	.L11
  64:Src/menu_handler.c ****         break;
 277              		.loc 1 64 0 is_stmt 0 discriminator 1
 278 00aa 0133     		adds	r3, r3, #1
 279 00ac 7C4A     		ldr	r2, .L40+16
 280 00ae 9371     		strb	r3, [r2, #6]
 281 00b0 DBE7     		b	.L11
 282              	.L15:
  67:Src/menu_handler.c ****         break;
 283              		.loc 1 67 0 is_stmt 1
 284 00b2 7B4B     		ldr	r3, .L40+16
 285 00b4 93F90730 		ldrsb	r3, [r3, #7]
 286 00b8 3A2B     		cmp	r3, #58
 287 00ba D6DC     		bgt	.L11
  67:Src/menu_handler.c ****         break;
 288              		.loc 1 67 0 is_stmt 0 discriminator 1
 289 00bc 0133     		adds	r3, r3, #1
 290 00be 784A     		ldr	r2, .L40+16
 291 00c0 D371     		strb	r3, [r2, #7]
 292 00c2 D2E7     		b	.L11
 293              	.L16:
  70:Src/menu_handler.c ****         break;
 294              		.loc 1 70 0 is_stmt 1
 295 00c4 764B     		ldr	r3, .L40+16
 296 00c6 93F90330 		ldrsb	r3, [r3, #3]
 297 00ca 1E2B     		cmp	r3, #30
ARM GAS  /var/folders/rk/zpr83dd14lx588t7kb0yv2b40000gn/T//cc3igAjz.s 			page 8


 298 00cc CDDC     		bgt	.L11
  70:Src/menu_handler.c ****         break;
 299              		.loc 1 70 0 is_stmt 0 discriminator 1
 300 00ce 0133     		adds	r3, r3, #1
 301 00d0 734A     		ldr	r2, .L40+16
 302 00d2 D370     		strb	r3, [r2, #3]
 303 00d4 C9E7     		b	.L11
 304              	.L17:
  73:Src/menu_handler.c ****         break;
 305              		.loc 1 73 0 is_stmt 1
 306 00d6 724B     		ldr	r3, .L40+16
 307 00d8 93F90230 		ldrsb	r3, [r3, #2]
 308 00dc 0B2B     		cmp	r3, #11
 309 00de C4DC     		bgt	.L11
  73:Src/menu_handler.c ****         break;
 310              		.loc 1 73 0 is_stmt 0 discriminator 1
 311 00e0 0133     		adds	r3, r3, #1
 312 00e2 6F4A     		ldr	r2, .L40+16
 313 00e4 9370     		strb	r3, [r2, #2]
 314 00e6 C0E7     		b	.L11
 315              	.L18:
  76:Src/menu_handler.c ****         break;
 316              		.loc 1 76 0 is_stmt 1
 317 00e8 6D4B     		ldr	r3, .L40+16
 318 00ea B3F90030 		ldrsh	r3, [r3]	@ unaligned
 319 00ee 40F63202 		movw	r2, #2098
 320 00f2 9342     		cmp	r3, r2
 321 00f4 B9DC     		bgt	.L11
  76:Src/menu_handler.c ****         break;
 322              		.loc 1 76 0 is_stmt 0 discriminator 1
 323 00f6 0133     		adds	r3, r3, #1
 324 00f8 694A     		ldr	r2, .L40+16
 325 00fa 1380     		strh	r3, [r2]	@ unaligned
 326 00fc B5E7     		b	.L11
 327              	.L38:
  82:Src/menu_handler.c ****     {
 328              		.loc 1 82 0 is_stmt 1
 329 00fe 674B     		ldr	r3, .L40+12
 330 0100 1B88     		ldrh	r3, [r3]
 331 0102 052B     		cmp	r3, #5
 332 0104 B3D8     		bhi	.L19
 333 0106 DFE803F0 		tbb	[pc, r3]
 334              	.L21:
 335 010a 03       		.byte	(.L20-.L21)/2
 336 010b 0C       		.byte	(.L22-.L21)/2
 337 010c 15       		.byte	(.L23-.L21)/2
 338 010d 1E       		.byte	(.L24-.L21)/2
 339 010e 27       		.byte	(.L25-.L21)/2
 340 010f 30       		.byte	(.L26-.L21)/2
 341              		.p2align 1
 342              	.L20:
  85:Src/menu_handler.c ****         break;
 343              		.loc 1 85 0
 344 0110 634B     		ldr	r3, .L40+16
 345 0112 93F90530 		ldrsb	r3, [r3, #5]
 346 0116 002B     		cmp	r3, #0
 347 0118 A9D0     		beq	.L19
ARM GAS  /var/folders/rk/zpr83dd14lx588t7kb0yv2b40000gn/T//cc3igAjz.s 			page 9


  85:Src/menu_handler.c ****         break;
 348              		.loc 1 85 0 is_stmt 0 discriminator 1
 349 011a 013B     		subs	r3, r3, #1
 350 011c 604A     		ldr	r2, .L40+16
 351 011e 5371     		strb	r3, [r2, #5]
 352 0120 A5E7     		b	.L19
 353              	.L22:
  88:Src/menu_handler.c ****         break;
 354              		.loc 1 88 0 is_stmt 1
 355 0122 5F4B     		ldr	r3, .L40+16
 356 0124 93F90630 		ldrsb	r3, [r3, #6]
 357 0128 002B     		cmp	r3, #0
 358 012a A0D0     		beq	.L19
  88:Src/menu_handler.c ****         break;
 359              		.loc 1 88 0 is_stmt 0 discriminator 1
 360 012c 013B     		subs	r3, r3, #1
 361 012e 5C4A     		ldr	r2, .L40+16
 362 0130 9371     		strb	r3, [r2, #6]
 363 0132 9CE7     		b	.L19
 364              	.L23:
  91:Src/menu_handler.c ****         break;
 365              		.loc 1 91 0 is_stmt 1
 366 0134 5A4B     		ldr	r3, .L40+16
 367 0136 93F90730 		ldrsb	r3, [r3, #7]
 368 013a 002B     		cmp	r3, #0
 369 013c 97D0     		beq	.L19
  91:Src/menu_handler.c ****         break;
 370              		.loc 1 91 0 is_stmt 0 discriminator 1
 371 013e 013B     		subs	r3, r3, #1
 372 0140 574A     		ldr	r2, .L40+16
 373 0142 D371     		strb	r3, [r2, #7]
 374 0144 93E7     		b	.L19
 375              	.L24:
  94:Src/menu_handler.c ****         break;
 376              		.loc 1 94 0 is_stmt 1
 377 0146 564B     		ldr	r3, .L40+16
 378 0148 93F90330 		ldrsb	r3, [r3, #3]
 379 014c 012B     		cmp	r3, #1
 380 014e 8EDD     		ble	.L19
  94:Src/menu_handler.c ****         break;
 381              		.loc 1 94 0 is_stmt 0 discriminator 1
 382 0150 013B     		subs	r3, r3, #1
 383 0152 534A     		ldr	r2, .L40+16
 384 0154 D370     		strb	r3, [r2, #3]
 385 0156 8AE7     		b	.L19
 386              	.L25:
  97:Src/menu_handler.c ****         break;
 387              		.loc 1 97 0 is_stmt 1
 388 0158 514B     		ldr	r3, .L40+16
 389 015a 93F90230 		ldrsb	r3, [r3, #2]
 390 015e 012B     		cmp	r3, #1
 391 0160 85DD     		ble	.L19
  97:Src/menu_handler.c ****         break;
 392              		.loc 1 97 0 is_stmt 0 discriminator 1
 393 0162 013B     		subs	r3, r3, #1
 394 0164 4E4A     		ldr	r2, .L40+16
 395 0166 9370     		strb	r3, [r2, #2]
ARM GAS  /var/folders/rk/zpr83dd14lx588t7kb0yv2b40000gn/T//cc3igAjz.s 			page 10


 396 0168 81E7     		b	.L19
 397              	.L26:
 100:Src/menu_handler.c ****         break;
 398              		.loc 1 100 0 is_stmt 1
 399 016a 4D4B     		ldr	r3, .L40+16
 400 016c B3F90030 		ldrsh	r3, [r3]	@ unaligned
 401 0170 B3F5FA6F 		cmp	r3, #2000
 402 0174 7FF77BAF 		ble	.L19
 100:Src/menu_handler.c ****         break;
 403              		.loc 1 100 0 is_stmt 0 discriminator 1
 404 0178 013B     		subs	r3, r3, #1
 405 017a 494A     		ldr	r2, .L40+16
 406 017c 1380     		strh	r3, [r2]	@ unaligned
 407 017e 76E7     		b	.L19
 408              	.L28:
 107:Src/menu_handler.c ****   {
 108:Src/menu_handler.c ****     case 0:
 109:Src/menu_handler.c ****       /* blink hours */
 110:Src/menu_handler.c ****       u8g2_SetFont(&u8g2, u8g2_font_6x12_mf);
 409              		.loc 1 110 0 is_stmt 1
 410 0180 484E     		ldr	r6, .L40+20
 411 0182 4A49     		ldr	r1, .L40+28
 412 0184 3046     		mov	r0, r6
 413 0186 FFF7FEFF 		bl	u8g2_SetFont
 414              	.LVL17:
 111:Src/menu_handler.c ****       u8g2_SetDrawColor(&u8g2, 0);
 415              		.loc 1 111 0
 416 018a 0021     		movs	r1, #0
 417 018c 3046     		mov	r0, r6
 418 018e FFF7FEFF 		bl	u8g2_SetDrawColor
 419              	.LVL18:
 112:Src/menu_handler.c ****       sprintf((char*)buff, "%02d", menuRtc.hour);
 420              		.loc 1 112 0
 421 0192 DFF80C81 		ldr	r8, .L40+16
 422 0196 3E4F     		ldr	r7, .L40
 423 0198 98F90520 		ldrsb	r2, [r8, #5]
 424 019c 4449     		ldr	r1, .L40+32
 425 019e 3846     		mov	r0, r7
 426 01a0 FFF7FEFF 		bl	sprintf
 427              	.LVL19:
 113:Src/menu_handler.c ****       u8g2_DrawStr(&u8g2, 36, 36, buff);
 428              		.loc 1 113 0
 429 01a4 3B46     		mov	r3, r7
 430 01a6 2422     		movs	r2, #36
 431 01a8 1146     		mov	r1, r2
 432 01aa 3046     		mov	r0, r6
 433 01ac FFF7FEFF 		bl	u8g2_DrawStr
 434              	.LVL20:
 114:Src/menu_handler.c ****       u8g2_SetDrawColor(&u8g2, 1);
 435              		.loc 1 114 0
 436 01b0 0121     		movs	r1, #1
 437 01b2 3046     		mov	r0, r6
 438 01b4 FFF7FEFF 		bl	u8g2_SetDrawColor
 439              	.LVL21:
 115:Src/menu_handler.c **** 
 116:Src/menu_handler.c ****       sprintf((char*)buff, ":%02d:%02d", menuRtc.min, menuRtc.sec);
 440              		.loc 1 116 0
ARM GAS  /var/folders/rk/zpr83dd14lx588t7kb0yv2b40000gn/T//cc3igAjz.s 			page 11


 441 01b8 98F90730 		ldrsb	r3, [r8, #7]
 442 01bc 98F90620 		ldrsb	r2, [r8, #6]
 443 01c0 3C49     		ldr	r1, .L40+36
 444 01c2 3846     		mov	r0, r7
 445 01c4 FFF7FEFF 		bl	sprintf
 446              	.LVL22:
 117:Src/menu_handler.c ****       u8g2_DrawStr(&u8g2, 36 + 12, 36, buff);
 447              		.loc 1 117 0
 448 01c8 3B46     		mov	r3, r7
 449 01ca 2422     		movs	r2, #36
 450 01cc 3021     		movs	r1, #48
 451 01ce 3046     		mov	r0, r6
 452 01d0 FFF7FEFF 		bl	u8g2_DrawStr
 453              	.LVL23:
 118:Src/menu_handler.c ****       sprintf((char*)buff,"%02d/%02d/%04d", menuRtc.mday, menuRtc.month, menuRtc.year);
 454              		.loc 1 118 0
 455 01d4 98F90320 		ldrsb	r2, [r8, #3]
 456 01d8 98F90230 		ldrsb	r3, [r8, #2]
 457 01dc B8F90010 		ldrsh	r1, [r8]	@ unaligned
 458 01e0 0091     		str	r1, [sp]
 459 01e2 3549     		ldr	r1, .L40+40
 460 01e4 3846     		mov	r0, r7
 461 01e6 FFF7FEFF 		bl	sprintf
 462              	.LVL24:
 119:Src/menu_handler.c ****       u8g2_DrawStr(&u8g2, 30, 48, buff);
 463              		.loc 1 119 0
 464 01ea 3B46     		mov	r3, r7
 465 01ec 3022     		movs	r2, #48
 466 01ee 1E21     		movs	r1, #30
 467 01f0 3046     		mov	r0, r6
 468 01f2 FFF7FEFF 		bl	u8g2_DrawStr
 469              	.LVL25:
 470              	.L27:
 120:Src/menu_handler.c **** 
 121:Src/menu_handler.c ****       break;
 122:Src/menu_handler.c ****     case 1:
 123:Src/menu_handler.c ****       u8g2_SetFont(&u8g2, u8g2_font_6x12_mf);
 124:Src/menu_handler.c ****       sprintf((char*)buff, "%02d:", menuRtc.hour);
 125:Src/menu_handler.c ****       u8g2_DrawStr(&u8g2, 36, 36, buff);
 126:Src/menu_handler.c ****       /* blink minutes */
 127:Src/menu_handler.c ****       u8g2_SetDrawColor(&u8g2, 0);
 128:Src/menu_handler.c ****       sprintf((char*)buff, "%02d", menuRtc.min);
 129:Src/menu_handler.c ****       u8g2_DrawStr(&u8g2, 36 + 18, 36, buff);
 130:Src/menu_handler.c ****       u8g2_SetDrawColor(&u8g2, 1);
 131:Src/menu_handler.c **** 
 132:Src/menu_handler.c ****       sprintf((char*)buff, ":%02d", menuRtc.sec);
 133:Src/menu_handler.c ****       u8g2_DrawStr(&u8g2, 36 + 30, 36, buff);
 134:Src/menu_handler.c **** 
 135:Src/menu_handler.c ****       sprintf((char*)buff,"%02d/%02d/%04d", menuRtc.mday, menuRtc.month, menuRtc.year);
 136:Src/menu_handler.c ****       u8g2_DrawStr(&u8g2, 30, 48, buff);
 137:Src/menu_handler.c ****       break;
 138:Src/menu_handler.c ****     case 2:
 139:Src/menu_handler.c ****       u8g2_SetFont(&u8g2, u8g2_font_6x12_mf);
 140:Src/menu_handler.c ****       sprintf((char*)buff, "%02d:%02d:", menuRtc.hour, menuRtc.min);
 141:Src/menu_handler.c ****       u8g2_DrawStr(&u8g2, 36, 36, buff);
 142:Src/menu_handler.c **** 
 143:Src/menu_handler.c ****       u8g2_SetDrawColor(&u8g2, 0);
ARM GAS  /var/folders/rk/zpr83dd14lx588t7kb0yv2b40000gn/T//cc3igAjz.s 			page 12


 144:Src/menu_handler.c ****       sprintf((char*)buff, "%02d", menuRtc.sec);
 145:Src/menu_handler.c ****       u8g2_DrawStr(&u8g2, 36 + 36, 36, buff);
 146:Src/menu_handler.c ****       u8g2_SetDrawColor(&u8g2, 1);
 147:Src/menu_handler.c **** 
 148:Src/menu_handler.c ****       sprintf((char*)buff, "%02d/%02d/%04d", menuRtc.mday, menuRtc.month, menuRtc.year);
 149:Src/menu_handler.c ****       u8g2_DrawStr(&u8g2, 30, 48, buff);
 150:Src/menu_handler.c ****       break;
 151:Src/menu_handler.c ****     case 3:
 152:Src/menu_handler.c ****       u8g2_SetFont(&u8g2, u8g2_font_6x12_mf);
 153:Src/menu_handler.c ****       sprintf((char*)buff, "%02d:%02d:%02d", menuRtc.hour, menuRtc.min, menuRtc.sec);
 154:Src/menu_handler.c ****       u8g2_DrawStr(&u8g2, 36, 36, buff);
 155:Src/menu_handler.c **** 
 156:Src/menu_handler.c ****       u8g2_SetDrawColor(&u8g2, 0);
 157:Src/menu_handler.c ****       sprintf((char*)buff, "%02d", menuRtc.mday);
 158:Src/menu_handler.c ****       u8g2_DrawStr(&u8g2, 30, 48, buff);
 159:Src/menu_handler.c ****       u8g2_SetDrawColor(&u8g2, 1);
 160:Src/menu_handler.c **** 
 161:Src/menu_handler.c ****       sprintf((char*)buff, "/%02d/%04d", menuRtc.month, menuRtc.year);
 162:Src/menu_handler.c ****       u8g2_DrawStr(&u8g2, 30 + 12, 48, buff);
 163:Src/menu_handler.c ****       break;
 164:Src/menu_handler.c ****     case 4:
 165:Src/menu_handler.c ****       u8g2_SetFont(&u8g2, u8g2_font_6x12_mf);
 166:Src/menu_handler.c ****       sprintf((char*)buff, "%02d:%02d:%02d", menuRtc.hour, menuRtc.min, menuRtc.sec);
 167:Src/menu_handler.c ****       u8g2_DrawStr(&u8g2, 36, 36, buff);
 168:Src/menu_handler.c **** 
 169:Src/menu_handler.c ****       sprintf((char*)buff, "%02d/", menuRtc.mday);
 170:Src/menu_handler.c ****       u8g2_DrawStr(&u8g2, 30, 48, buff);
 171:Src/menu_handler.c **** 
 172:Src/menu_handler.c ****       u8g2_SetDrawColor(&u8g2, 0);
 173:Src/menu_handler.c ****       sprintf((char*)buff, "%02d", menuRtc.month);
 174:Src/menu_handler.c ****       u8g2_DrawStr(&u8g2, 30+18, 48, buff);
 175:Src/menu_handler.c ****       u8g2_SetDrawColor(&u8g2, 1);
 176:Src/menu_handler.c **** 
 177:Src/menu_handler.c ****       sprintf((char*)buff, "/%04d", menuRtc.year);
 178:Src/menu_handler.c ****       u8g2_DrawStr(&u8g2, 30 + 30, 48, buff);
 179:Src/menu_handler.c ****       break;
 180:Src/menu_handler.c ****     case 5:
 181:Src/menu_handler.c ****       u8g2_SetFont(&u8g2, u8g2_font_6x12_mf);
 182:Src/menu_handler.c ****       sprintf((char*)buff, "%02d:%02d:%02d", menuRtc.hour, menuRtc.min, menuRtc.sec);
 183:Src/menu_handler.c ****       u8g2_DrawStr(&u8g2, 36, 36, buff);
 184:Src/menu_handler.c **** 
 185:Src/menu_handler.c ****       sprintf((char*)buff, "%02d/%02d/", menuRtc.mday, menuRtc.month);
 186:Src/menu_handler.c ****       u8g2_DrawStr(&u8g2, 30, 48, buff);
 187:Src/menu_handler.c **** 
 188:Src/menu_handler.c ****       u8g2_SetDrawColor(&u8g2, 0);
 189:Src/menu_handler.c ****       sprintf((char*)buff, "%04d", menuRtc.year);
 190:Src/menu_handler.c ****       u8g2_DrawStr(&u8g2, 30 + 36, 48, buff);
 191:Src/menu_handler.c ****       u8g2_SetDrawColor(&u8g2, 1);
 192:Src/menu_handler.c ****       break;
 193:Src/menu_handler.c ****   }
 194:Src/menu_handler.c ****   if(key == BTN_MENU)
 471              		.loc 1 194 0
 472 01f6 042C     		cmp	r4, #4
 473 01f8 00F05E81 		beq	.L39
 474              	.L35:
 195:Src/menu_handler.c ****   {
 196:Src/menu_handler.c ****     localTime = menuRtc;
ARM GAS  /var/folders/rk/zpr83dd14lx588t7kb0yv2b40000gn/T//cc3igAjz.s 			page 13


 197:Src/menu_handler.c ****     localTime.hour = localTime.hour - 7;
 198:Src/menu_handler.c ****     RTC_Sync(&localTime, +7);
 199:Src/menu_handler.c ****     u8g2_DrawStr(&u8g2, ((22 - strlen("Saved!"))/2)*6, 60, "Saved!");
 200:Src/menu_handler.c ****   }
 201:Src/menu_handler.c ****   return treeView[add].keyMode;
 202:Src/menu_handler.c **** }
 475              		.loc 1 202 0
 476 01fc 2846     		mov	r0, r5
 477 01fe 02B0     		add	sp, sp, #8
 478              	.LCFI2:
 479              		.cfi_remember_state
 480              		.cfi_def_cfa_offset 24
 481              		@ sp needed
 482 0200 BDE8F081 		pop	{r4, r5, r6, r7, r8, pc}
 483              	.L30:
 484              	.LCFI3:
 485              		.cfi_restore_state
 123:Src/menu_handler.c ****       sprintf((char*)buff, "%02d:", menuRtc.hour);
 486              		.loc 1 123 0
 487 0204 274F     		ldr	r7, .L40+20
 488 0206 2949     		ldr	r1, .L40+28
 489 0208 3846     		mov	r0, r7
 490 020a FFF7FEFF 		bl	u8g2_SetFont
 491              	.LVL26:
 124:Src/menu_handler.c ****       u8g2_DrawStr(&u8g2, 36, 36, buff);
 492              		.loc 1 124 0
 493 020e DFF89080 		ldr	r8, .L40+16
 494 0212 1F4E     		ldr	r6, .L40
 495 0214 98F90520 		ldrsb	r2, [r8, #5]
 496 0218 2849     		ldr	r1, .L40+44
 497 021a 3046     		mov	r0, r6
 498 021c FFF7FEFF 		bl	sprintf
 499              	.LVL27:
 125:Src/menu_handler.c ****       /* blink minutes */
 500              		.loc 1 125 0
 501 0220 3346     		mov	r3, r6
 502 0222 2422     		movs	r2, #36
 503 0224 1146     		mov	r1, r2
 504 0226 3846     		mov	r0, r7
 505 0228 FFF7FEFF 		bl	u8g2_DrawStr
 506              	.LVL28:
 127:Src/menu_handler.c ****       sprintf((char*)buff, "%02d", menuRtc.min);
 507              		.loc 1 127 0
 508 022c 0021     		movs	r1, #0
 509 022e 3846     		mov	r0, r7
 510 0230 FFF7FEFF 		bl	u8g2_SetDrawColor
 511              	.LVL29:
 128:Src/menu_handler.c ****       u8g2_DrawStr(&u8g2, 36 + 18, 36, buff);
 512              		.loc 1 128 0
 513 0234 98F90620 		ldrsb	r2, [r8, #6]
 514 0238 1D49     		ldr	r1, .L40+32
 515 023a 3046     		mov	r0, r6
 516 023c FFF7FEFF 		bl	sprintf
 517              	.LVL30:
 129:Src/menu_handler.c ****       u8g2_SetDrawColor(&u8g2, 1);
 518              		.loc 1 129 0
 519 0240 3346     		mov	r3, r6
ARM GAS  /var/folders/rk/zpr83dd14lx588t7kb0yv2b40000gn/T//cc3igAjz.s 			page 14


 520 0242 2422     		movs	r2, #36
 521 0244 3621     		movs	r1, #54
 522 0246 3846     		mov	r0, r7
 523 0248 FFF7FEFF 		bl	u8g2_DrawStr
 524              	.LVL31:
 130:Src/menu_handler.c **** 
 525              		.loc 1 130 0
 526 024c 0121     		movs	r1, #1
 527 024e 3846     		mov	r0, r7
 528 0250 FFF7FEFF 		bl	u8g2_SetDrawColor
 529              	.LVL32:
 132:Src/menu_handler.c ****       u8g2_DrawStr(&u8g2, 36 + 30, 36, buff);
 530              		.loc 1 132 0
 531 0254 98F90720 		ldrsb	r2, [r8, #7]
 532 0258 1949     		ldr	r1, .L40+48
 533 025a 3046     		mov	r0, r6
 534 025c FFF7FEFF 		bl	sprintf
 535              	.LVL33:
 133:Src/menu_handler.c **** 
 536              		.loc 1 133 0
 537 0260 3346     		mov	r3, r6
 538 0262 2422     		movs	r2, #36
 539 0264 4221     		movs	r1, #66
 540 0266 3846     		mov	r0, r7
 541 0268 FFF7FEFF 		bl	u8g2_DrawStr
 542              	.LVL34:
 135:Src/menu_handler.c ****       u8g2_DrawStr(&u8g2, 30, 48, buff);
 543              		.loc 1 135 0
 544 026c 98F90320 		ldrsb	r2, [r8, #3]
 545 0270 98F90230 		ldrsb	r3, [r8, #2]
 546 0274 B8F90010 		ldrsh	r1, [r8]	@ unaligned
 547 0278 0091     		str	r1, [sp]
 548 027a 0F49     		ldr	r1, .L40+40
 549 027c 3046     		mov	r0, r6
 550 027e FFF7FEFF 		bl	sprintf
 551              	.LVL35:
 136:Src/menu_handler.c ****       break;
 552              		.loc 1 136 0
 553 0282 3346     		mov	r3, r6
 554 0284 3022     		movs	r2, #48
 555 0286 1E21     		movs	r1, #30
 556 0288 3846     		mov	r0, r7
 557 028a FFF7FEFF 		bl	u8g2_DrawStr
 558              	.LVL36:
 137:Src/menu_handler.c ****     case 2:
 559              		.loc 1 137 0
 560 028e B2E7     		b	.L27
 561              	.L41:
 562              		.align	2
 563              	.L40:
 564 0290 00000000 		.word	buff
 565 0294 00000000 		.word	treeView
 566 0298 00000000 		.word	menuIdxLast
 567 029c 00000000 		.word	menuCursor
 568 02a0 00000000 		.word	menuRtc
 569 02a4 00000000 		.word	u8g2
 570 02a8 00000000 		.word	u8g2_font_unifont_t_symbols
ARM GAS  /var/folders/rk/zpr83dd14lx588t7kb0yv2b40000gn/T//cc3igAjz.s 			page 15


 571 02ac 00000000 		.word	u8g2_font_6x12_mf
 572 02b0 00000000 		.word	.LC0
 573 02b4 08000000 		.word	.LC1
 574 02b8 14000000 		.word	.LC2
 575 02bc 24000000 		.word	.LC3
 576 02c0 2C000000 		.word	.LC4
 577              	.L31:
 139:Src/menu_handler.c ****       sprintf((char*)buff, "%02d:%02d:", menuRtc.hour, menuRtc.min);
 578              		.loc 1 139 0
 579 02c4 864E     		ldr	r6, .L42
 580 02c6 8749     		ldr	r1, .L42+4
 581 02c8 3046     		mov	r0, r6
 582 02ca FFF7FEFF 		bl	u8g2_SetFont
 583              	.LVL37:
 140:Src/menu_handler.c ****       u8g2_DrawStr(&u8g2, 36, 36, buff);
 584              		.loc 1 140 0
 585 02ce DFF84482 		ldr	r8, .L42+52
 586 02d2 854F     		ldr	r7, .L42+8
 587 02d4 98F90630 		ldrsb	r3, [r8, #6]
 588 02d8 98F90520 		ldrsb	r2, [r8, #5]
 589 02dc 8349     		ldr	r1, .L42+12
 590 02de 3846     		mov	r0, r7
 591 02e0 FFF7FEFF 		bl	sprintf
 592              	.LVL38:
 141:Src/menu_handler.c **** 
 593              		.loc 1 141 0
 594 02e4 3B46     		mov	r3, r7
 595 02e6 2422     		movs	r2, #36
 596 02e8 1146     		mov	r1, r2
 597 02ea 3046     		mov	r0, r6
 598 02ec FFF7FEFF 		bl	u8g2_DrawStr
 599              	.LVL39:
 143:Src/menu_handler.c ****       sprintf((char*)buff, "%02d", menuRtc.sec);
 600              		.loc 1 143 0
 601 02f0 0021     		movs	r1, #0
 602 02f2 3046     		mov	r0, r6
 603 02f4 FFF7FEFF 		bl	u8g2_SetDrawColor
 604              	.LVL40:
 144:Src/menu_handler.c ****       u8g2_DrawStr(&u8g2, 36 + 36, 36, buff);
 605              		.loc 1 144 0
 606 02f8 98F90720 		ldrsb	r2, [r8, #7]
 607 02fc 7C49     		ldr	r1, .L42+16
 608 02fe 3846     		mov	r0, r7
 609 0300 FFF7FEFF 		bl	sprintf
 610              	.LVL41:
 145:Src/menu_handler.c ****       u8g2_SetDrawColor(&u8g2, 1);
 611              		.loc 1 145 0
 612 0304 3B46     		mov	r3, r7
 613 0306 2422     		movs	r2, #36
 614 0308 4821     		movs	r1, #72
 615 030a 3046     		mov	r0, r6
 616 030c FFF7FEFF 		bl	u8g2_DrawStr
 617              	.LVL42:
 146:Src/menu_handler.c **** 
 618              		.loc 1 146 0
 619 0310 0121     		movs	r1, #1
 620 0312 3046     		mov	r0, r6
ARM GAS  /var/folders/rk/zpr83dd14lx588t7kb0yv2b40000gn/T//cc3igAjz.s 			page 16


 621 0314 FFF7FEFF 		bl	u8g2_SetDrawColor
 622              	.LVL43:
 148:Src/menu_handler.c ****       u8g2_DrawStr(&u8g2, 30, 48, buff);
 623              		.loc 1 148 0
 624 0318 98F90320 		ldrsb	r2, [r8, #3]
 625 031c 98F90230 		ldrsb	r3, [r8, #2]
 626 0320 B8F90010 		ldrsh	r1, [r8]	@ unaligned
 627 0324 0091     		str	r1, [sp]
 628 0326 7349     		ldr	r1, .L42+20
 629 0328 3846     		mov	r0, r7
 630 032a FFF7FEFF 		bl	sprintf
 631              	.LVL44:
 149:Src/menu_handler.c ****       break;
 632              		.loc 1 149 0
 633 032e 3B46     		mov	r3, r7
 634 0330 3022     		movs	r2, #48
 635 0332 1E21     		movs	r1, #30
 636 0334 3046     		mov	r0, r6
 637 0336 FFF7FEFF 		bl	u8g2_DrawStr
 638              	.LVL45:
 150:Src/menu_handler.c ****     case 3:
 639              		.loc 1 150 0
 640 033a 5CE7     		b	.L27
 641              	.L32:
 152:Src/menu_handler.c ****       sprintf((char*)buff, "%02d:%02d:%02d", menuRtc.hour, menuRtc.min, menuRtc.sec);
 642              		.loc 1 152 0
 643 033c 684E     		ldr	r6, .L42
 644 033e 6949     		ldr	r1, .L42+4
 645 0340 3046     		mov	r0, r6
 646 0342 FFF7FEFF 		bl	u8g2_SetFont
 647              	.LVL46:
 153:Src/menu_handler.c ****       u8g2_DrawStr(&u8g2, 36, 36, buff);
 648              		.loc 1 153 0
 649 0346 DFF8CC81 		ldr	r8, .L42+52
 650 034a 98F90520 		ldrsb	r2, [r8, #5]
 651 034e 98F90630 		ldrsb	r3, [r8, #6]
 652 0352 98F90710 		ldrsb	r1, [r8, #7]
 653 0356 644F     		ldr	r7, .L42+8
 654 0358 0091     		str	r1, [sp]
 655 035a 6749     		ldr	r1, .L42+24
 656 035c 3846     		mov	r0, r7
 657 035e FFF7FEFF 		bl	sprintf
 658              	.LVL47:
 154:Src/menu_handler.c **** 
 659              		.loc 1 154 0
 660 0362 3B46     		mov	r3, r7
 661 0364 2422     		movs	r2, #36
 662 0366 1146     		mov	r1, r2
 663 0368 3046     		mov	r0, r6
 664 036a FFF7FEFF 		bl	u8g2_DrawStr
 665              	.LVL48:
 156:Src/menu_handler.c ****       sprintf((char*)buff, "%02d", menuRtc.mday);
 666              		.loc 1 156 0
 667 036e 0021     		movs	r1, #0
 668 0370 3046     		mov	r0, r6
 669 0372 FFF7FEFF 		bl	u8g2_SetDrawColor
 670              	.LVL49:
ARM GAS  /var/folders/rk/zpr83dd14lx588t7kb0yv2b40000gn/T//cc3igAjz.s 			page 17


 157:Src/menu_handler.c ****       u8g2_DrawStr(&u8g2, 30, 48, buff);
 671              		.loc 1 157 0
 672 0376 98F90320 		ldrsb	r2, [r8, #3]
 673 037a 5D49     		ldr	r1, .L42+16
 674 037c 3846     		mov	r0, r7
 675 037e FFF7FEFF 		bl	sprintf
 676              	.LVL50:
 158:Src/menu_handler.c ****       u8g2_SetDrawColor(&u8g2, 1);
 677              		.loc 1 158 0
 678 0382 3B46     		mov	r3, r7
 679 0384 3022     		movs	r2, #48
 680 0386 1E21     		movs	r1, #30
 681 0388 3046     		mov	r0, r6
 682 038a FFF7FEFF 		bl	u8g2_DrawStr
 683              	.LVL51:
 159:Src/menu_handler.c **** 
 684              		.loc 1 159 0
 685 038e 0121     		movs	r1, #1
 686 0390 3046     		mov	r0, r6
 687 0392 FFF7FEFF 		bl	u8g2_SetDrawColor
 688              	.LVL52:
 161:Src/menu_handler.c ****       u8g2_DrawStr(&u8g2, 30 + 12, 48, buff);
 689              		.loc 1 161 0
 690 0396 B8F90030 		ldrsh	r3, [r8]	@ unaligned
 691 039a 98F90220 		ldrsb	r2, [r8, #2]
 692 039e 5749     		ldr	r1, .L42+28
 693 03a0 3846     		mov	r0, r7
 694 03a2 FFF7FEFF 		bl	sprintf
 695              	.LVL53:
 162:Src/menu_handler.c ****       break;
 696              		.loc 1 162 0
 697 03a6 3B46     		mov	r3, r7
 698 03a8 3022     		movs	r2, #48
 699 03aa 2A21     		movs	r1, #42
 700 03ac 3046     		mov	r0, r6
 701 03ae FFF7FEFF 		bl	u8g2_DrawStr
 702              	.LVL54:
 163:Src/menu_handler.c ****     case 4:
 703              		.loc 1 163 0
 704 03b2 20E7     		b	.L27
 705              	.L33:
 165:Src/menu_handler.c ****       sprintf((char*)buff, "%02d:%02d:%02d", menuRtc.hour, menuRtc.min, menuRtc.sec);
 706              		.loc 1 165 0
 707 03b4 4A4F     		ldr	r7, .L42
 708 03b6 4B49     		ldr	r1, .L42+4
 709 03b8 3846     		mov	r0, r7
 710 03ba FFF7FEFF 		bl	u8g2_SetFont
 711              	.LVL55:
 166:Src/menu_handler.c ****       u8g2_DrawStr(&u8g2, 36, 36, buff);
 712              		.loc 1 166 0
 713 03be DFF85481 		ldr	r8, .L42+52
 714 03c2 98F90520 		ldrsb	r2, [r8, #5]
 715 03c6 98F90630 		ldrsb	r3, [r8, #6]
 716 03ca 98F90710 		ldrsb	r1, [r8, #7]
 717 03ce 464E     		ldr	r6, .L42+8
 718 03d0 0091     		str	r1, [sp]
 719 03d2 4949     		ldr	r1, .L42+24
ARM GAS  /var/folders/rk/zpr83dd14lx588t7kb0yv2b40000gn/T//cc3igAjz.s 			page 18


 720 03d4 3046     		mov	r0, r6
 721 03d6 FFF7FEFF 		bl	sprintf
 722              	.LVL56:
 167:Src/menu_handler.c **** 
 723              		.loc 1 167 0
 724 03da 3346     		mov	r3, r6
 725 03dc 2422     		movs	r2, #36
 726 03de 1146     		mov	r1, r2
 727 03e0 3846     		mov	r0, r7
 728 03e2 FFF7FEFF 		bl	u8g2_DrawStr
 729              	.LVL57:
 169:Src/menu_handler.c ****       u8g2_DrawStr(&u8g2, 30, 48, buff);
 730              		.loc 1 169 0
 731 03e6 98F90320 		ldrsb	r2, [r8, #3]
 732 03ea 4549     		ldr	r1, .L42+32
 733 03ec 3046     		mov	r0, r6
 734 03ee FFF7FEFF 		bl	sprintf
 735              	.LVL58:
 170:Src/menu_handler.c **** 
 736              		.loc 1 170 0
 737 03f2 3346     		mov	r3, r6
 738 03f4 3022     		movs	r2, #48
 739 03f6 1E21     		movs	r1, #30
 740 03f8 3846     		mov	r0, r7
 741 03fa FFF7FEFF 		bl	u8g2_DrawStr
 742              	.LVL59:
 172:Src/menu_handler.c ****       sprintf((char*)buff, "%02d", menuRtc.month);
 743              		.loc 1 172 0
 744 03fe 0021     		movs	r1, #0
 745 0400 3846     		mov	r0, r7
 746 0402 FFF7FEFF 		bl	u8g2_SetDrawColor
 747              	.LVL60:
 173:Src/menu_handler.c ****       u8g2_DrawStr(&u8g2, 30+18, 48, buff);
 748              		.loc 1 173 0
 749 0406 98F90220 		ldrsb	r2, [r8, #2]
 750 040a 3949     		ldr	r1, .L42+16
 751 040c 3046     		mov	r0, r6
 752 040e FFF7FEFF 		bl	sprintf
 753              	.LVL61:
 174:Src/menu_handler.c ****       u8g2_SetDrawColor(&u8g2, 1);
 754              		.loc 1 174 0
 755 0412 3346     		mov	r3, r6
 756 0414 3022     		movs	r2, #48
 757 0416 1146     		mov	r1, r2
 758 0418 3846     		mov	r0, r7
 759 041a FFF7FEFF 		bl	u8g2_DrawStr
 760              	.LVL62:
 175:Src/menu_handler.c **** 
 761              		.loc 1 175 0
 762 041e 0121     		movs	r1, #1
 763 0420 3846     		mov	r0, r7
 764 0422 FFF7FEFF 		bl	u8g2_SetDrawColor
 765              	.LVL63:
 177:Src/menu_handler.c ****       u8g2_DrawStr(&u8g2, 30 + 30, 48, buff);
 766              		.loc 1 177 0
 767 0426 B8F90020 		ldrsh	r2, [r8]	@ unaligned
 768 042a 3649     		ldr	r1, .L42+36
ARM GAS  /var/folders/rk/zpr83dd14lx588t7kb0yv2b40000gn/T//cc3igAjz.s 			page 19


 769 042c 3046     		mov	r0, r6
 770 042e FFF7FEFF 		bl	sprintf
 771              	.LVL64:
 178:Src/menu_handler.c ****       break;
 772              		.loc 1 178 0
 773 0432 3346     		mov	r3, r6
 774 0434 3022     		movs	r2, #48
 775 0436 3C21     		movs	r1, #60
 776 0438 3846     		mov	r0, r7
 777 043a FFF7FEFF 		bl	u8g2_DrawStr
 778              	.LVL65:
 179:Src/menu_handler.c ****     case 5:
 779              		.loc 1 179 0
 780 043e DAE6     		b	.L27
 781              	.L34:
 181:Src/menu_handler.c ****       sprintf((char*)buff, "%02d:%02d:%02d", menuRtc.hour, menuRtc.min, menuRtc.sec);
 782              		.loc 1 181 0
 783 0440 274E     		ldr	r6, .L42
 784 0442 2849     		ldr	r1, .L42+4
 785 0444 3046     		mov	r0, r6
 786 0446 FFF7FEFF 		bl	u8g2_SetFont
 787              	.LVL66:
 182:Src/menu_handler.c ****       u8g2_DrawStr(&u8g2, 36, 36, buff);
 788              		.loc 1 182 0
 789 044a DFF8C880 		ldr	r8, .L42+52
 790 044e 98F90520 		ldrsb	r2, [r8, #5]
 791 0452 98F90630 		ldrsb	r3, [r8, #6]
 792 0456 98F90710 		ldrsb	r1, [r8, #7]
 793 045a 234F     		ldr	r7, .L42+8
 794 045c 0091     		str	r1, [sp]
 795 045e 2649     		ldr	r1, .L42+24
 796 0460 3846     		mov	r0, r7
 797 0462 FFF7FEFF 		bl	sprintf
 798              	.LVL67:
 183:Src/menu_handler.c **** 
 799              		.loc 1 183 0
 800 0466 3B46     		mov	r3, r7
 801 0468 2422     		movs	r2, #36
 802 046a 1146     		mov	r1, r2
 803 046c 3046     		mov	r0, r6
 804 046e FFF7FEFF 		bl	u8g2_DrawStr
 805              	.LVL68:
 185:Src/menu_handler.c ****       u8g2_DrawStr(&u8g2, 30, 48, buff);
 806              		.loc 1 185 0
 807 0472 98F90230 		ldrsb	r3, [r8, #2]
 808 0476 98F90320 		ldrsb	r2, [r8, #3]
 809 047a 2349     		ldr	r1, .L42+40
 810 047c 3846     		mov	r0, r7
 811 047e FFF7FEFF 		bl	sprintf
 812              	.LVL69:
 186:Src/menu_handler.c **** 
 813              		.loc 1 186 0
 814 0482 3B46     		mov	r3, r7
 815 0484 3022     		movs	r2, #48
 816 0486 1E21     		movs	r1, #30
 817 0488 3046     		mov	r0, r6
 818 048a FFF7FEFF 		bl	u8g2_DrawStr
ARM GAS  /var/folders/rk/zpr83dd14lx588t7kb0yv2b40000gn/T//cc3igAjz.s 			page 20


 819              	.LVL70:
 188:Src/menu_handler.c ****       sprintf((char*)buff, "%04d", menuRtc.year);
 820              		.loc 1 188 0
 821 048e 0021     		movs	r1, #0
 822 0490 3046     		mov	r0, r6
 823 0492 FFF7FEFF 		bl	u8g2_SetDrawColor
 824              	.LVL71:
 189:Src/menu_handler.c ****       u8g2_DrawStr(&u8g2, 30 + 36, 48, buff);
 825              		.loc 1 189 0
 826 0496 B8F90020 		ldrsh	r2, [r8]	@ unaligned
 827 049a 1C49     		ldr	r1, .L42+44
 828 049c 3846     		mov	r0, r7
 829 049e FFF7FEFF 		bl	sprintf
 830              	.LVL72:
 190:Src/menu_handler.c ****       u8g2_SetDrawColor(&u8g2, 1);
 831              		.loc 1 190 0
 832 04a2 3B46     		mov	r3, r7
 833 04a4 3022     		movs	r2, #48
 834 04a6 4221     		movs	r1, #66
 835 04a8 3046     		mov	r0, r6
 836 04aa FFF7FEFF 		bl	u8g2_DrawStr
 837              	.LVL73:
 191:Src/menu_handler.c ****       break;
 838              		.loc 1 191 0
 839 04ae 0121     		movs	r1, #1
 840 04b0 3046     		mov	r0, r6
 841 04b2 FFF7FEFF 		bl	u8g2_SetDrawColor
 842              	.LVL74:
 192:Src/menu_handler.c ****   }
 843              		.loc 1 192 0
 844 04b6 9EE6     		b	.L27
 845              	.L39:
 196:Src/menu_handler.c ****     localTime.hour = localTime.hour - 7;
 846              		.loc 1 196 0
 847 04b8 1548     		ldr	r0, .L42+48
 848 04ba 164B     		ldr	r3, .L42+52
 849 04bc 1A68     		ldr	r2, [r3]	@ unaligned
 850 04be 5B68     		ldr	r3, [r3, #4]	@ unaligned
 851 04c0 0260     		str	r2, [r0]	@ unaligned
 852 04c2 4360     		str	r3, [r0, #4]	@ unaligned
 197:Src/menu_handler.c ****     RTC_Sync(&localTime, +7);
 853              		.loc 1 197 0
 854 04c4 4379     		ldrb	r3, [r0, #5]	@ zero_extendqisi2
 855 04c6 073B     		subs	r3, r3, #7
 856 04c8 4371     		strb	r3, [r0, #5]
 198:Src/menu_handler.c ****     u8g2_DrawStr(&u8g2, ((22 - strlen("Saved!"))/2)*6, 60, "Saved!");
 857              		.loc 1 198 0
 858 04ca 0721     		movs	r1, #7
 859 04cc FFF7FEFF 		bl	RTC_Sync
 860              	.LVL75:
 199:Src/menu_handler.c ****   }
 861              		.loc 1 199 0
 862 04d0 114B     		ldr	r3, .L42+56
 863 04d2 3C22     		movs	r2, #60
 864 04d4 3021     		movs	r1, #48
 865 04d6 0248     		ldr	r0, .L42
 866 04d8 FFF7FEFF 		bl	u8g2_DrawStr
ARM GAS  /var/folders/rk/zpr83dd14lx588t7kb0yv2b40000gn/T//cc3igAjz.s 			page 21


 867              	.LVL76:
 868 04dc 8EE6     		b	.L35
 869              	.L43:
 870 04de 00BF     		.align	2
 871              	.L42:
 872 04e0 00000000 		.word	u8g2
 873 04e4 00000000 		.word	u8g2_font_6x12_mf
 874 04e8 00000000 		.word	buff
 875 04ec 34000000 		.word	.LC5
 876 04f0 00000000 		.word	.LC0
 877 04f4 14000000 		.word	.LC2
 878 04f8 40000000 		.word	.LC6
 879 04fc 50000000 		.word	.LC7
 880 0500 5C000000 		.word	.LC8
 881 0504 64000000 		.word	.LC9
 882 0508 6C000000 		.word	.LC10
 883 050c 78000000 		.word	.LC11
 884 0510 00000000 		.word	localTime
 885 0514 00000000 		.word	menuRtc
 886 0518 80000000 		.word	.LC12
 887              		.cfi_endproc
 888              	.LFE71:
 890              		.section	.text.SetUVEvt,"ax",%progbits
 891              		.align	1
 892              		.global	SetUVEvt
 893              		.syntax unified
 894              		.thumb
 895              		.thumb_func
 896              		.fpu softvfp
 898              	SetUVEvt:
 899              	.LFB72:
 203:Src/menu_handler.c **** 
 204:Src/menu_handler.c **** 
 205:Src/menu_handler.c **** uint16_t SetUVEvt(uint8_t add, uint16_t key)
 206:Src/menu_handler.c **** {
 900              		.loc 1 206 0
 901              		.cfi_startproc
 902              		@ args = 0, pretend = 0, frame = 0
 903              		@ frame_needed = 0, uses_anonymous_args = 0
 904              	.LVL77:
 905 0000 F8B5     		push	{r3, r4, r5, r6, r7, lr}
 906              	.LCFI4:
 907              		.cfi_def_cfa_offset 24
 908              		.cfi_offset 3, -24
 909              		.cfi_offset 4, -20
 910              		.cfi_offset 5, -16
 911              		.cfi_offset 6, -12
 912              		.cfi_offset 7, -8
 913              		.cfi_offset 14, -4
 914 0002 0446     		mov	r4, r0
 915 0004 0D46     		mov	r5, r1
 207:Src/menu_handler.c ****   memset(buff, 0, sizeof(buff));
 916              		.loc 1 207 0
 917 0006 5A22     		movs	r2, #90
 918 0008 0021     		movs	r1, #0
 919              	.LVL78:
 920 000a 4848     		ldr	r0, .L62
ARM GAS  /var/folders/rk/zpr83dd14lx588t7kb0yv2b40000gn/T//cc3igAjz.s 			page 22


 921              	.LVL79:
 922 000c FFF7FEFF 		bl	memset
 923              	.LVL80:
 208:Src/menu_handler.c ****   if(treeView[add].keyMode != menuIdxLast)
 924              		.loc 1 208 0
 925 0010 6420     		movs	r0, #100
 926 0012 00FB04F0 		mul	r0, r0, r4
 927 0016 464B     		ldr	r3, .L62+4
 928 0018 1E5A     		ldrh	r6, [r3, r0]
 929 001a 464B     		ldr	r3, .L62+8
 930 001c 1B88     		ldrh	r3, [r3]
 931 001e 9E42     		cmp	r6, r3
 932 0020 03D0     		beq	.L45
 209:Src/menu_handler.c ****     menuValueSet = sys_cfg.uvMode;
 933              		.loc 1 209 0
 934 0022 454B     		ldr	r3, .L62+12
 935 0024 1A78     		ldrb	r2, [r3]	@ zero_extendqisi2
 936 0026 454B     		ldr	r3, .L62+16
 937 0028 1A80     		strh	r2, [r3]	@ movhi
 938              	.L45:
 210:Src/menu_handler.c ****   if(key == BTN_UP)
 939              		.loc 1 210 0
 940 002a 35B9     		cbnz	r5, .L46
 211:Src/menu_handler.c ****     if(menuValueSet < 4)
 941              		.loc 1 211 0
 942 002c 434B     		ldr	r3, .L62+16
 943 002e 1B88     		ldrh	r3, [r3]
 944 0030 032B     		cmp	r3, #3
 945 0032 02D8     		bhi	.L46
 212:Src/menu_handler.c ****       menuValueSet++;
 946              		.loc 1 212 0
 947 0034 0133     		adds	r3, r3, #1
 948 0036 414A     		ldr	r2, .L62+16
 949 0038 1380     		strh	r3, [r2]	@ movhi
 950              	.L46:
 213:Src/menu_handler.c ****   if(key == BTN_DOWN)
 951              		.loc 1 213 0
 952 003a 012D     		cmp	r5, #1
 953 003c 3BD0     		beq	.L55
 954              	.L47:
 214:Src/menu_handler.c ****     if(menuValueSet > 0)
 215:Src/menu_handler.c ****       menuValueSet--;
 216:Src/menu_handler.c ****   u8g2_SetFont(&u8g2, u8g2_font_unifont_t_symbols);
 955              		.loc 1 216 0
 956 003e 404C     		ldr	r4, .L62+20
 957 0040 4049     		ldr	r1, .L62+24
 958 0042 2046     		mov	r0, r4
 959 0044 FFF7FEFF 		bl	u8g2_SetFont
 960              	.LVL81:
 217:Src/menu_handler.c ****   //u8g2_DrawStr(&u8g2, ((22 - strlen("^"))/2)*6, 24, "^");
 218:Src/menu_handler.c ****   u8g2_DrawGlyph(&u8g2, 56, 24, 0x23f6);
 961              		.loc 1 218 0
 962 0048 42F2F633 		movw	r3, #9206
 963 004c 1822     		movs	r2, #24
 964 004e 3821     		movs	r1, #56
 965 0050 2046     		mov	r0, r4
 966 0052 FFF7FEFF 		bl	u8g2_DrawGlyph
ARM GAS  /var/folders/rk/zpr83dd14lx588t7kb0yv2b40000gn/T//cc3igAjz.s 			page 23


 967              	.LVL82:
 219:Src/menu_handler.c ****   if(menuValueSet == 0)
 968              		.loc 1 219 0
 969 0056 394B     		ldr	r3, .L62+16
 970 0058 1B88     		ldrh	r3, [r3]
 971 005a A3B3     		cbz	r3, .L56
 972              	.L48:
 220:Src/menu_handler.c ****     sprintf((char*)buff, "OFF");
 221:Src/menu_handler.c ****   if(menuValueSet == 1)
 973              		.loc 1 221 0
 974 005c 012B     		cmp	r3, #1
 975 005e 37D0     		beq	.L57
 976              	.L49:
 222:Src/menu_handler.c ****     sprintf((char*)buff, "15 MINUTE");
 223:Src/menu_handler.c ****   if(menuValueSet == 2)
 977              		.loc 1 223 0
 978 0060 022B     		cmp	r3, #2
 979 0062 3DD0     		beq	.L58
 980              	.L50:
 224:Src/menu_handler.c ****     sprintf((char*)buff, "30 MINUTE");
 225:Src/menu_handler.c ****   if(menuValueSet == 3)
 981              		.loc 1 225 0
 982 0064 032B     		cmp	r3, #3
 983 0066 43D0     		beq	.L59
 984              	.L51:
 226:Src/menu_handler.c ****     sprintf((char*)buff, "1 HOURS");
 227:Src/menu_handler.c ****   if(menuValueSet == 4)
 985              		.loc 1 227 0
 986 0068 042B     		cmp	r3, #4
 987 006a 47D0     		beq	.L60
 988              	.L52:
 228:Src/menu_handler.c ****     sprintf((char*)buff, "2 HOURS");
 229:Src/menu_handler.c ****   u8g2_SetFont(&u8g2, u8g2_font_6x12_mf);
 989              		.loc 1 229 0
 990 006c 344C     		ldr	r4, .L62+20
 991 006e 3649     		ldr	r1, .L62+28
 992 0070 2046     		mov	r0, r4
 993 0072 FFF7FEFF 		bl	u8g2_SetFont
 994              	.LVL83:
 230:Src/menu_handler.c ****   u8g2_DrawStr(&u8g2, ((22 - strlen(buff))/2)*6, 36, buff);
 995              		.loc 1 230 0
 996 0076 2D4F     		ldr	r7, .L62
 997 0078 3846     		mov	r0, r7
 998 007a FFF7FEFF 		bl	strlen
 999              	.LVL84:
 1000 007e C0F11600 		rsb	r0, r0, #22
 1001 0082 4008     		lsrs	r0, r0, #1
 1002 0084 00EB4000 		add	r0, r0, r0, lsl #1
 1003 0088 4100     		lsls	r1, r0, #1
 1004 008a 3B46     		mov	r3, r7
 1005 008c 2422     		movs	r2, #36
 1006 008e 01F0FE01 		and	r1, r1, #254
 1007 0092 2046     		mov	r0, r4
 1008 0094 FFF7FEFF 		bl	u8g2_DrawStr
 1009              	.LVL85:
 231:Src/menu_handler.c ****   u8g2_SetFont(&u8g2, u8g2_font_unifont_t_symbols);
 1010              		.loc 1 231 0
ARM GAS  /var/folders/rk/zpr83dd14lx588t7kb0yv2b40000gn/T//cc3igAjz.s 			page 24


 1011 0098 2A49     		ldr	r1, .L62+24
 1012 009a 2046     		mov	r0, r4
 1013 009c FFF7FEFF 		bl	u8g2_SetFont
 1014              	.LVL86:
 232:Src/menu_handler.c ****   u8g2_DrawGlyph(&u8g2, 56, 50, 0x23f7);
 1015              		.loc 1 232 0
 1016 00a0 42F2F733 		movw	r3, #9207
 1017 00a4 3222     		movs	r2, #50
 1018 00a6 3821     		movs	r1, #56
 1019 00a8 2046     		mov	r0, r4
 1020 00aa FFF7FEFF 		bl	u8g2_DrawGlyph
 1021              	.LVL87:
 233:Src/menu_handler.c ****   //u8g2_DrawStr(&u8g2, ((22 - strlen("v"))/2)*6, 48, "v");
 234:Src/menu_handler.c ****   if(key == BTN_MENU)
 1022              		.loc 1 234 0
 1023 00ae 042D     		cmp	r5, #4
 1024 00b0 2AD0     		beq	.L61
 1025              	.L53:
 235:Src/menu_handler.c ****   {
 236:Src/menu_handler.c ****     sys_cfg.uvMode = (uint8_t)menuValueSet;
 237:Src/menu_handler.c ****     CFG_Save();
 238:Src/menu_handler.c ****     u8g2_SetFont(&u8g2, u8g2_font_6x12_mf);
 239:Src/menu_handler.c ****     u8g2_DrawStr(&u8g2, ((22 - strlen("Saved!"))/2)*6, 60, "Saved!");
 240:Src/menu_handler.c ****   }
 241:Src/menu_handler.c ****   return treeView[add].keyMode;
 242:Src/menu_handler.c **** }
 1026              		.loc 1 242 0
 1027 00b2 3046     		mov	r0, r6
 1028 00b4 F8BD     		pop	{r3, r4, r5, r6, r7, pc}
 1029              	.L55:
 214:Src/menu_handler.c ****       menuValueSet--;
 1030              		.loc 1 214 0
 1031 00b6 214B     		ldr	r3, .L62+16
 1032 00b8 1B88     		ldrh	r3, [r3]
 1033 00ba 002B     		cmp	r3, #0
 1034 00bc BFD0     		beq	.L47
 215:Src/menu_handler.c ****   u8g2_SetFont(&u8g2, u8g2_font_unifont_t_symbols);
 1035              		.loc 1 215 0
 1036 00be 013B     		subs	r3, r3, #1
 1037 00c0 1E4A     		ldr	r2, .L62+16
 1038 00c2 1380     		strh	r3, [r2]	@ movhi
 1039 00c4 BBE7     		b	.L47
 1040              	.L56:
 220:Src/menu_handler.c ****   if(menuValueSet == 1)
 1041              		.loc 1 220 0
 1042 00c6 214A     		ldr	r2, .L62+32
 1043 00c8 1068     		ldr	r0, [r2]
 1044 00ca 184A     		ldr	r2, .L62
 1045 00cc 1060     		str	r0, [r2]	@ unaligned
 1046 00ce C5E7     		b	.L48
 1047              	.L57:
 222:Src/menu_handler.c ****   if(menuValueSet == 2)
 1048              		.loc 1 222 0
 1049 00d0 164C     		ldr	r4, .L62
 1050 00d2 1F4A     		ldr	r2, .L62+36
 1051 00d4 03CA     		ldmia	r2!, {r0, r1}
 1052 00d6 2060     		str	r0, [r4]	@ unaligned
ARM GAS  /var/folders/rk/zpr83dd14lx588t7kb0yv2b40000gn/T//cc3igAjz.s 			page 25


 1053 00d8 6160     		str	r1, [r4, #4]	@ unaligned
 1054 00da 1288     		ldrh	r2, [r2]	@ unaligned
 1055 00dc 2281     		strh	r2, [r4, #8]	@ unaligned
 1056 00de BFE7     		b	.L49
 1057              	.L58:
 224:Src/menu_handler.c ****   if(menuValueSet == 3)
 1058              		.loc 1 224 0
 1059 00e0 124C     		ldr	r4, .L62
 1060 00e2 1C4A     		ldr	r2, .L62+40
 1061 00e4 03CA     		ldmia	r2!, {r0, r1}
 1062 00e6 2060     		str	r0, [r4]	@ unaligned
 1063 00e8 6160     		str	r1, [r4, #4]	@ unaligned
 1064 00ea 1288     		ldrh	r2, [r2]	@ unaligned
 1065 00ec 2281     		strh	r2, [r4, #8]	@ unaligned
 1066 00ee B9E7     		b	.L50
 1067              	.L59:
 226:Src/menu_handler.c ****   if(menuValueSet == 4)
 1068              		.loc 1 226 0
 1069 00f0 0E4C     		ldr	r4, .L62
 1070 00f2 194A     		ldr	r2, .L62+44
 1071 00f4 03CA     		ldmia	r2!, {r0, r1}
 1072 00f6 2060     		str	r0, [r4]	@ unaligned
 1073 00f8 6160     		str	r1, [r4, #4]	@ unaligned
 1074 00fa B5E7     		b	.L51
 1075              	.L60:
 228:Src/menu_handler.c ****   u8g2_SetFont(&u8g2, u8g2_font_6x12_mf);
 1076              		.loc 1 228 0
 1077 00fc 0B4A     		ldr	r2, .L62
 1078 00fe 174B     		ldr	r3, .L62+48
 1079 0100 03CB     		ldmia	r3!, {r0, r1}
 1080 0102 1060     		str	r0, [r2]	@ unaligned
 1081 0104 5160     		str	r1, [r2, #4]	@ unaligned
 1082 0106 B1E7     		b	.L52
 1083              	.L61:
 236:Src/menu_handler.c ****     CFG_Save();
 1084              		.loc 1 236 0
 1085 0108 0C4B     		ldr	r3, .L62+16
 1086 010a 1A78     		ldrb	r2, [r3]	@ zero_extendqisi2
 1087 010c 0A4B     		ldr	r3, .L62+12
 1088 010e 1A70     		strb	r2, [r3]
 237:Src/menu_handler.c ****     u8g2_SetFont(&u8g2, u8g2_font_6x12_mf);
 1089              		.loc 1 237 0
 1090 0110 FFF7FEFF 		bl	CFG_Save
 1091              	.LVL88:
 238:Src/menu_handler.c ****     u8g2_DrawStr(&u8g2, ((22 - strlen("Saved!"))/2)*6, 60, "Saved!");
 1092              		.loc 1 238 0
 1093 0114 0C49     		ldr	r1, .L62+28
 1094 0116 2046     		mov	r0, r4
 1095 0118 FFF7FEFF 		bl	u8g2_SetFont
 1096              	.LVL89:
 239:Src/menu_handler.c ****   }
 1097              		.loc 1 239 0
 1098 011c 104B     		ldr	r3, .L62+52
 1099 011e 3C22     		movs	r2, #60
 1100 0120 3021     		movs	r1, #48
 1101 0122 2046     		mov	r0, r4
 1102 0124 FFF7FEFF 		bl	u8g2_DrawStr
ARM GAS  /var/folders/rk/zpr83dd14lx588t7kb0yv2b40000gn/T//cc3igAjz.s 			page 26


 1103              	.LVL90:
 1104 0128 C3E7     		b	.L53
 1105              	.L63:
 1106 012a 00BF     		.align	2
 1107              	.L62:
 1108 012c 00000000 		.word	buff
 1109 0130 00000000 		.word	treeView
 1110 0134 00000000 		.word	menuIdxLast
 1111 0138 00000000 		.word	sys_cfg
 1112 013c 00000000 		.word	menuValueSet
 1113 0140 00000000 		.word	u8g2
 1114 0144 00000000 		.word	u8g2_font_unifont_t_symbols
 1115 0148 00000000 		.word	u8g2_font_6x12_mf
 1116 014c 00000000 		.word	.LC13
 1117 0150 04000000 		.word	.LC14
 1118 0154 10000000 		.word	.LC15
 1119 0158 1C000000 		.word	.LC16
 1120 015c 24000000 		.word	.LC17
 1121 0160 80000000 		.word	.LC12
 1122              		.cfi_endproc
 1123              	.LFE72:
 1125              		.section	.text.SetPressureEvt,"ax",%progbits
 1126              		.align	1
 1127              		.global	SetPressureEvt
 1128              		.syntax unified
 1129              		.thumb
 1130              		.thumb_func
 1131              		.fpu softvfp
 1133              	SetPressureEvt:
 1134              	.LFB73:
 243:Src/menu_handler.c **** 
 244:Src/menu_handler.c **** uint16_t SetPressureEvt(uint8_t add, uint16_t key)
 245:Src/menu_handler.c **** {
 1135              		.loc 1 245 0
 1136              		.cfi_startproc
 1137              		@ args = 0, pretend = 0, frame = 0
 1138              		@ frame_needed = 0, uses_anonymous_args = 0
 1139              	.LVL91:
 1140 0000 F8B5     		push	{r3, r4, r5, r6, r7, lr}
 1141              	.LCFI5:
 1142              		.cfi_def_cfa_offset 24
 1143              		.cfi_offset 3, -24
 1144              		.cfi_offset 4, -20
 1145              		.cfi_offset 5, -16
 1146              		.cfi_offset 6, -12
 1147              		.cfi_offset 7, -8
 1148              		.cfi_offset 14, -4
 1149 0002 0446     		mov	r4, r0
 1150 0004 0D46     		mov	r5, r1
 246:Src/menu_handler.c ****   memset(buff, 0, sizeof(buff));
 1151              		.loc 1 246 0
 1152 0006 5A22     		movs	r2, #90
 1153 0008 0021     		movs	r1, #0
 1154              	.LVL92:
 1155 000a 3B48     		ldr	r0, .L72
 1156              	.LVL93:
 1157 000c FFF7FEFF 		bl	memset
ARM GAS  /var/folders/rk/zpr83dd14lx588t7kb0yv2b40000gn/T//cc3igAjz.s 			page 27


 1158              	.LVL94:
 247:Src/menu_handler.c ****   if(treeView[add].keyMode != menuIdxLast)
 1159              		.loc 1 247 0
 1160 0010 6420     		movs	r0, #100
 1161 0012 00FB04F0 		mul	r0, r0, r4
 1162 0016 394B     		ldr	r3, .L72+4
 1163 0018 1A5A     		ldrh	r2, [r3, r0]
 1164 001a 394B     		ldr	r3, .L72+8
 1165 001c 1B88     		ldrh	r3, [r3]
 1166 001e 9A42     		cmp	r2, r3
 1167 0020 03D0     		beq	.L65
 248:Src/menu_handler.c ****     menuValueSet = sys_cfg.pressureVal;
 1168              		.loc 1 248 0
 1169 0022 384B     		ldr	r3, .L72+12
 1170 0024 DA88     		ldrh	r2, [r3, #6]
 1171 0026 384B     		ldr	r3, .L72+16
 1172 0028 1A80     		strh	r2, [r3]	@ movhi
 1173              	.L65:
 249:Src/menu_handler.c ****   if(key == BTN_UP)
 1174              		.loc 1 249 0
 1175 002a 3DB9     		cbnz	r5, .L66
 250:Src/menu_handler.c ****     if(menuValueSet < 800)
 1176              		.loc 1 250 0
 1177 002c 364B     		ldr	r3, .L72+16
 1178 002e 1B88     		ldrh	r3, [r3]
 1179 0030 B3F5487F 		cmp	r3, #800
 1180 0034 02D2     		bcs	.L66
 251:Src/menu_handler.c ****       menuValueSet++;
 1181              		.loc 1 251 0
 1182 0036 0133     		adds	r3, r3, #1
 1183 0038 334A     		ldr	r2, .L72+16
 1184 003a 1380     		strh	r3, [r2]	@ movhi
 1185              	.L66:
 252:Src/menu_handler.c ****   if(key == BTN_DOWN)
 1186              		.loc 1 252 0
 1187 003c 012D     		cmp	r5, #1
 1188 003e 41D0     		beq	.L70
 1189              	.L67:
 253:Src/menu_handler.c ****     if(menuValueSet > 0)
 254:Src/menu_handler.c ****       menuValueSet--;
 255:Src/menu_handler.c ****   u8g2_SetFont(&u8g2, u8g2_font_unifont_t_symbols);
 1190              		.loc 1 255 0
 1191 0040 324E     		ldr	r6, .L72+20
 1192 0042 334C     		ldr	r4, .L72+24
 1193 0044 3146     		mov	r1, r6
 1194 0046 2046     		mov	r0, r4
 1195 0048 FFF7FEFF 		bl	u8g2_SetFont
 1196              	.LVL95:
 256:Src/menu_handler.c ****   u8g2_DrawGlyph(&u8g2, 35, 38, 0x23f2);
 1197              		.loc 1 256 0
 1198 004c 42F2F233 		movw	r3, #9202
 1199 0050 2622     		movs	r2, #38
 1200 0052 2321     		movs	r1, #35
 1201 0054 2046     		mov	r0, r4
 1202 0056 FFF7FEFF 		bl	u8g2_DrawGlyph
 1203              	.LVL96:
 257:Src/menu_handler.c **** 
ARM GAS  /var/folders/rk/zpr83dd14lx588t7kb0yv2b40000gn/T//cc3igAjz.s 			page 28


 258:Src/menu_handler.c ****   u8g2_SetFont(&u8g2, u8g2_font_unifont_t_symbols);
 1204              		.loc 1 258 0
 1205 005a 3146     		mov	r1, r6
 1206 005c 2046     		mov	r0, r4
 1207 005e FFF7FEFF 		bl	u8g2_SetFont
 1208              	.LVL97:
 259:Src/menu_handler.c ****   u8g2_DrawGlyph(&u8g2, 56, 24, 0x23f6);
 1209              		.loc 1 259 0
 1210 0062 42F2F633 		movw	r3, #9206
 1211 0066 1822     		movs	r2, #24
 1212 0068 3821     		movs	r1, #56
 1213 006a 2046     		mov	r0, r4
 1214 006c FFF7FEFF 		bl	u8g2_DrawGlyph
 1215              	.LVL98:
 260:Src/menu_handler.c **** 
 261:Src/menu_handler.c ****   sprintf((char*)buff, "%0000d", menuValueSet);
 1216              		.loc 1 261 0
 1217 0070 214F     		ldr	r7, .L72
 1218 0072 254B     		ldr	r3, .L72+16
 1219 0074 1A88     		ldrh	r2, [r3]
 1220 0076 2749     		ldr	r1, .L72+28
 1221 0078 3846     		mov	r0, r7
 1222 007a FFF7FEFF 		bl	sprintf
 1223              	.LVL99:
 262:Src/menu_handler.c ****   u8g2_SetFont(&u8g2, u8g2_font_6x12_mf);
 1224              		.loc 1 262 0
 1225 007e 2649     		ldr	r1, .L72+32
 1226 0080 2046     		mov	r0, r4
 1227 0082 FFF7FEFF 		bl	u8g2_SetFont
 1228              	.LVL100:
 263:Src/menu_handler.c ****   u8g2_DrawStr(&u8g2, ((22 - strlen(buff))/2)*6, 36, buff);
 1229              		.loc 1 263 0
 1230 0086 3846     		mov	r0, r7
 1231 0088 FFF7FEFF 		bl	strlen
 1232              	.LVL101:
 1233 008c C0F11600 		rsb	r0, r0, #22
 1234 0090 4008     		lsrs	r0, r0, #1
 1235 0092 00EB4000 		add	r0, r0, r0, lsl #1
 1236 0096 4100     		lsls	r1, r0, #1
 1237 0098 3B46     		mov	r3, r7
 1238 009a 2422     		movs	r2, #36
 1239 009c 01F0FE01 		and	r1, r1, #254
 1240 00a0 2046     		mov	r0, r4
 1241 00a2 FFF7FEFF 		bl	u8g2_DrawStr
 1242              	.LVL102:
 264:Src/menu_handler.c **** 
 265:Src/menu_handler.c ****   u8g2_SetFont(&u8g2, u8g2_font_unifont_t_symbols);
 1243              		.loc 1 265 0
 1244 00a6 3146     		mov	r1, r6
 1245 00a8 2046     		mov	r0, r4
 1246 00aa FFF7FEFF 		bl	u8g2_SetFont
 1247              	.LVL103:
 266:Src/menu_handler.c ****   u8g2_DrawGlyph(&u8g2, 56, 50, 0x23f7);
 1248              		.loc 1 266 0
 1249 00ae 42F2F733 		movw	r3, #9207
 1250 00b2 3222     		movs	r2, #50
 1251 00b4 3821     		movs	r1, #56
ARM GAS  /var/folders/rk/zpr83dd14lx588t7kb0yv2b40000gn/T//cc3igAjz.s 			page 29


 1252 00b6 2046     		mov	r0, r4
 1253 00b8 FFF7FEFF 		bl	u8g2_DrawGlyph
 1254              	.LVL104:
 267:Src/menu_handler.c ****   if(key == BTN_MENU)
 1255              		.loc 1 267 0
 1256 00bc 042D     		cmp	r5, #4
 1257 00be 09D0     		beq	.L71
 1258              	.L68:
 268:Src/menu_handler.c ****   {
 269:Src/menu_handler.c ****     sys_cfg.pressureVal = menuValueSet;
 270:Src/menu_handler.c ****     CFG_Save(); // Save config
 271:Src/menu_handler.c ****     u8g2_SetFont(&u8g2, u8g2_font_6x12_mf);
 272:Src/menu_handler.c ****     u8g2_DrawStr(&u8g2, ((22 - strlen("Saved!"))/2)*6, 60, "Saved!");
 273:Src/menu_handler.c ****   }
 274:Src/menu_handler.c ****   return 0;
 275:Src/menu_handler.c **** }
 1259              		.loc 1 275 0
 1260 00c0 0020     		movs	r0, #0
 1261 00c2 F8BD     		pop	{r3, r4, r5, r6, r7, pc}
 1262              	.L70:
 253:Src/menu_handler.c ****       menuValueSet--;
 1263              		.loc 1 253 0
 1264 00c4 104B     		ldr	r3, .L72+16
 1265 00c6 1B88     		ldrh	r3, [r3]
 1266 00c8 002B     		cmp	r3, #0
 1267 00ca B9D0     		beq	.L67
 254:Src/menu_handler.c ****   u8g2_SetFont(&u8g2, u8g2_font_unifont_t_symbols);
 1268              		.loc 1 254 0
 1269 00cc 013B     		subs	r3, r3, #1
 1270 00ce 0E4A     		ldr	r2, .L72+16
 1271 00d0 1380     		strh	r3, [r2]	@ movhi
 1272 00d2 B5E7     		b	.L67
 1273              	.L71:
 269:Src/menu_handler.c ****     CFG_Save(); // Save config
 1274              		.loc 1 269 0
 1275 00d4 0C4B     		ldr	r3, .L72+16
 1276 00d6 1A88     		ldrh	r2, [r3]
 1277 00d8 0A4B     		ldr	r3, .L72+12
 1278 00da DA80     		strh	r2, [r3, #6]	@ movhi
 270:Src/menu_handler.c ****     u8g2_SetFont(&u8g2, u8g2_font_6x12_mf);
 1279              		.loc 1 270 0
 1280 00dc FFF7FEFF 		bl	CFG_Save
 1281              	.LVL105:
 271:Src/menu_handler.c ****     u8g2_DrawStr(&u8g2, ((22 - strlen("Saved!"))/2)*6, 60, "Saved!");
 1282              		.loc 1 271 0
 1283 00e0 0D49     		ldr	r1, .L72+32
 1284 00e2 2046     		mov	r0, r4
 1285 00e4 FFF7FEFF 		bl	u8g2_SetFont
 1286              	.LVL106:
 272:Src/menu_handler.c ****   }
 1287              		.loc 1 272 0
 1288 00e8 0C4B     		ldr	r3, .L72+36
 1289 00ea 3C22     		movs	r2, #60
 1290 00ec 3021     		movs	r1, #48
 1291 00ee 2046     		mov	r0, r4
 1292 00f0 FFF7FEFF 		bl	u8g2_DrawStr
 1293              	.LVL107:
ARM GAS  /var/folders/rk/zpr83dd14lx588t7kb0yv2b40000gn/T//cc3igAjz.s 			page 30


 1294 00f4 E4E7     		b	.L68
 1295              	.L73:
 1296 00f6 00BF     		.align	2
 1297              	.L72:
 1298 00f8 00000000 		.word	buff
 1299 00fc 00000000 		.word	treeView
 1300 0100 00000000 		.word	menuIdxLast
 1301 0104 00000000 		.word	sys_cfg
 1302 0108 00000000 		.word	menuValueSet
 1303 010c 00000000 		.word	u8g2_font_unifont_t_symbols
 1304 0110 00000000 		.word	u8g2
 1305 0114 00000000 		.word	.LC18
 1306 0118 00000000 		.word	u8g2_font_6x12_mf
 1307 011c 80000000 		.word	.LC12
 1308              		.cfi_endproc
 1309              	.LFE73:
 1311              		.section	.text.SetDisplayEvt,"ax",%progbits
 1312              		.align	1
 1313              		.global	SetDisplayEvt
 1314              		.syntax unified
 1315              		.thumb
 1316              		.thumb_func
 1317              		.fpu softvfp
 1319              	SetDisplayEvt:
 1320              	.LFB74:
 276:Src/menu_handler.c **** 
 277:Src/menu_handler.c **** uint16_t SetDisplayEvt(uint8_t add, uint16_t key)
 278:Src/menu_handler.c **** {
 1321              		.loc 1 278 0
 1322              		.cfi_startproc
 1323              		@ args = 0, pretend = 0, frame = 0
 1324              		@ frame_needed = 0, uses_anonymous_args = 0
 1325              	.LVL108:
 1326 0000 70B5     		push	{r4, r5, r6, lr}
 1327              	.LCFI6:
 1328              		.cfi_def_cfa_offset 16
 1329              		.cfi_offset 4, -16
 1330              		.cfi_offset 5, -12
 1331              		.cfi_offset 6, -8
 1332              		.cfi_offset 14, -4
 1333 0002 0446     		mov	r4, r0
 1334 0004 0D46     		mov	r5, r1
 279:Src/menu_handler.c ****   memset(buff, 0, sizeof(buff));
 1335              		.loc 1 279 0
 1336 0006 5A22     		movs	r2, #90
 1337 0008 0021     		movs	r1, #0
 1338              	.LVL109:
 1339 000a 5548     		ldr	r0, .L89
 1340              	.LVL110:
 1341 000c FFF7FEFF 		bl	memset
 1342              	.LVL111:
 280:Src/menu_handler.c ****   if(treeView[add].keyMode != menuIdxLast)
 1343              		.loc 1 280 0
 1344 0010 6420     		movs	r0, #100
 1345 0012 00FB04F0 		mul	r0, r0, r4
 1346 0016 534B     		ldr	r3, .L89+4
 1347 0018 1A5A     		ldrh	r2, [r3, r0]
ARM GAS  /var/folders/rk/zpr83dd14lx588t7kb0yv2b40000gn/T//cc3igAjz.s 			page 31


 1348 001a 534B     		ldr	r3, .L89+8
 1349 001c 1B88     		ldrh	r3, [r3]
 1350 001e 9A42     		cmp	r2, r3
 1351 0020 03D0     		beq	.L75
 281:Src/menu_handler.c ****      menuValueSet = sys_cfg.viewPage;
 1352              		.loc 1 281 0
 1353 0022 524B     		ldr	r3, .L89+12
 1354 0024 5A78     		ldrb	r2, [r3, #1]	@ zero_extendqisi2
 1355 0026 524B     		ldr	r3, .L89+16
 1356 0028 1A80     		strh	r2, [r3]	@ movhi
 1357              	.L75:
 282:Src/menu_handler.c ****   if(key == BTN_UP)
 1358              		.loc 1 282 0
 1359 002a 1DB9     		cbnz	r5, .L76
 283:Src/menu_handler.c ****     if(menuValueSet < 2)
 1360              		.loc 1 283 0
 1361 002c 504B     		ldr	r3, .L89+16
 1362 002e 1B88     		ldrh	r3, [r3]
 1363 0030 012B     		cmp	r3, #1
 1364 0032 3ED9     		bls	.L83
 1365              	.L76:
 284:Src/menu_handler.c ****       menuValueSet++;
 285:Src/menu_handler.c ****   if(key == BTN_DOWN)
 1366              		.loc 1 285 0
 1367 0034 012D     		cmp	r5, #1
 1368 0036 40D0     		beq	.L84
 1369              	.L77:
 286:Src/menu_handler.c ****     if(menuValueSet > 0)
 287:Src/menu_handler.c ****       menuValueSet--;
 288:Src/menu_handler.c **** 
 289:Src/menu_handler.c ****   u8g2_SetFont(&u8g2, u8g2_font_unifont_t_symbols);
 1370              		.loc 1 289 0
 1371 0038 4E4C     		ldr	r4, .L89+20
 1372 003a 4F49     		ldr	r1, .L89+24
 1373 003c 2046     		mov	r0, r4
 1374 003e FFF7FEFF 		bl	u8g2_SetFont
 1375              	.LVL112:
 290:Src/menu_handler.c ****   u8g2_DrawGlyph(&u8g2, 56, 24, 0x23f7);
 1376              		.loc 1 290 0
 1377 0042 42F2F733 		movw	r3, #9207
 1378 0046 1822     		movs	r2, #24
 1379 0048 3821     		movs	r1, #56
 1380 004a 2046     		mov	r0, r4
 1381 004c FFF7FEFF 		bl	u8g2_DrawGlyph
 1382              	.LVL113:
 291:Src/menu_handler.c **** 
 292:Src/menu_handler.c ****   if(menuValueSet == 0)
 1383              		.loc 1 292 0
 1384 0050 474B     		ldr	r3, .L89+16
 1385 0052 1B88     		ldrh	r3, [r3]
 1386 0054 002B     		cmp	r3, #0
 1387 0056 38D0     		beq	.L85
 1388              	.L78:
 293:Src/menu_handler.c ****   {
 294:Src/menu_handler.c ****     u8g2_SetFont(&u8g2, u8g2_font_unifont_t_symbols);
 295:Src/menu_handler.c ****     u8g2_DrawGlyph(&u8g2, 20, 36, 0x25a3);
 296:Src/menu_handler.c ****     sprintf((char*)buff, "AUTO");
ARM GAS  /var/folders/rk/zpr83dd14lx588t7kb0yv2b40000gn/T//cc3igAjz.s 			page 32


 297:Src/menu_handler.c ****   }
 298:Src/menu_handler.c ****   if(menuValueSet == 1)
 1389              		.loc 1 298 0
 1390 0058 454B     		ldr	r3, .L89+16
 1391 005a 1B88     		ldrh	r3, [r3]
 1392 005c 012B     		cmp	r3, #1
 1393 005e 46D0     		beq	.L86
 1394              	.L79:
 299:Src/menu_handler.c ****   {
 300:Src/menu_handler.c ****     u8g2_SetFont(&u8g2, u8g2_font_unifont_t_symbols);
 301:Src/menu_handler.c ****     u8g2_DrawGlyph(&u8g2, 20, 36, 0x25a4);
 302:Src/menu_handler.c ****     sprintf((char*)buff, "MAIN PAGE");
 303:Src/menu_handler.c ****   }
 304:Src/menu_handler.c ****   if(menuValueSet == 2)
 1395              		.loc 1 304 0
 1396 0060 434B     		ldr	r3, .L89+16
 1397 0062 1B88     		ldrh	r3, [r3]
 1398 0064 022B     		cmp	r3, #2
 1399 0066 56D0     		beq	.L87
 1400              	.L80:
 305:Src/menu_handler.c ****   {
 306:Src/menu_handler.c ****     u8g2_SetFont(&u8g2, u8g2_font_unifont_t_symbols);
 307:Src/menu_handler.c ****     u8g2_DrawGlyph(&u8g2, 20, 36, 0x25a5);
 308:Src/menu_handler.c ****     sprintf((char*)buff, "INFO PAGE");
 309:Src/menu_handler.c ****   }
 310:Src/menu_handler.c **** 
 311:Src/menu_handler.c ****   u8g2_SetFont(&u8g2, u8g2_font_6x12_mf);
 1401              		.loc 1 311 0
 1402 0068 424C     		ldr	r4, .L89+20
 1403 006a 4449     		ldr	r1, .L89+28
 1404 006c 2046     		mov	r0, r4
 1405 006e FFF7FEFF 		bl	u8g2_SetFont
 1406              	.LVL114:
 312:Src/menu_handler.c ****   u8g2_DrawStr(&u8g2, ((22 - strlen(buff))/2)*6, 36, buff);
 1407              		.loc 1 312 0
 1408 0072 3B4E     		ldr	r6, .L89
 1409 0074 3046     		mov	r0, r6
 1410 0076 FFF7FEFF 		bl	strlen
 1411              	.LVL115:
 1412 007a C0F11600 		rsb	r0, r0, #22
 1413 007e 4008     		lsrs	r0, r0, #1
 1414 0080 00EB4000 		add	r0, r0, r0, lsl #1
 1415 0084 4100     		lsls	r1, r0, #1
 1416 0086 3346     		mov	r3, r6
 1417 0088 2422     		movs	r2, #36
 1418 008a 01F0FE01 		and	r1, r1, #254
 1419 008e 2046     		mov	r0, r4
 1420 0090 FFF7FEFF 		bl	u8g2_DrawStr
 1421              	.LVL116:
 313:Src/menu_handler.c ****   u8g2_SetFont(&u8g2, u8g2_font_unifont_t_symbols);
 1422              		.loc 1 313 0
 1423 0094 3849     		ldr	r1, .L89+24
 1424 0096 2046     		mov	r0, r4
 1425 0098 FFF7FEFF 		bl	u8g2_SetFont
 1426              	.LVL117:
 314:Src/menu_handler.c ****   u8g2_DrawGlyph(&u8g2, 56, 50, 0x23f7);
 1427              		.loc 1 314 0
ARM GAS  /var/folders/rk/zpr83dd14lx588t7kb0yv2b40000gn/T//cc3igAjz.s 			page 33


 1428 009c 42F2F733 		movw	r3, #9207
 1429 00a0 3222     		movs	r2, #50
 1430 00a2 3821     		movs	r1, #56
 1431 00a4 2046     		mov	r0, r4
 1432 00a6 FFF7FEFF 		bl	u8g2_DrawGlyph
 1433              	.LVL118:
 315:Src/menu_handler.c ****   if(key == BTN_MENU)
 1434              		.loc 1 315 0
 1435 00aa 042D     		cmp	r5, #4
 1436 00ac 47D0     		beq	.L88
 1437              	.L81:
 316:Src/menu_handler.c ****   {
 317:Src/menu_handler.c ****     sys_cfg.viewPage = menuValueSet;
 318:Src/menu_handler.c ****     CFG_Save();
 319:Src/menu_handler.c ****     u8g2_SetFont(&u8g2, u8g2_font_6x12_mf);
 320:Src/menu_handler.c ****     u8g2_DrawStr(&u8g2, ((22 - strlen("Saved!"))/2)*6, 60, "Saved!");
 321:Src/menu_handler.c ****   }
 322:Src/menu_handler.c ****   return 0;
 323:Src/menu_handler.c **** }
 1438              		.loc 1 323 0
 1439 00ae 0020     		movs	r0, #0
 1440 00b0 70BD     		pop	{r4, r5, r6, pc}
 1441              	.L83:
 284:Src/menu_handler.c ****   if(key == BTN_DOWN)
 1442              		.loc 1 284 0
 1443 00b2 0133     		adds	r3, r3, #1
 1444 00b4 2E4A     		ldr	r2, .L89+16
 1445 00b6 1380     		strh	r3, [r2]	@ movhi
 1446 00b8 BCE7     		b	.L76
 1447              	.L84:
 286:Src/menu_handler.c ****       menuValueSet--;
 1448              		.loc 1 286 0
 1449 00ba 2D4B     		ldr	r3, .L89+16
 1450 00bc 1B88     		ldrh	r3, [r3]
 1451 00be 002B     		cmp	r3, #0
 1452 00c0 BAD0     		beq	.L77
 287:Src/menu_handler.c **** 
 1453              		.loc 1 287 0
 1454 00c2 013B     		subs	r3, r3, #1
 1455 00c4 2A4A     		ldr	r2, .L89+16
 1456 00c6 1380     		strh	r3, [r2]	@ movhi
 1457 00c8 B6E7     		b	.L77
 1458              	.L85:
 294:Src/menu_handler.c ****     u8g2_DrawGlyph(&u8g2, 20, 36, 0x25a3);
 1459              		.loc 1 294 0
 1460 00ca 2B49     		ldr	r1, .L89+24
 1461 00cc 2046     		mov	r0, r4
 1462 00ce FFF7FEFF 		bl	u8g2_SetFont
 1463              	.LVL119:
 295:Src/menu_handler.c ****     sprintf((char*)buff, "AUTO");
 1464              		.loc 1 295 0
 1465 00d2 42F2A353 		movw	r3, #9635
 1466 00d6 2422     		movs	r2, #36
 1467 00d8 1421     		movs	r1, #20
 1468 00da 2046     		mov	r0, r4
 1469 00dc FFF7FEFF 		bl	u8g2_DrawGlyph
 1470              	.LVL120:
ARM GAS  /var/folders/rk/zpr83dd14lx588t7kb0yv2b40000gn/T//cc3igAjz.s 			page 34


 296:Src/menu_handler.c ****   }
 1471              		.loc 1 296 0
 1472 00e0 1F4B     		ldr	r3, .L89
 1473 00e2 274A     		ldr	r2, .L89+32
 1474 00e4 1068     		ldr	r0, [r2]
 1475 00e6 1860     		str	r0, [r3]	@ unaligned
 1476 00e8 1279     		ldrb	r2, [r2, #4]	@ zero_extendqisi2
 1477 00ea 1A71     		strb	r2, [r3, #4]
 1478 00ec B4E7     		b	.L78
 1479              	.L86:
 300:Src/menu_handler.c ****     u8g2_DrawGlyph(&u8g2, 20, 36, 0x25a4);
 1480              		.loc 1 300 0
 1481 00ee 214C     		ldr	r4, .L89+20
 1482 00f0 2149     		ldr	r1, .L89+24
 1483 00f2 2046     		mov	r0, r4
 1484 00f4 FFF7FEFF 		bl	u8g2_SetFont
 1485              	.LVL121:
 301:Src/menu_handler.c ****     sprintf((char*)buff, "MAIN PAGE");
 1486              		.loc 1 301 0
 1487 00f8 42F2A453 		movw	r3, #9636
 1488 00fc 2422     		movs	r2, #36
 1489 00fe 1421     		movs	r1, #20
 1490 0100 2046     		mov	r0, r4
 1491 0102 FFF7FEFF 		bl	u8g2_DrawGlyph
 1492              	.LVL122:
 302:Src/menu_handler.c ****   }
 1493              		.loc 1 302 0
 1494 0106 164A     		ldr	r2, .L89
 1495 0108 1E4B     		ldr	r3, .L89+36
 1496 010a 03CB     		ldmia	r3!, {r0, r1}
 1497 010c 1060     		str	r0, [r2]	@ unaligned
 1498 010e 5160     		str	r1, [r2, #4]	@ unaligned
 1499 0110 1B88     		ldrh	r3, [r3]	@ unaligned
 1500 0112 1381     		strh	r3, [r2, #8]	@ unaligned
 1501 0114 A4E7     		b	.L79
 1502              	.L87:
 306:Src/menu_handler.c ****     u8g2_DrawGlyph(&u8g2, 20, 36, 0x25a5);
 1503              		.loc 1 306 0
 1504 0116 174C     		ldr	r4, .L89+20
 1505 0118 1749     		ldr	r1, .L89+24
 1506 011a 2046     		mov	r0, r4
 1507 011c FFF7FEFF 		bl	u8g2_SetFont
 1508              	.LVL123:
 307:Src/menu_handler.c ****     sprintf((char*)buff, "INFO PAGE");
 1509              		.loc 1 307 0
 1510 0120 42F2A553 		movw	r3, #9637
 1511 0124 2422     		movs	r2, #36
 1512 0126 1421     		movs	r1, #20
 1513 0128 2046     		mov	r0, r4
 1514 012a FFF7FEFF 		bl	u8g2_DrawGlyph
 1515              	.LVL124:
 308:Src/menu_handler.c ****   }
 1516              		.loc 1 308 0
 1517 012e 0C4A     		ldr	r2, .L89
 1518 0130 154B     		ldr	r3, .L89+40
 1519 0132 03CB     		ldmia	r3!, {r0, r1}
 1520 0134 1060     		str	r0, [r2]	@ unaligned
ARM GAS  /var/folders/rk/zpr83dd14lx588t7kb0yv2b40000gn/T//cc3igAjz.s 			page 35


 1521 0136 5160     		str	r1, [r2, #4]	@ unaligned
 1522 0138 1B88     		ldrh	r3, [r3]	@ unaligned
 1523 013a 1381     		strh	r3, [r2, #8]	@ unaligned
 1524 013c 94E7     		b	.L80
 1525              	.L88:
 317:Src/menu_handler.c ****     CFG_Save();
 1526              		.loc 1 317 0
 1527 013e 0C4B     		ldr	r3, .L89+16
 1528 0140 1A88     		ldrh	r2, [r3]
 1529 0142 0A4B     		ldr	r3, .L89+12
 1530 0144 5A70     		strb	r2, [r3, #1]
 318:Src/menu_handler.c ****     u8g2_SetFont(&u8g2, u8g2_font_6x12_mf);
 1531              		.loc 1 318 0
 1532 0146 FFF7FEFF 		bl	CFG_Save
 1533              	.LVL125:
 319:Src/menu_handler.c ****     u8g2_DrawStr(&u8g2, ((22 - strlen("Saved!"))/2)*6, 60, "Saved!");
 1534              		.loc 1 319 0
 1535 014a 0C49     		ldr	r1, .L89+28
 1536 014c 2046     		mov	r0, r4
 1537 014e FFF7FEFF 		bl	u8g2_SetFont
 1538              	.LVL126:
 320:Src/menu_handler.c ****   }
 1539              		.loc 1 320 0
 1540 0152 0E4B     		ldr	r3, .L89+44
 1541 0154 3C22     		movs	r2, #60
 1542 0156 3021     		movs	r1, #48
 1543 0158 2046     		mov	r0, r4
 1544 015a FFF7FEFF 		bl	u8g2_DrawStr
 1545              	.LVL127:
 1546 015e A6E7     		b	.L81
 1547              	.L90:
 1548              		.align	2
 1549              	.L89:
 1550 0160 00000000 		.word	buff
 1551 0164 00000000 		.word	treeView
 1552 0168 00000000 		.word	menuIdxLast
 1553 016c 00000000 		.word	sys_cfg
 1554 0170 00000000 		.word	menuValueSet
 1555 0174 00000000 		.word	u8g2
 1556 0178 00000000 		.word	u8g2_font_unifont_t_symbols
 1557 017c 00000000 		.word	u8g2_font_6x12_mf
 1558 0180 00000000 		.word	.LC19
 1559 0184 08000000 		.word	.LC20
 1560 0188 14000000 		.word	.LC21
 1561 018c 80000000 		.word	.LC12
 1562              		.cfi_endproc
 1563              	.LFE74:
 1565              		.section	.text.SetBrighnessEvt,"ax",%progbits
 1566              		.align	1
 1567              		.global	SetBrighnessEvt
 1568              		.syntax unified
 1569              		.thumb
 1570              		.thumb_func
 1571              		.fpu softvfp
 1573              	SetBrighnessEvt:
 1574              	.LFB75:
 324:Src/menu_handler.c **** 
ARM GAS  /var/folders/rk/zpr83dd14lx588t7kb0yv2b40000gn/T//cc3igAjz.s 			page 36


 325:Src/menu_handler.c **** uint16_t SetBrighnessEvt(uint8_t add, uint16_t key)
 326:Src/menu_handler.c **** {
 1575              		.loc 1 326 0
 1576              		.cfi_startproc
 1577              		@ args = 0, pretend = 0, frame = 0
 1578              		@ frame_needed = 0, uses_anonymous_args = 0
 1579              	.LVL128:
 1580 0000 F0B5     		push	{r4, r5, r6, r7, lr}
 1581              	.LCFI7:
 1582              		.cfi_def_cfa_offset 20
 1583              		.cfi_offset 4, -20
 1584              		.cfi_offset 5, -16
 1585              		.cfi_offset 6, -12
 1586              		.cfi_offset 7, -8
 1587              		.cfi_offset 14, -4
 1588 0002 83B0     		sub	sp, sp, #12
 1589              	.LCFI8:
 1590              		.cfi_def_cfa_offset 32
 1591 0004 0446     		mov	r4, r0
 1592 0006 0D46     		mov	r5, r1
 327:Src/menu_handler.c ****   printf("Key pointerFunc: %d\n", key);
 1593              		.loc 1 327 0
 1594 0008 4048     		ldr	r0, .L99
 1595              	.LVL129:
 1596 000a FFF7FEFF 		bl	printf
 1597              	.LVL130:
 328:Src/menu_handler.c ****   memset(buff, 0, sizeof(buff));
 1598              		.loc 1 328 0
 1599 000e 5A22     		movs	r2, #90
 1600 0010 0021     		movs	r1, #0
 1601 0012 3F48     		ldr	r0, .L99+4
 1602 0014 FFF7FEFF 		bl	memset
 1603              	.LVL131:
 329:Src/menu_handler.c ****   if(treeView[add].keyMode != menuIdxLast)
 1604              		.loc 1 329 0
 1605 0018 6420     		movs	r0, #100
 1606 001a 00FB04F0 		mul	r0, r0, r4
 1607 001e 3D4B     		ldr	r3, .L99+8
 1608 0020 1A5A     		ldrh	r2, [r3, r0]
 1609 0022 3D4B     		ldr	r3, .L99+12
 1610 0024 1B88     		ldrh	r3, [r3]
 1611 0026 9A42     		cmp	r2, r3
 1612 0028 03D0     		beq	.L92
 330:Src/menu_handler.c ****     menuValueSet = sys_cfg.brightness;
 1613              		.loc 1 330 0
 1614 002a 3C4B     		ldr	r3, .L99+16
 1615 002c 9A78     		ldrb	r2, [r3, #2]	@ zero_extendqisi2
 1616 002e 3C4B     		ldr	r3, .L99+20
 1617 0030 1A80     		strh	r2, [r3]	@ movhi
 1618              	.L92:
 331:Src/menu_handler.c ****   u8g2_SetFont(&u8g2, u8g2_font_unifont_t_symbols);
 1619              		.loc 1 331 0
 1620 0032 3C4C     		ldr	r4, .L99+24
 1621 0034 3C49     		ldr	r1, .L99+28
 1622 0036 2046     		mov	r0, r4
 1623 0038 FFF7FEFF 		bl	u8g2_SetFont
 1624              	.LVL132:
ARM GAS  /var/folders/rk/zpr83dd14lx588t7kb0yv2b40000gn/T//cc3igAjz.s 			page 37


 332:Src/menu_handler.c ****   u8g2_DrawGlyph(&u8g2, 5, 36, 0x2600);
 1625              		.loc 1 332 0
 1626 003c 4FF41853 		mov	r3, #9728
 1627 0040 2422     		movs	r2, #36
 1628 0042 0521     		movs	r1, #5
 1629 0044 2046     		mov	r0, r4
 1630 0046 FFF7FEFF 		bl	u8g2_DrawGlyph
 1631              	.LVL133:
 333:Src/menu_handler.c ****   if(key == BTN_UP)
 1632              		.loc 1 333 0
 1633 004a 35B9     		cbnz	r5, .L93
 334:Src/menu_handler.c ****     if(menuValueSet < 100)
 1634              		.loc 1 334 0
 1635 004c 344B     		ldr	r3, .L99+20
 1636 004e 1B88     		ldrh	r3, [r3]
 1637 0050 632B     		cmp	r3, #99
 1638 0052 02D8     		bhi	.L93
 335:Src/menu_handler.c ****       menuValueSet++;
 1639              		.loc 1 335 0
 1640 0054 0133     		adds	r3, r3, #1
 1641 0056 324A     		ldr	r2, .L99+20
 1642 0058 1380     		strh	r3, [r2]	@ movhi
 1643              	.L93:
 336:Src/menu_handler.c ****   if(key == BTN_DOWN)
 1644              		.loc 1 336 0
 1645 005a 012D     		cmp	r5, #1
 1646 005c 3DD0     		beq	.L97
 1647              	.L94:
 337:Src/menu_handler.c ****     if(menuValueSet > 0)
 338:Src/menu_handler.c ****       menuValueSet--;
 339:Src/menu_handler.c ****   Set_Backlight((uint8_t)menuValueSet);
 1648              		.loc 1 339 0
 1649 005e 304F     		ldr	r7, .L99+20
 1650 0060 3878     		ldrb	r0, [r7]	@ zero_extendqisi2
 1651 0062 FFF7FEFF 		bl	Set_Backlight
 1652              	.LVL134:
 340:Src/menu_handler.c ****   
 341:Src/menu_handler.c ****   u8g2_DrawBox(&u8g2, 20, 24, menuValueSet, 10); 
 1653              		.loc 1 341 0
 1654 0066 3B78     		ldrb	r3, [r7]	@ zero_extendqisi2
 1655 0068 2E4C     		ldr	r4, .L99+24
 1656 006a 0A22     		movs	r2, #10
 1657 006c 0092     		str	r2, [sp]
 1658 006e 1822     		movs	r2, #24
 1659 0070 1421     		movs	r1, #20
 1660 0072 2046     		mov	r0, r4
 1661 0074 FFF7FEFF 		bl	u8g2_DrawBox
 1662              	.LVL135:
 342:Src/menu_handler.c ****   
 343:Src/menu_handler.c ****   u8g2_SetFont(&u8g2, u8g2_font_unifont_t_symbols);
 1663              		.loc 1 343 0
 1664 0078 2B49     		ldr	r1, .L99+28
 1665 007a 2046     		mov	r0, r4
 1666 007c FFF7FEFF 		bl	u8g2_SetFont
 1667              	.LVL136:
 344:Src/menu_handler.c ****   u8g2_DrawGlyph(&u8g2, 40, 48, 0x23eb);
 1668              		.loc 1 344 0
ARM GAS  /var/folders/rk/zpr83dd14lx588t7kb0yv2b40000gn/T//cc3igAjz.s 			page 38


 1669 0080 42F2EB33 		movw	r3, #9195
 1670 0084 3022     		movs	r2, #48
 1671 0086 2821     		movs	r1, #40
 1672 0088 2046     		mov	r0, r4
 1673 008a FFF7FEFF 		bl	u8g2_DrawGlyph
 1674              	.LVL137:
 345:Src/menu_handler.c ****   u8g2_DrawGlyph(&u8g2, 77, 48, 0x23ec);
 1675              		.loc 1 345 0
 1676 008e 42F2EC33 		movw	r3, #9196
 1677 0092 3022     		movs	r2, #48
 1678 0094 4D21     		movs	r1, #77
 1679 0096 2046     		mov	r0, r4
 1680 0098 FFF7FEFF 		bl	u8g2_DrawGlyph
 1681              	.LVL138:
 346:Src/menu_handler.c **** 
 347:Src/menu_handler.c ****   sprintf((char*)buff, "%03d%%", menuValueSet);
 1682              		.loc 1 347 0
 1683 009c 1C4E     		ldr	r6, .L99+4
 1684 009e 3A88     		ldrh	r2, [r7]
 1685 00a0 2249     		ldr	r1, .L99+32
 1686 00a2 3046     		mov	r0, r6
 1687 00a4 FFF7FEFF 		bl	sprintf
 1688              	.LVL139:
 348:Src/menu_handler.c ****   u8g2_SetFont(&u8g2, u8g2_font_6x12_mf);
 1689              		.loc 1 348 0
 1690 00a8 2149     		ldr	r1, .L99+36
 1691 00aa 2046     		mov	r0, r4
 1692 00ac FFF7FEFF 		bl	u8g2_SetFont
 1693              	.LVL140:
 349:Src/menu_handler.c ****   u8g2_DrawStr(&u8g2, ((22 - strlen(buff))/2)*6, 48, buff);
 1694              		.loc 1 349 0
 1695 00b0 3046     		mov	r0, r6
 1696 00b2 FFF7FEFF 		bl	strlen
 1697              	.LVL141:
 1698 00b6 C0F11600 		rsb	r0, r0, #22
 1699 00ba 4008     		lsrs	r0, r0, #1
 1700 00bc 00EB4000 		add	r0, r0, r0, lsl #1
 1701 00c0 4100     		lsls	r1, r0, #1
 1702 00c2 3346     		mov	r3, r6
 1703 00c4 3022     		movs	r2, #48
 1704 00c6 01F0FE01 		and	r1, r1, #254
 1705 00ca 2046     		mov	r0, r4
 1706 00cc FFF7FEFF 		bl	u8g2_DrawStr
 1707              	.LVL142:
 350:Src/menu_handler.c **** 
 351:Src/menu_handler.c ****   if(key == BTN_MENU)
 1708              		.loc 1 351 0
 1709 00d0 042D     		cmp	r5, #4
 1710 00d2 0AD0     		beq	.L98
 1711              	.L95:
 352:Src/menu_handler.c ****   {
 353:Src/menu_handler.c ****     sys_cfg.brightness = (uint8_t)menuValueSet;
 354:Src/menu_handler.c ****     CFG_Save();
 355:Src/menu_handler.c ****     u8g2_SetFont(&u8g2, u8g2_font_6x12_mf);
 356:Src/menu_handler.c ****     u8g2_DrawStr(&u8g2, ((22 - strlen("Saved!"))/2)*6, 60, "Saved!");
 357:Src/menu_handler.c ****   }
 358:Src/menu_handler.c ****   return 0;
ARM GAS  /var/folders/rk/zpr83dd14lx588t7kb0yv2b40000gn/T//cc3igAjz.s 			page 39


 359:Src/menu_handler.c **** }
 1712              		.loc 1 359 0
 1713 00d4 0020     		movs	r0, #0
 1714 00d6 03B0     		add	sp, sp, #12
 1715              	.LCFI9:
 1716              		.cfi_remember_state
 1717              		.cfi_def_cfa_offset 20
 1718              		@ sp needed
 1719 00d8 F0BD     		pop	{r4, r5, r6, r7, pc}
 1720              	.L97:
 1721              	.LCFI10:
 1722              		.cfi_restore_state
 337:Src/menu_handler.c ****       menuValueSet--;
 1723              		.loc 1 337 0
 1724 00da 114B     		ldr	r3, .L99+20
 1725 00dc 1B88     		ldrh	r3, [r3]
 1726 00de 002B     		cmp	r3, #0
 1727 00e0 BDD0     		beq	.L94
 338:Src/menu_handler.c ****   Set_Backlight((uint8_t)menuValueSet);
 1728              		.loc 1 338 0
 1729 00e2 013B     		subs	r3, r3, #1
 1730 00e4 0E4A     		ldr	r2, .L99+20
 1731 00e6 1380     		strh	r3, [r2]	@ movhi
 1732 00e8 B9E7     		b	.L94
 1733              	.L98:
 353:Src/menu_handler.c ****     CFG_Save();
 1734              		.loc 1 353 0
 1735 00ea 3A78     		ldrb	r2, [r7]	@ zero_extendqisi2
 1736 00ec 0B4B     		ldr	r3, .L99+16
 1737 00ee 9A70     		strb	r2, [r3, #2]
 354:Src/menu_handler.c ****     u8g2_SetFont(&u8g2, u8g2_font_6x12_mf);
 1738              		.loc 1 354 0
 1739 00f0 FFF7FEFF 		bl	CFG_Save
 1740              	.LVL143:
 355:Src/menu_handler.c ****     u8g2_DrawStr(&u8g2, ((22 - strlen("Saved!"))/2)*6, 60, "Saved!");
 1741              		.loc 1 355 0
 1742 00f4 0E49     		ldr	r1, .L99+36
 1743 00f6 2046     		mov	r0, r4
 1744 00f8 FFF7FEFF 		bl	u8g2_SetFont
 1745              	.LVL144:
 356:Src/menu_handler.c ****   }
 1746              		.loc 1 356 0
 1747 00fc 0D4B     		ldr	r3, .L99+40
 1748 00fe 3C22     		movs	r2, #60
 1749 0100 3021     		movs	r1, #48
 1750 0102 2046     		mov	r0, r4
 1751 0104 FFF7FEFF 		bl	u8g2_DrawStr
 1752              	.LVL145:
 1753 0108 E4E7     		b	.L95
 1754              	.L100:
 1755 010a 00BF     		.align	2
 1756              	.L99:
 1757 010c 00000000 		.word	.LC22
 1758 0110 00000000 		.word	buff
 1759 0114 00000000 		.word	treeView
 1760 0118 00000000 		.word	menuIdxLast
 1761 011c 00000000 		.word	sys_cfg
ARM GAS  /var/folders/rk/zpr83dd14lx588t7kb0yv2b40000gn/T//cc3igAjz.s 			page 40


 1762 0120 00000000 		.word	menuValueSet
 1763 0124 00000000 		.word	u8g2
 1764 0128 00000000 		.word	u8g2_font_unifont_t_symbols
 1765 012c 18000000 		.word	.LC23
 1766 0130 00000000 		.word	u8g2_font_6x12_mf
 1767 0134 80000000 		.word	.LC12
 1768              		.cfi_endproc
 1769              	.LFE75:
 1771              		.section	.text.SetBackLightEvt,"ax",%progbits
 1772              		.align	1
 1773              		.global	SetBackLightEvt
 1774              		.syntax unified
 1775              		.thumb
 1776              		.thumb_func
 1777              		.fpu softvfp
 1779              	SetBackLightEvt:
 1780              	.LFB76:
 360:Src/menu_handler.c **** 
 361:Src/menu_handler.c **** uint16_t SetBackLightEvt(uint8_t add, uint16_t key)
 362:Src/menu_handler.c **** {
 1781              		.loc 1 362 0
 1782              		.cfi_startproc
 1783              		@ args = 0, pretend = 0, frame = 0
 1784              		@ frame_needed = 0, uses_anonymous_args = 0
 1785              	.LVL146:
 1786 0000 70B5     		push	{r4, r5, r6, lr}
 1787              	.LCFI11:
 1788              		.cfi_def_cfa_offset 16
 1789              		.cfi_offset 4, -16
 1790              		.cfi_offset 5, -12
 1791              		.cfi_offset 6, -8
 1792              		.cfi_offset 14, -4
 1793 0002 0446     		mov	r4, r0
 1794 0004 0D46     		mov	r5, r1
 363:Src/menu_handler.c ****   memset(buff, 0, sizeof(buff));
 1795              		.loc 1 363 0
 1796 0006 5A22     		movs	r2, #90
 1797 0008 0021     		movs	r1, #0
 1798              	.LVL147:
 1799 000a 4848     		ldr	r0, .L113
 1800              	.LVL148:
 1801 000c FFF7FEFF 		bl	memset
 1802              	.LVL149:
 364:Src/menu_handler.c ****   if(treeView[add].keyMode != menuIdxLast)
 1803              		.loc 1 364 0
 1804 0010 6420     		movs	r0, #100
 1805 0012 00FB04F0 		mul	r0, r0, r4
 1806 0016 464B     		ldr	r3, .L113+4
 1807 0018 1A5A     		ldrh	r2, [r3, r0]
 1808 001a 464B     		ldr	r3, .L113+8
 1809 001c 1B88     		ldrh	r3, [r3]
 1810 001e 9A42     		cmp	r2, r3
 1811 0020 03D0     		beq	.L102
 365:Src/menu_handler.c ****     menuValueSet = sys_cfg.backlight;
 1812              		.loc 1 365 0
 1813 0022 454B     		ldr	r3, .L113+12
 1814 0024 DA78     		ldrb	r2, [r3, #3]	@ zero_extendqisi2
ARM GAS  /var/folders/rk/zpr83dd14lx588t7kb0yv2b40000gn/T//cc3igAjz.s 			page 41


 1815 0026 454B     		ldr	r3, .L113+16
 1816 0028 1A80     		strh	r2, [r3]	@ movhi
 1817              	.L102:
 366:Src/menu_handler.c ****   if(key == BTN_UP)
 1818              		.loc 1 366 0
 1819 002a 2DB9     		cbnz	r5, .L103
 367:Src/menu_handler.c ****     if(menuValueSet < 1)
 1820              		.loc 1 367 0
 1821 002c 434B     		ldr	r3, .L113+16
 1822 002e 1B88     		ldrh	r3, [r3]
 1823 0030 13B9     		cbnz	r3, .L103
 368:Src/menu_handler.c ****       menuValueSet++;
 1824              		.loc 1 368 0
 1825 0032 0133     		adds	r3, r3, #1
 1826 0034 414A     		ldr	r2, .L113+16
 1827 0036 1380     		strh	r3, [r2]	@ movhi
 1828              	.L103:
 369:Src/menu_handler.c ****   if(key == BTN_DOWN)
 1829              		.loc 1 369 0
 1830 0038 012D     		cmp	r5, #1
 1831 003a 37D0     		beq	.L109
 1832              	.L104:
 370:Src/menu_handler.c ****     if(menuValueSet > 0)
 371:Src/menu_handler.c ****       menuValueSet--;
 372:Src/menu_handler.c **** 
 373:Src/menu_handler.c ****   u8g2_SetFont(&u8g2, u8g2_font_unifont_t_symbols);
 1833              		.loc 1 373 0
 1834 003c 404C     		ldr	r4, .L113+20
 1835 003e 4149     		ldr	r1, .L113+24
 1836 0040 2046     		mov	r0, r4
 1837 0042 FFF7FEFF 		bl	u8g2_SetFont
 1838              	.LVL150:
 374:Src/menu_handler.c ****   u8g2_DrawGlyph(&u8g2, 56, 24, 0x23f6);
 1839              		.loc 1 374 0
 1840 0046 42F2F633 		movw	r3, #9206
 1841 004a 1822     		movs	r2, #24
 1842 004c 3821     		movs	r1, #56
 1843 004e 2046     		mov	r0, r4
 1844 0050 FFF7FEFF 		bl	u8g2_DrawGlyph
 1845              	.LVL151:
 375:Src/menu_handler.c **** 
 376:Src/menu_handler.c ****   if(menuValueSet == 0)
 1846              		.loc 1 376 0
 1847 0054 394B     		ldr	r3, .L113+16
 1848 0056 1B88     		ldrh	r3, [r3]
 1849 0058 83B3     		cbz	r3, .L110
 1850              	.L105:
 377:Src/menu_handler.c ****   {
 378:Src/menu_handler.c ****     u8g2_SetFont(&u8g2, u8g2_font_unifont_t_symbols);
 379:Src/menu_handler.c ****     u8g2_DrawGlyph(&u8g2, 35, 36, 0x2610);
 380:Src/menu_handler.c ****     sprintf((char*)buff, "OFF");
 381:Src/menu_handler.c ****     BL_Off();
 382:Src/menu_handler.c ****   }
 383:Src/menu_handler.c ****   if(menuValueSet == 1)
 1851              		.loc 1 383 0
 1852 005a 384B     		ldr	r3, .L113+16
 1853 005c 1B88     		ldrh	r3, [r3]
ARM GAS  /var/folders/rk/zpr83dd14lx588t7kb0yv2b40000gn/T//cc3igAjz.s 			page 42


 1854 005e 012B     		cmp	r3, #1
 1855 0060 3ED0     		beq	.L111
 1856              	.L106:
 384:Src/menu_handler.c ****   {
 385:Src/menu_handler.c ****     u8g2_SetFont(&u8g2, u8g2_font_unifont_t_symbols);
 386:Src/menu_handler.c ****     u8g2_DrawGlyph(&u8g2, 35, 36, 0x2611);
 387:Src/menu_handler.c ****     sprintf((char*)buff, "ON");
 388:Src/menu_handler.c ****     BL_On();
 389:Src/menu_handler.c ****   }
 390:Src/menu_handler.c ****   u8g2_SetFont(&u8g2, u8g2_font_6x12_mf);
 1857              		.loc 1 390 0
 1858 0062 374C     		ldr	r4, .L113+20
 1859 0064 3849     		ldr	r1, .L113+28
 1860 0066 2046     		mov	r0, r4
 1861 0068 FFF7FEFF 		bl	u8g2_SetFont
 1862              	.LVL152:
 391:Src/menu_handler.c ****   u8g2_DrawStr(&u8g2, ((22 - strlen(buff))/2)*6, 36, buff);
 1863              		.loc 1 391 0
 1864 006c 2F4E     		ldr	r6, .L113
 1865 006e 3046     		mov	r0, r6
 1866 0070 FFF7FEFF 		bl	strlen
 1867              	.LVL153:
 1868 0074 C0F11600 		rsb	r0, r0, #22
 1869 0078 4008     		lsrs	r0, r0, #1
 1870 007a 00EB4000 		add	r0, r0, r0, lsl #1
 1871 007e 4100     		lsls	r1, r0, #1
 1872 0080 3346     		mov	r3, r6
 1873 0082 2422     		movs	r2, #36
 1874 0084 01F0FE01 		and	r1, r1, #254
 1875 0088 2046     		mov	r0, r4
 1876 008a FFF7FEFF 		bl	u8g2_DrawStr
 1877              	.LVL154:
 392:Src/menu_handler.c ****   u8g2_SetFont(&u8g2, u8g2_font_unifont_t_symbols);
 1878              		.loc 1 392 0
 1879 008e 2D49     		ldr	r1, .L113+24
 1880 0090 2046     		mov	r0, r4
 1881 0092 FFF7FEFF 		bl	u8g2_SetFont
 1882              	.LVL155:
 393:Src/menu_handler.c ****   u8g2_DrawGlyph(&u8g2, 56, 50, 0x23f7);
 1883              		.loc 1 393 0
 1884 0096 42F2F733 		movw	r3, #9207
 1885 009a 3222     		movs	r2, #50
 1886 009c 3821     		movs	r1, #56
 1887 009e 2046     		mov	r0, r4
 1888 00a0 FFF7FEFF 		bl	u8g2_DrawGlyph
 1889              	.LVL156:
 394:Src/menu_handler.c ****   if(key == BTN_MENU)
 1890              		.loc 1 394 0
 1891 00a4 042D     		cmp	r5, #4
 1892 00a6 30D0     		beq	.L112
 1893              	.L107:
 395:Src/menu_handler.c ****   {
 396:Src/menu_handler.c ****     sys_cfg.backlight = (uint8_t)menuValueSet;
 397:Src/menu_handler.c ****     CFG_Save();
 398:Src/menu_handler.c ****     u8g2_SetFont(&u8g2, u8g2_font_6x12_mf);
 399:Src/menu_handler.c ****     u8g2_DrawStr(&u8g2, ((22 - strlen("Saved!"))/2)*6, 60, "Saved!");
 400:Src/menu_handler.c ****   }
ARM GAS  /var/folders/rk/zpr83dd14lx588t7kb0yv2b40000gn/T//cc3igAjz.s 			page 43


 401:Src/menu_handler.c ****   return 0;
 402:Src/menu_handler.c **** }
 1894              		.loc 1 402 0
 1895 00a8 0020     		movs	r0, #0
 1896 00aa 70BD     		pop	{r4, r5, r6, pc}
 1897              	.L109:
 370:Src/menu_handler.c ****       menuValueSet--;
 1898              		.loc 1 370 0
 1899 00ac 234B     		ldr	r3, .L113+16
 1900 00ae 1B88     		ldrh	r3, [r3]
 1901 00b0 002B     		cmp	r3, #0
 1902 00b2 C3D0     		beq	.L104
 371:Src/menu_handler.c **** 
 1903              		.loc 1 371 0
 1904 00b4 013B     		subs	r3, r3, #1
 1905 00b6 214A     		ldr	r2, .L113+16
 1906 00b8 1380     		strh	r3, [r2]	@ movhi
 1907 00ba BFE7     		b	.L104
 1908              	.L110:
 378:Src/menu_handler.c ****     u8g2_DrawGlyph(&u8g2, 35, 36, 0x2610);
 1909              		.loc 1 378 0
 1910 00bc 2149     		ldr	r1, .L113+24
 1911 00be 2046     		mov	r0, r4
 1912 00c0 FFF7FEFF 		bl	u8g2_SetFont
 1913              	.LVL157:
 379:Src/menu_handler.c ****     sprintf((char*)buff, "OFF");
 1914              		.loc 1 379 0
 1915 00c4 42F21063 		movw	r3, #9744
 1916 00c8 2422     		movs	r2, #36
 1917 00ca 2321     		movs	r1, #35
 1918 00cc 2046     		mov	r0, r4
 1919 00ce FFF7FEFF 		bl	u8g2_DrawGlyph
 1920              	.LVL158:
 380:Src/menu_handler.c ****     BL_Off();
 1921              		.loc 1 380 0
 1922 00d2 1E4B     		ldr	r3, .L113+32
 1923 00d4 1868     		ldr	r0, [r3]
 1924 00d6 154B     		ldr	r3, .L113
 1925 00d8 1860     		str	r0, [r3]	@ unaligned
 381:Src/menu_handler.c ****   }
 1926              		.loc 1 381 0
 1927 00da FFF7FEFF 		bl	BL_Off
 1928              	.LVL159:
 1929 00de BCE7     		b	.L105
 1930              	.L111:
 385:Src/menu_handler.c ****     u8g2_DrawGlyph(&u8g2, 35, 36, 0x2611);
 1931              		.loc 1 385 0
 1932 00e0 174C     		ldr	r4, .L113+20
 1933 00e2 1849     		ldr	r1, .L113+24
 1934 00e4 2046     		mov	r0, r4
 1935 00e6 FFF7FEFF 		bl	u8g2_SetFont
 1936              	.LVL160:
 386:Src/menu_handler.c ****     sprintf((char*)buff, "ON");
 1937              		.loc 1 386 0
 1938 00ea 42F21163 		movw	r3, #9745
 1939 00ee 2422     		movs	r2, #36
 1940 00f0 2321     		movs	r1, #35
ARM GAS  /var/folders/rk/zpr83dd14lx588t7kb0yv2b40000gn/T//cc3igAjz.s 			page 44


 1941 00f2 2046     		mov	r0, r4
 1942 00f4 FFF7FEFF 		bl	u8g2_DrawGlyph
 1943              	.LVL161:
 387:Src/menu_handler.c ****     BL_On();
 1944              		.loc 1 387 0
 1945 00f8 0C4B     		ldr	r3, .L113
 1946 00fa 154A     		ldr	r2, .L113+36
 1947 00fc 1188     		ldrh	r1, [r2]	@ unaligned
 1948 00fe 9278     		ldrb	r2, [r2, #2]	@ zero_extendqisi2
 1949 0100 1980     		strh	r1, [r3]	@ unaligned
 1950 0102 9A70     		strb	r2, [r3, #2]
 388:Src/menu_handler.c ****   }
 1951              		.loc 1 388 0
 1952 0104 FFF7FEFF 		bl	BL_On
 1953              	.LVL162:
 1954 0108 ABE7     		b	.L106
 1955              	.L112:
 396:Src/menu_handler.c ****     CFG_Save();
 1956              		.loc 1 396 0
 1957 010a 0C4B     		ldr	r3, .L113+16
 1958 010c 1A78     		ldrb	r2, [r3]	@ zero_extendqisi2
 1959 010e 0A4B     		ldr	r3, .L113+12
 1960 0110 DA70     		strb	r2, [r3, #3]
 397:Src/menu_handler.c ****     u8g2_SetFont(&u8g2, u8g2_font_6x12_mf);
 1961              		.loc 1 397 0
 1962 0112 FFF7FEFF 		bl	CFG_Save
 1963              	.LVL163:
 398:Src/menu_handler.c ****     u8g2_DrawStr(&u8g2, ((22 - strlen("Saved!"))/2)*6, 60, "Saved!");
 1964              		.loc 1 398 0
 1965 0116 0C49     		ldr	r1, .L113+28
 1966 0118 2046     		mov	r0, r4
 1967 011a FFF7FEFF 		bl	u8g2_SetFont
 1968              	.LVL164:
 399:Src/menu_handler.c ****   }
 1969              		.loc 1 399 0
 1970 011e 0D4B     		ldr	r3, .L113+40
 1971 0120 3C22     		movs	r2, #60
 1972 0122 3021     		movs	r1, #48
 1973 0124 2046     		mov	r0, r4
 1974 0126 FFF7FEFF 		bl	u8g2_DrawStr
 1975              	.LVL165:
 1976 012a BDE7     		b	.L107
 1977              	.L114:
 1978              		.align	2
 1979              	.L113:
 1980 012c 00000000 		.word	buff
 1981 0130 00000000 		.word	treeView
 1982 0134 00000000 		.word	menuIdxLast
 1983 0138 00000000 		.word	sys_cfg
 1984 013c 00000000 		.word	menuValueSet
 1985 0140 00000000 		.word	u8g2
 1986 0144 00000000 		.word	u8g2_font_unifont_t_symbols
 1987 0148 00000000 		.word	u8g2_font_6x12_mf
 1988 014c 00000000 		.word	.LC13
 1989 0150 00000000 		.word	.LC24
 1990 0154 80000000 		.word	.LC12
 1991              		.cfi_endproc
ARM GAS  /var/folders/rk/zpr83dd14lx588t7kb0yv2b40000gn/T//cc3igAjz.s 			page 45


 1992              	.LFE76:
 1994              		.section	.text.ViewUVTimeEvt,"ax",%progbits
 1995              		.align	1
 1996              		.global	ViewUVTimeEvt
 1997              		.syntax unified
 1998              		.thumb
 1999              		.thumb_func
 2000              		.fpu softvfp
 2002              	ViewUVTimeEvt:
 2003              	.LFB77:
 403:Src/menu_handler.c **** 
 404:Src/menu_handler.c **** uint16_t ViewUVTimeEvt(uint8_t add, uint16_t key)
 405:Src/menu_handler.c **** {
 2004              		.loc 1 405 0
 2005              		.cfi_startproc
 2006              		@ args = 0, pretend = 0, frame = 0
 2007              		@ frame_needed = 0, uses_anonymous_args = 0
 2008              	.LVL166:
 2009 0000 38B5     		push	{r3, r4, r5, lr}
 2010              	.LCFI12:
 2011              		.cfi_def_cfa_offset 16
 2012              		.cfi_offset 3, -16
 2013              		.cfi_offset 4, -12
 2014              		.cfi_offset 5, -8
 2015              		.cfi_offset 14, -4
 2016 0002 0446     		mov	r4, r0
 406:Src/menu_handler.c ****   memset(buff, 0, sizeof(buff));
 2017              		.loc 1 406 0
 2018 0004 5A22     		movs	r2, #90
 2019 0006 0021     		movs	r1, #0
 2020              	.LVL167:
 2021 0008 2648     		ldr	r0, .L119
 2022              	.LVL168:
 2023 000a FFF7FEFF 		bl	memset
 2024              	.LVL169:
 407:Src/menu_handler.c ****   if(treeView[add].keyMode != menuIdxLast)
 2025              		.loc 1 407 0
 2026 000e 6420     		movs	r0, #100
 2027 0010 00FB04F0 		mul	r0, r0, r4
 2028 0014 244B     		ldr	r3, .L119+4
 2029 0016 1A5A     		ldrh	r2, [r3, r0]
 2030 0018 244B     		ldr	r3, .L119+8
 2031 001a 1B88     		ldrh	r3, [r3]
 2032 001c 9A42     		cmp	r2, r3
 2033 001e 02D0     		beq	.L116
 408:Src/menu_handler.c ****     menuValueSet = 0;
 2034              		.loc 1 408 0
 2035 0020 234B     		ldr	r3, .L119+12
 2036 0022 0022     		movs	r2, #0
 2037 0024 1A80     		strh	r2, [r3]	@ movhi
 2038              	.L116:
 409:Src/menu_handler.c ****   // if(key == BTN_UP)
 410:Src/menu_handler.c ****   //   if(menuValueSet < 50)
 411:Src/menu_handler.c ****   //     menuValueSet++;
 412:Src/menu_handler.c ****   // if(key == BTN_DOWN)
 413:Src/menu_handler.c ****   //   if(menuValueSet > 1)
 414:Src/menu_handler.c ****   //     menuValueSet--;
ARM GAS  /var/folders/rk/zpr83dd14lx588t7kb0yv2b40000gn/T//cc3igAjz.s 			page 46


 415:Src/menu_handler.c ****   if(sys.UVTime/HOUR > 9999) sys.UVTime = sys.UVTime * HOUR;
 2039              		.loc 1 415 0
 2040 0026 234B     		ldr	r3, .L119+16
 2041 0028 5B68     		ldr	r3, [r3, #4]
 2042 002a 234A     		ldr	r2, .L119+20
 2043 002c 9342     		cmp	r3, r2
 2044 002e 05D9     		bls	.L117
 2045              		.loc 1 415 0 is_stmt 0 discriminator 1
 2046 0030 4FF46162 		mov	r2, #3600
 2047 0034 02FB03F3 		mul	r3, r2, r3
 2048 0038 1E4A     		ldr	r2, .L119+16
 2049 003a 5360     		str	r3, [r2, #4]
 2050              	.L117:
 416:Src/menu_handler.c ****   u8g2_SetFont(&u8g2, u8g2_font_unifont_t_symbols);
 2051              		.loc 1 416 0 is_stmt 1
 2052 003c 1F4C     		ldr	r4, .L119+24
 2053 003e 2049     		ldr	r1, .L119+28
 2054 0040 2046     		mov	r0, r4
 2055 0042 FFF7FEFF 		bl	u8g2_SetFont
 2056              	.LVL170:
 417:Src/menu_handler.c ****   u8g2_DrawGlyph(&u8g2, 55, 54, 0x23f0);
 2057              		.loc 1 417 0
 2058 0046 42F2F033 		movw	r3, #9200
 2059 004a 3622     		movs	r2, #54
 2060 004c 3721     		movs	r1, #55
 2061 004e 2046     		mov	r0, r4
 2062 0050 FFF7FEFF 		bl	u8g2_DrawGlyph
 2063              	.LVL171:
 418:Src/menu_handler.c ****   sprintf((char*)buff, "%04d Hours", sys.UVTime/HOUR);
 2064              		.loc 1 418 0
 2065 0054 174B     		ldr	r3, .L119+16
 2066 0056 5A68     		ldr	r2, [r3, #4]
 2067 0058 1A4B     		ldr	r3, .L119+32
 2068 005a A3FB0232 		umull	r3, r2, r3, r2
 2069 005e 114D     		ldr	r5, .L119
 2070 0060 D20A     		lsrs	r2, r2, #11
 2071 0062 1949     		ldr	r1, .L119+36
 2072 0064 2846     		mov	r0, r5
 2073 0066 FFF7FEFF 		bl	sprintf
 2074              	.LVL172:
 419:Src/menu_handler.c ****   u8g2_SetFont(&u8g2, u8g2_font_6x12_mf);
 2075              		.loc 1 419 0
 2076 006a 1849     		ldr	r1, .L119+40
 2077 006c 2046     		mov	r0, r4
 2078 006e FFF7FEFF 		bl	u8g2_SetFont
 2079              	.LVL173:
 420:Src/menu_handler.c ****   u8g2_DrawStr(&u8g2, ((22 - strlen("UV Time Worked!"))/2)*6, 24, "UV Time Worked!");
 2080              		.loc 1 420 0
 2081 0072 174B     		ldr	r3, .L119+44
 2082 0074 1822     		movs	r2, #24
 2083 0076 1221     		movs	r1, #18
 2084 0078 2046     		mov	r0, r4
 2085 007a FFF7FEFF 		bl	u8g2_DrawStr
 2086              	.LVL174:
 421:Src/menu_handler.c ****   u8g2_DrawStr(&u8g2, ((22 - strlen(buff))/2)*6, 36, buff);
 2087              		.loc 1 421 0
 2088 007e 2846     		mov	r0, r5
ARM GAS  /var/folders/rk/zpr83dd14lx588t7kb0yv2b40000gn/T//cc3igAjz.s 			page 47


 2089 0080 FFF7FEFF 		bl	strlen
 2090              	.LVL175:
 2091 0084 C0F11600 		rsb	r0, r0, #22
 2092 0088 4008     		lsrs	r0, r0, #1
 2093 008a 00EB4000 		add	r0, r0, r0, lsl #1
 2094 008e 4100     		lsls	r1, r0, #1
 2095 0090 2B46     		mov	r3, r5
 2096 0092 2422     		movs	r2, #36
 2097 0094 01F0FE01 		and	r1, r1, #254
 2098 0098 2046     		mov	r0, r4
 2099 009a FFF7FEFF 		bl	u8g2_DrawStr
 2100              	.LVL176:
 422:Src/menu_handler.c ****  
 423:Src/menu_handler.c ****   // if(key == BTN_MENU)
 424:Src/menu_handler.c ****   // {
 425:Src/menu_handler.c ****       // CFG_Save();
 426:Src/menu_handler.c ****       // u8g2_SetFont(&u8g2, u8g2_font_6x12_mf);
 427:Src/menu_handler.c ****       // u8g2_DrawStr(&u8g2, ((22 - strlen("Saved!"))/2)*6, 60, "Saved!");
 428:Src/menu_handler.c ****   // }
 429:Src/menu_handler.c ****   return 0;
 430:Src/menu_handler.c **** }
 2101              		.loc 1 430 0
 2102 009e 0020     		movs	r0, #0
 2103 00a0 38BD     		pop	{r3, r4, r5, pc}
 2104              	.L120:
 2105 00a2 00BF     		.align	2
 2106              	.L119:
 2107 00a4 00000000 		.word	buff
 2108 00a8 00000000 		.word	treeView
 2109 00ac 00000000 		.word	menuIdxLast
 2110 00b0 00000000 		.word	menuValueSet
 2111 00b4 00000000 		.word	sys
 2112 00b8 FF502502 		.word	35999999
 2113 00bc 00000000 		.word	u8g2
 2114 00c0 00000000 		.word	u8g2_font_unifont_t_symbols
 2115 00c4 C5B3A291 		.word	-1851608123
 2116 00c8 00000000 		.word	.LC25
 2117 00cc 00000000 		.word	u8g2_font_6x12_mf
 2118 00d0 0C000000 		.word	.LC26
 2119              		.cfi_endproc
 2120              	.LFE77:
 2122              		.section	.text.ViewFilterTimeEvt,"ax",%progbits
 2123              		.align	1
 2124              		.global	ViewFilterTimeEvt
 2125              		.syntax unified
 2126              		.thumb
 2127              		.thumb_func
 2128              		.fpu softvfp
 2130              	ViewFilterTimeEvt:
 2131              	.LFB78:
 431:Src/menu_handler.c **** 
 432:Src/menu_handler.c **** uint16_t ViewFilterTimeEvt(uint8_t add, uint16_t key)
 433:Src/menu_handler.c **** {
 2132              		.loc 1 433 0
 2133              		.cfi_startproc
 2134              		@ args = 0, pretend = 0, frame = 0
 2135              		@ frame_needed = 0, uses_anonymous_args = 0
ARM GAS  /var/folders/rk/zpr83dd14lx588t7kb0yv2b40000gn/T//cc3igAjz.s 			page 48


 2136              	.LVL177:
 2137 0000 38B5     		push	{r3, r4, r5, lr}
 2138              	.LCFI13:
 2139              		.cfi_def_cfa_offset 16
 2140              		.cfi_offset 3, -16
 2141              		.cfi_offset 4, -12
 2142              		.cfi_offset 5, -8
 2143              		.cfi_offset 14, -4
 2144 0002 0446     		mov	r4, r0
 434:Src/menu_handler.c ****   memset(buff, 0, sizeof(buff));
 2145              		.loc 1 434 0
 2146 0004 5A22     		movs	r2, #90
 2147 0006 0021     		movs	r1, #0
 2148              	.LVL178:
 2149 0008 2648     		ldr	r0, .L125
 2150              	.LVL179:
 2151 000a FFF7FEFF 		bl	memset
 2152              	.LVL180:
 435:Src/menu_handler.c ****   if(treeView[add].keyMode != menuIdxLast)
 2153              		.loc 1 435 0
 2154 000e 6420     		movs	r0, #100
 2155 0010 00FB04F0 		mul	r0, r0, r4
 2156 0014 244B     		ldr	r3, .L125+4
 2157 0016 1A5A     		ldrh	r2, [r3, r0]
 2158 0018 244B     		ldr	r3, .L125+8
 2159 001a 1B88     		ldrh	r3, [r3]
 2160 001c 9A42     		cmp	r2, r3
 2161 001e 02D0     		beq	.L122
 436:Src/menu_handler.c ****     menuValueSet = 0;
 2162              		.loc 1 436 0
 2163 0020 234B     		ldr	r3, .L125+12
 2164 0022 0022     		movs	r2, #0
 2165 0024 1A80     		strh	r2, [r3]	@ movhi
 2166              	.L122:
 437:Src/menu_handler.c ****   // if(key == BTN_UP)
 438:Src/menu_handler.c ****   //   if(menuValueSet < 50)
 439:Src/menu_handler.c ****   //     menuValueSet++;
 440:Src/menu_handler.c ****   // if(key == BTN_DOWN)
 441:Src/menu_handler.c ****   //   if(menuValueSet > 1)
 442:Src/menu_handler.c ****   //     menuValueSet--;
 443:Src/menu_handler.c ****   if(sys.FilterTime/HOUR > 9999) sys.FilterTime = sys.FilterTime * HOUR;
 2167              		.loc 1 443 0
 2168 0026 234B     		ldr	r3, .L125+16
 2169 0028 9B68     		ldr	r3, [r3, #8]
 2170 002a 234A     		ldr	r2, .L125+20
 2171 002c 9342     		cmp	r3, r2
 2172 002e 05D9     		bls	.L123
 2173              		.loc 1 443 0 is_stmt 0 discriminator 1
 2174 0030 4FF46162 		mov	r2, #3600
 2175 0034 02FB03F3 		mul	r3, r2, r3
 2176 0038 1E4A     		ldr	r2, .L125+16
 2177 003a 9360     		str	r3, [r2, #8]
 2178              	.L123:
 444:Src/menu_handler.c ****   u8g2_SetFont(&u8g2, u8g2_font_unifont_t_symbols);
 2179              		.loc 1 444 0 is_stmt 1
 2180 003c 1F4C     		ldr	r4, .L125+24
 2181 003e 2049     		ldr	r1, .L125+28
ARM GAS  /var/folders/rk/zpr83dd14lx588t7kb0yv2b40000gn/T//cc3igAjz.s 			page 49


 2182 0040 2046     		mov	r0, r4
 2183 0042 FFF7FEFF 		bl	u8g2_SetFont
 2184              	.LVL181:
 445:Src/menu_handler.c ****   u8g2_DrawGlyph(&u8g2, 55, 54, 0x23f0);
 2185              		.loc 1 445 0
 2186 0046 42F2F033 		movw	r3, #9200
 2187 004a 3622     		movs	r2, #54
 2188 004c 3721     		movs	r1, #55
 2189 004e 2046     		mov	r0, r4
 2190 0050 FFF7FEFF 		bl	u8g2_DrawGlyph
 2191              	.LVL182:
 446:Src/menu_handler.c ****   sprintf((char*)buff, "%04d Hours", sys.FilterTime/HOUR);
 2192              		.loc 1 446 0
 2193 0054 174B     		ldr	r3, .L125+16
 2194 0056 9A68     		ldr	r2, [r3, #8]
 2195 0058 1A4B     		ldr	r3, .L125+32
 2196 005a A3FB0232 		umull	r3, r2, r3, r2
 2197 005e 114D     		ldr	r5, .L125
 2198 0060 D20A     		lsrs	r2, r2, #11
 2199 0062 1949     		ldr	r1, .L125+36
 2200 0064 2846     		mov	r0, r5
 2201 0066 FFF7FEFF 		bl	sprintf
 2202              	.LVL183:
 447:Src/menu_handler.c ****   u8g2_SetFont(&u8g2, u8g2_font_6x12_mf);
 2203              		.loc 1 447 0
 2204 006a 1849     		ldr	r1, .L125+40
 2205 006c 2046     		mov	r0, r4
 2206 006e FFF7FEFF 		bl	u8g2_SetFont
 2207              	.LVL184:
 448:Src/menu_handler.c ****   u8g2_DrawStr(&u8g2, ((22 - strlen("Filter Time Worked!"))/2)*6, 24, "Filter Time Worked!");
 2208              		.loc 1 448 0
 2209 0072 174B     		ldr	r3, .L125+44
 2210 0074 1822     		movs	r2, #24
 2211 0076 0621     		movs	r1, #6
 2212 0078 2046     		mov	r0, r4
 2213 007a FFF7FEFF 		bl	u8g2_DrawStr
 2214              	.LVL185:
 449:Src/menu_handler.c ****   u8g2_DrawStr(&u8g2, ((22 - strlen(buff))/2)*6, 36, buff);
 2215              		.loc 1 449 0
 2216 007e 2846     		mov	r0, r5
 2217 0080 FFF7FEFF 		bl	strlen
 2218              	.LVL186:
 2219 0084 C0F11600 		rsb	r0, r0, #22
 2220 0088 4008     		lsrs	r0, r0, #1
 2221 008a 00EB4000 		add	r0, r0, r0, lsl #1
 2222 008e 4100     		lsls	r1, r0, #1
 2223 0090 2B46     		mov	r3, r5
 2224 0092 2422     		movs	r2, #36
 2225 0094 01F0FE01 		and	r1, r1, #254
 2226 0098 2046     		mov	r0, r4
 2227 009a FFF7FEFF 		bl	u8g2_DrawStr
 2228              	.LVL187:
 450:Src/menu_handler.c ****  
 451:Src/menu_handler.c ****   // if(key == BTN_MENU)
 452:Src/menu_handler.c ****   // {
 453:Src/menu_handler.c ****       // CFG_Save();
 454:Src/menu_handler.c ****       // u8g2_SetFont(&u8g2, u8g2_font_6x12_mf);
ARM GAS  /var/folders/rk/zpr83dd14lx588t7kb0yv2b40000gn/T//cc3igAjz.s 			page 50


 455:Src/menu_handler.c ****       // u8g2_DrawStr(&u8g2, ((22 - strlen("Saved!"))/2)*6, 60, "Saved!");
 456:Src/menu_handler.c ****   // }
 457:Src/menu_handler.c ****   return 0;
 458:Src/menu_handler.c **** }
 2229              		.loc 1 458 0
 2230 009e 0020     		movs	r0, #0
 2231 00a0 38BD     		pop	{r3, r4, r5, pc}
 2232              	.L126:
 2233 00a2 00BF     		.align	2
 2234              	.L125:
 2235 00a4 00000000 		.word	buff
 2236 00a8 00000000 		.word	treeView
 2237 00ac 00000000 		.word	menuIdxLast
 2238 00b0 00000000 		.word	menuValueSet
 2239 00b4 00000000 		.word	sys
 2240 00b8 FF502502 		.word	35999999
 2241 00bc 00000000 		.word	u8g2
 2242 00c0 00000000 		.word	u8g2_font_unifont_t_symbols
 2243 00c4 C5B3A291 		.word	-1851608123
 2244 00c8 00000000 		.word	.LC25
 2245 00cc 00000000 		.word	u8g2_font_6x12_mf
 2246 00d0 00000000 		.word	.LC27
 2247              		.cfi_endproc
 2248              	.LFE78:
 2250              		.section	.text.ViewSystemTimeEvt,"ax",%progbits
 2251              		.align	1
 2252              		.global	ViewSystemTimeEvt
 2253              		.syntax unified
 2254              		.thumb
 2255              		.thumb_func
 2256              		.fpu softvfp
 2258              	ViewSystemTimeEvt:
 2259              	.LFB79:
 459:Src/menu_handler.c **** 
 460:Src/menu_handler.c **** uint16_t ViewSystemTimeEvt(uint8_t add, uint16_t key)
 461:Src/menu_handler.c **** {
 2260              		.loc 1 461 0
 2261              		.cfi_startproc
 2262              		@ args = 0, pretend = 0, frame = 0
 2263              		@ frame_needed = 0, uses_anonymous_args = 0
 2264              	.LVL188:
 2265 0000 38B5     		push	{r3, r4, r5, lr}
 2266              	.LCFI14:
 2267              		.cfi_def_cfa_offset 16
 2268              		.cfi_offset 3, -16
 2269              		.cfi_offset 4, -12
 2270              		.cfi_offset 5, -8
 2271              		.cfi_offset 14, -4
 2272 0002 0446     		mov	r4, r0
 462:Src/menu_handler.c ****   memset(buff, 0, sizeof(buff));
 2273              		.loc 1 462 0
 2274 0004 5A22     		movs	r2, #90
 2275 0006 0021     		movs	r1, #0
 2276              	.LVL189:
 2277 0008 2648     		ldr	r0, .L131
 2278              	.LVL190:
 2279 000a FFF7FEFF 		bl	memset
ARM GAS  /var/folders/rk/zpr83dd14lx588t7kb0yv2b40000gn/T//cc3igAjz.s 			page 51


 2280              	.LVL191:
 463:Src/menu_handler.c ****   if(treeView[add].keyMode != menuIdxLast)
 2281              		.loc 1 463 0
 2282 000e 6420     		movs	r0, #100
 2283 0010 00FB04F0 		mul	r0, r0, r4
 2284 0014 244B     		ldr	r3, .L131+4
 2285 0016 1A5A     		ldrh	r2, [r3, r0]
 2286 0018 244B     		ldr	r3, .L131+8
 2287 001a 1B88     		ldrh	r3, [r3]
 2288 001c 9A42     		cmp	r2, r3
 2289 001e 02D0     		beq	.L128
 464:Src/menu_handler.c ****     menuValueSet = 0;
 2290              		.loc 1 464 0
 2291 0020 234B     		ldr	r3, .L131+12
 2292 0022 0022     		movs	r2, #0
 2293 0024 1A80     		strh	r2, [r3]	@ movhi
 2294              	.L128:
 465:Src/menu_handler.c ****   // if(key == BTN_UP)
 466:Src/menu_handler.c ****   //   if(menuValueSet < 50)
 467:Src/menu_handler.c ****   //     menuValueSet++;
 468:Src/menu_handler.c ****   // if(key == BTN_DOWN)
 469:Src/menu_handler.c ****   //   if(menuValueSet > 1)
 470:Src/menu_handler.c ****   //     menuValueSet--;
 471:Src/menu_handler.c ****   if(sys.SysTime/HOUR > 99999) sys.SysTime = sys.SysTime * HOUR;
 2295              		.loc 1 471 0
 2296 0026 234B     		ldr	r3, .L131+16
 2297 0028 DB68     		ldr	r3, [r3, #12]
 2298 002a 234A     		ldr	r2, .L131+20
 2299 002c 9342     		cmp	r3, r2
 2300 002e 05D9     		bls	.L129
 2301              		.loc 1 471 0 is_stmt 0 discriminator 1
 2302 0030 4FF46162 		mov	r2, #3600
 2303 0034 02FB03F3 		mul	r3, r2, r3
 2304 0038 1E4A     		ldr	r2, .L131+16
 2305 003a D360     		str	r3, [r2, #12]
 2306              	.L129:
 472:Src/menu_handler.c ****   u8g2_SetFont(&u8g2, u8g2_font_unifont_t_symbols);
 2307              		.loc 1 472 0 is_stmt 1
 2308 003c 1F4C     		ldr	r4, .L131+24
 2309 003e 2049     		ldr	r1, .L131+28
 2310 0040 2046     		mov	r0, r4
 2311 0042 FFF7FEFF 		bl	u8g2_SetFont
 2312              	.LVL192:
 473:Src/menu_handler.c ****   u8g2_DrawGlyph(&u8g2, 55, 54, 0x23f0);
 2313              		.loc 1 473 0
 2314 0046 42F2F033 		movw	r3, #9200
 2315 004a 3622     		movs	r2, #54
 2316 004c 3721     		movs	r1, #55
 2317 004e 2046     		mov	r0, r4
 2318 0050 FFF7FEFF 		bl	u8g2_DrawGlyph
 2319              	.LVL193:
 474:Src/menu_handler.c ****   sprintf((char*)buff, "%05d Hours", sys.SysTime/HOUR);
 2320              		.loc 1 474 0
 2321 0054 174B     		ldr	r3, .L131+16
 2322 0056 DA68     		ldr	r2, [r3, #12]
 2323 0058 1A4B     		ldr	r3, .L131+32
 2324 005a A3FB0232 		umull	r3, r2, r3, r2
ARM GAS  /var/folders/rk/zpr83dd14lx588t7kb0yv2b40000gn/T//cc3igAjz.s 			page 52


 2325 005e 114D     		ldr	r5, .L131
 2326 0060 D20A     		lsrs	r2, r2, #11
 2327 0062 1949     		ldr	r1, .L131+36
 2328 0064 2846     		mov	r0, r5
 2329 0066 FFF7FEFF 		bl	sprintf
 2330              	.LVL194:
 475:Src/menu_handler.c ****   u8g2_SetFont(&u8g2, u8g2_font_6x12_mf);
 2331              		.loc 1 475 0
 2332 006a 1849     		ldr	r1, .L131+40
 2333 006c 2046     		mov	r0, r4
 2334 006e FFF7FEFF 		bl	u8g2_SetFont
 2335              	.LVL195:
 476:Src/menu_handler.c ****   u8g2_DrawStr(&u8g2, ((22 - strlen("Systems Time Worked!"))/2)*6, 24, "Systems Time Worked!");
 2336              		.loc 1 476 0
 2337 0072 174B     		ldr	r3, .L131+44
 2338 0074 1822     		movs	r2, #24
 2339 0076 0621     		movs	r1, #6
 2340 0078 2046     		mov	r0, r4
 2341 007a FFF7FEFF 		bl	u8g2_DrawStr
 2342              	.LVL196:
 477:Src/menu_handler.c ****   u8g2_DrawStr(&u8g2, ((22 - strlen(buff))/2)*6, 36, buff);
 2343              		.loc 1 477 0
 2344 007e 2846     		mov	r0, r5
 2345 0080 FFF7FEFF 		bl	strlen
 2346              	.LVL197:
 2347 0084 C0F11600 		rsb	r0, r0, #22
 2348 0088 4008     		lsrs	r0, r0, #1
 2349 008a 00EB4000 		add	r0, r0, r0, lsl #1
 2350 008e 4100     		lsls	r1, r0, #1
 2351 0090 2B46     		mov	r3, r5
 2352 0092 2422     		movs	r2, #36
 2353 0094 01F0FE01 		and	r1, r1, #254
 2354 0098 2046     		mov	r0, r4
 2355 009a FFF7FEFF 		bl	u8g2_DrawStr
 2356              	.LVL198:
 478:Src/menu_handler.c ****  
 479:Src/menu_handler.c ****   // if(key == BTN_MENU)
 480:Src/menu_handler.c ****   // {
 481:Src/menu_handler.c ****       // CFG_Save();
 482:Src/menu_handler.c ****       // u8g2_SetFont(&u8g2, u8g2_font_6x12_mf);
 483:Src/menu_handler.c ****       // u8g2_DrawStr(&u8g2, ((22 - strlen("Saved!"))/2)*6, 60, "Saved!");
 484:Src/menu_handler.c ****   // }
 485:Src/menu_handler.c ****   return 0;
 486:Src/menu_handler.c **** }
 2357              		.loc 1 486 0
 2358 009e 0020     		movs	r0, #0
 2359 00a0 38BD     		pop	{r3, r4, r5, pc}
 2360              	.L132:
 2361 00a2 00BF     		.align	2
 2362              	.L131:
 2363 00a4 00000000 		.word	buff
 2364 00a8 00000000 		.word	treeView
 2365 00ac 00000000 		.word	menuIdxLast
 2366 00b0 00000000 		.word	menuValueSet
 2367 00b4 00000000 		.word	sys
 2368 00b8 FF297515 		.word	359999999
 2369 00bc 00000000 		.word	u8g2
ARM GAS  /var/folders/rk/zpr83dd14lx588t7kb0yv2b40000gn/T//cc3igAjz.s 			page 53


 2370 00c0 00000000 		.word	u8g2_font_unifont_t_symbols
 2371 00c4 C5B3A291 		.word	-1851608123
 2372 00c8 00000000 		.word	.LC28
 2373 00cc 00000000 		.word	u8g2_font_6x12_mf
 2374 00d0 0C000000 		.word	.LC29
 2375              		.cfi_endproc
 2376              	.LFE79:
 2378              		.section	.text.ResetUVTimeEvt,"ax",%progbits
 2379              		.align	1
 2380              		.global	ResetUVTimeEvt
 2381              		.syntax unified
 2382              		.thumb
 2383              		.thumb_func
 2384              		.fpu softvfp
 2386              	ResetUVTimeEvt:
 2387              	.LFB80:
 487:Src/menu_handler.c **** 
 488:Src/menu_handler.c **** uint8_t nghin, tram, chuc, dv;
 489:Src/menu_handler.c **** 
 490:Src/menu_handler.c **** uint16_t ResetUVTimeEvt(uint8_t add, uint16_t key)
 491:Src/menu_handler.c **** {
 2388              		.loc 1 491 0
 2389              		.cfi_startproc
 2390              		@ args = 0, pretend = 0, frame = 0
 2391              		@ frame_needed = 0, uses_anonymous_args = 0
 2392              	.LVL199:
 2393 0000 F0B5     		push	{r4, r5, r6, r7, lr}
 2394              	.LCFI15:
 2395              		.cfi_def_cfa_offset 20
 2396              		.cfi_offset 4, -20
 2397              		.cfi_offset 5, -16
 2398              		.cfi_offset 6, -12
 2399              		.cfi_offset 7, -8
 2400              		.cfi_offset 14, -4
 2401 0002 83B0     		sub	sp, sp, #12
 2402              	.LCFI16:
 2403              		.cfi_def_cfa_offset 32
 2404 0004 0546     		mov	r5, r0
 2405 0006 0C46     		mov	r4, r1
 492:Src/menu_handler.c ****   memset(buff, 0, sizeof(buff));
 2406              		.loc 1 492 0
 2407 0008 5A22     		movs	r2, #90
 2408 000a 0021     		movs	r1, #0
 2409              	.LVL200:
 2410 000c A548     		ldr	r0, .L161
 2411              	.LVL201:
 2412 000e FFF7FEFF 		bl	memset
 2413              	.LVL202:
 493:Src/menu_handler.c ****   if(treeView[add].keyMode != menuIdxLast)
 2414              		.loc 1 493 0
 2415 0012 6420     		movs	r0, #100
 2416 0014 00FB05F0 		mul	r0, r0, r5
 2417 0018 A34B     		ldr	r3, .L161+4
 2418 001a 1A5A     		ldrh	r2, [r3, r0]
 2419 001c A34B     		ldr	r3, .L161+8
 2420 001e 1B88     		ldrh	r3, [r3]
 2421 0020 9A42     		cmp	r2, r3
ARM GAS  /var/folders/rk/zpr83dd14lx588t7kb0yv2b40000gn/T//cc3igAjz.s 			page 54


 2422 0022 0CD0     		beq	.L134
 494:Src/menu_handler.c ****   {
 495:Src/menu_handler.c ****     menuValueSet = 0;
 2423              		.loc 1 495 0
 2424 0024 0023     		movs	r3, #0
 2425 0026 A24A     		ldr	r2, .L161+12
 2426 0028 1380     		strh	r3, [r2]	@ movhi
 496:Src/menu_handler.c ****     menuCursor = 0;
 2427              		.loc 1 496 0
 2428 002a A24A     		ldr	r2, .L161+16
 2429 002c 1380     		strh	r3, [r2]	@ movhi
 497:Src/menu_handler.c ****     nghin = tram = chuc = dv = 0;
 2430              		.loc 1 497 0
 2431 002e A24A     		ldr	r2, .L161+20
 2432 0030 1370     		strb	r3, [r2]
 2433 0032 A24A     		ldr	r2, .L161+24
 2434 0034 1370     		strb	r3, [r2]
 2435 0036 A24A     		ldr	r2, .L161+28
 2436 0038 1370     		strb	r3, [r2]
 2437 003a A24A     		ldr	r2, .L161+32
 2438 003c 1370     		strb	r3, [r2]
 2439              	.L134:
 498:Src/menu_handler.c ****   }
 499:Src/menu_handler.c ****   if(key == BTN_NEXT)
 2440              		.loc 1 499 0
 2441 003e 032C     		cmp	r4, #3
 2442 0040 08D0     		beq	.L157
 2443              	.L135:
 500:Src/menu_handler.c ****   {
 501:Src/menu_handler.c ****     if(++menuCursor > 3) menuCursor = 0;
 502:Src/menu_handler.c ****   }
 503:Src/menu_handler.c **** 
 504:Src/menu_handler.c ****   if(key == BTN_UP)
 2444              		.loc 1 504 0
 2445 0042 CCB9     		cbnz	r4, .L136
 505:Src/menu_handler.c ****   {
 506:Src/menu_handler.c ****     switch(menuCursor)
 2446              		.loc 1 506 0
 2447 0044 9B4B     		ldr	r3, .L161+16
 2448 0046 1B88     		ldrh	r3, [r3]
 2449 0048 032B     		cmp	r3, #3
 2450 004a 15D8     		bhi	.L136
 2451 004c DFE803F0 		tbb	[pc, r3]
 2452              	.L138:
 2453 0050 0D       		.byte	(.L137-.L138)/2
 2454 0051 2B       		.byte	(.L139-.L138)/2
 2455 0052 33       		.byte	(.L140-.L138)/2
 2456 0053 3B       		.byte	(.L141-.L138)/2
 2457              		.p2align 1
 2458              	.L157:
 501:Src/menu_handler.c ****   }
 2459              		.loc 1 501 0
 2460 0054 974A     		ldr	r2, .L161+16
 2461 0056 1388     		ldrh	r3, [r2]
 2462 0058 0133     		adds	r3, r3, #1
 2463 005a 9BB2     		uxth	r3, r3
 2464 005c 1380     		strh	r3, [r2]	@ movhi
ARM GAS  /var/folders/rk/zpr83dd14lx588t7kb0yv2b40000gn/T//cc3igAjz.s 			page 55


 2465 005e 032B     		cmp	r3, #3
 2466 0060 EFD9     		bls	.L135
 501:Src/menu_handler.c ****   }
 2467              		.loc 1 501 0 is_stmt 0 discriminator 1
 2468 0062 1346     		mov	r3, r2
 2469 0064 0022     		movs	r2, #0
 2470 0066 1A80     		strh	r2, [r3]	@ movhi
 2471 0068 EBE7     		b	.L135
 2472              	.L137:
 507:Src/menu_handler.c ****     {
 508:Src/menu_handler.c ****       case 0:
 509:Src/menu_handler.c ****         if(nghin < 9) nghin++;
 2473              		.loc 1 509 0 is_stmt 1
 2474 006a 964B     		ldr	r3, .L161+32
 2475 006c 1B78     		ldrb	r3, [r3]	@ zero_extendqisi2
 2476 006e 082B     		cmp	r3, #8
 2477 0070 02D8     		bhi	.L136
 2478              		.loc 1 509 0 is_stmt 0 discriminator 1
 2479 0072 0133     		adds	r3, r3, #1
 2480 0074 934A     		ldr	r2, .L161+32
 2481 0076 1370     		strb	r3, [r2]
 2482              	.L136:
 510:Src/menu_handler.c ****         break;
 511:Src/menu_handler.c ****       case 1:
 512:Src/menu_handler.c ****         if(tram < 9) tram++;
 513:Src/menu_handler.c ****         break;
 514:Src/menu_handler.c ****       case 2:
 515:Src/menu_handler.c ****         if(chuc < 9) chuc++;
 516:Src/menu_handler.c ****         break;
 517:Src/menu_handler.c ****       case 3:
 518:Src/menu_handler.c ****         if(dv < 9) dv++;
 519:Src/menu_handler.c ****         break;
 520:Src/menu_handler.c ****     }
 521:Src/menu_handler.c ****   }
 522:Src/menu_handler.c ****   if(key == BTN_DOWN)
 2483              		.loc 1 522 0 is_stmt 1
 2484 0078 012C     		cmp	r4, #1
 2485 007a 2CD0     		beq	.L158
 2486              	.L142:
 523:Src/menu_handler.c ****   {
 524:Src/menu_handler.c ****     switch(menuCursor)
 525:Src/menu_handler.c ****     {
 526:Src/menu_handler.c ****       case 0:
 527:Src/menu_handler.c ****         if(nghin > 0) nghin--;
 528:Src/menu_handler.c ****         break;
 529:Src/menu_handler.c ****       case 1:
 530:Src/menu_handler.c ****         if(tram > 0) tram--;
 531:Src/menu_handler.c ****         break;
 532:Src/menu_handler.c ****       case 2:
 533:Src/menu_handler.c ****         if(chuc > 0) chuc--;
 534:Src/menu_handler.c ****         break;
 535:Src/menu_handler.c ****       case 3:
 536:Src/menu_handler.c ****         if(dv > 0) dv--;
 537:Src/menu_handler.c ****         break;
 538:Src/menu_handler.c ****     }
 539:Src/menu_handler.c ****   }
 540:Src/menu_handler.c ****   u8g2_SetFont(&u8g2, u8g2_font_6x12_mf);
ARM GAS  /var/folders/rk/zpr83dd14lx588t7kb0yv2b40000gn/T//cc3igAjz.s 			page 56


 2487              		.loc 1 540 0
 2488 007c 924D     		ldr	r5, .L161+36
 2489 007e 9349     		ldr	r1, .L161+40
 2490 0080 2846     		mov	r0, r5
 2491 0082 FFF7FEFF 		bl	u8g2_SetFont
 2492              	.LVL203:
 541:Src/menu_handler.c ****   u8g2_DrawStr(&u8g2,((22 - strlen("Enter Password!"))/2)*6, 24, "Enter Password!");
 2493              		.loc 1 541 0
 2494 0086 924B     		ldr	r3, .L161+44
 2495 0088 1822     		movs	r2, #24
 2496 008a 1221     		movs	r1, #18
 2497 008c 2846     		mov	r0, r5
 2498 008e FFF7FEFF 		bl	u8g2_DrawStr
 2499              	.LVL204:
 542:Src/menu_handler.c ****   switch(menuCursor)
 2500              		.loc 1 542 0
 2501 0092 884B     		ldr	r3, .L161+16
 2502 0094 1B88     		ldrh	r3, [r3]
 2503 0096 032B     		cmp	r3, #3
 2504 0098 70D8     		bhi	.L148
 2505 009a DFE813F0 		tbh	[pc, r3, lsl #1]
 2506              	.L150:
 2507 009e 4400     		.2byte	(.L149-.L150)/2
 2508 00a0 9700     		.2byte	(.L151-.L150)/2
 2509 00a2 CD00     		.2byte	(.L152-.L150)/2
 2510 00a4 2301     		.2byte	(.L153-.L150)/2
 2511              		.p2align 1
 2512              	.L139:
 512:Src/menu_handler.c ****         break;
 2513              		.loc 1 512 0
 2514 00a6 864B     		ldr	r3, .L161+28
 2515 00a8 1B78     		ldrb	r3, [r3]	@ zero_extendqisi2
 2516 00aa 082B     		cmp	r3, #8
 2517 00ac E4D8     		bhi	.L136
 512:Src/menu_handler.c ****         break;
 2518              		.loc 1 512 0 is_stmt 0 discriminator 1
 2519 00ae 0133     		adds	r3, r3, #1
 2520 00b0 834A     		ldr	r2, .L161+28
 2521 00b2 1370     		strb	r3, [r2]
 2522 00b4 E0E7     		b	.L136
 2523              	.L140:
 515:Src/menu_handler.c ****         break;
 2524              		.loc 1 515 0 is_stmt 1
 2525 00b6 814B     		ldr	r3, .L161+24
 2526 00b8 1B78     		ldrb	r3, [r3]	@ zero_extendqisi2
 2527 00ba 082B     		cmp	r3, #8
 2528 00bc DCD8     		bhi	.L136
 515:Src/menu_handler.c ****         break;
 2529              		.loc 1 515 0 is_stmt 0 discriminator 1
 2530 00be 0133     		adds	r3, r3, #1
 2531 00c0 7E4A     		ldr	r2, .L161+24
 2532 00c2 1370     		strb	r3, [r2]
 2533 00c4 D8E7     		b	.L136
 2534              	.L141:
 518:Src/menu_handler.c ****         break;
 2535              		.loc 1 518 0 is_stmt 1
 2536 00c6 7C4B     		ldr	r3, .L161+20
ARM GAS  /var/folders/rk/zpr83dd14lx588t7kb0yv2b40000gn/T//cc3igAjz.s 			page 57


 2537 00c8 1B78     		ldrb	r3, [r3]	@ zero_extendqisi2
 2538 00ca 082B     		cmp	r3, #8
 2539 00cc D4D8     		bhi	.L136
 518:Src/menu_handler.c ****         break;
 2540              		.loc 1 518 0 is_stmt 0 discriminator 1
 2541 00ce 0133     		adds	r3, r3, #1
 2542 00d0 794A     		ldr	r2, .L161+20
 2543 00d2 1370     		strb	r3, [r2]
 2544 00d4 D0E7     		b	.L136
 2545              	.L158:
 524:Src/menu_handler.c ****     {
 2546              		.loc 1 524 0 is_stmt 1
 2547 00d6 774B     		ldr	r3, .L161+16
 2548 00d8 1B88     		ldrh	r3, [r3]
 2549 00da 032B     		cmp	r3, #3
 2550 00dc CED8     		bhi	.L142
 2551 00de DFE803F0 		tbb	[pc, r3]
 2552              	.L144:
 2553 00e2 02       		.byte	(.L143-.L144)/2
 2554 00e3 0A       		.byte	(.L145-.L144)/2
 2555 00e4 12       		.byte	(.L146-.L144)/2
 2556 00e5 1A       		.byte	(.L147-.L144)/2
 2557              		.p2align 1
 2558              	.L143:
 527:Src/menu_handler.c ****         break;
 2559              		.loc 1 527 0
 2560 00e6 774B     		ldr	r3, .L161+32
 2561 00e8 1B78     		ldrb	r3, [r3]	@ zero_extendqisi2
 2562 00ea 002B     		cmp	r3, #0
 2563 00ec C6D0     		beq	.L142
 527:Src/menu_handler.c ****         break;
 2564              		.loc 1 527 0 is_stmt 0 discriminator 1
 2565 00ee 013B     		subs	r3, r3, #1
 2566 00f0 744A     		ldr	r2, .L161+32
 2567 00f2 1370     		strb	r3, [r2]
 2568 00f4 C2E7     		b	.L142
 2569              	.L145:
 530:Src/menu_handler.c ****         break;
 2570              		.loc 1 530 0 is_stmt 1
 2571 00f6 724B     		ldr	r3, .L161+28
 2572 00f8 1B78     		ldrb	r3, [r3]	@ zero_extendqisi2
 2573 00fa 002B     		cmp	r3, #0
 2574 00fc BED0     		beq	.L142
 530:Src/menu_handler.c ****         break;
 2575              		.loc 1 530 0 is_stmt 0 discriminator 1
 2576 00fe 013B     		subs	r3, r3, #1
 2577 0100 6F4A     		ldr	r2, .L161+28
 2578 0102 1370     		strb	r3, [r2]
 2579 0104 BAE7     		b	.L142
 2580              	.L146:
 533:Src/menu_handler.c ****         break;
 2581              		.loc 1 533 0 is_stmt 1
 2582 0106 6D4B     		ldr	r3, .L161+24
 2583 0108 1B78     		ldrb	r3, [r3]	@ zero_extendqisi2
 2584 010a 002B     		cmp	r3, #0
 2585 010c B6D0     		beq	.L142
 533:Src/menu_handler.c ****         break;
ARM GAS  /var/folders/rk/zpr83dd14lx588t7kb0yv2b40000gn/T//cc3igAjz.s 			page 58


 2586              		.loc 1 533 0 is_stmt 0 discriminator 1
 2587 010e 013B     		subs	r3, r3, #1
 2588 0110 6A4A     		ldr	r2, .L161+24
 2589 0112 1370     		strb	r3, [r2]
 2590 0114 B2E7     		b	.L142
 2591              	.L147:
 536:Src/menu_handler.c ****         break;
 2592              		.loc 1 536 0 is_stmt 1
 2593 0116 684B     		ldr	r3, .L161+20
 2594 0118 1B78     		ldrb	r3, [r3]	@ zero_extendqisi2
 2595 011a 002B     		cmp	r3, #0
 2596 011c AED0     		beq	.L142
 536:Src/menu_handler.c ****         break;
 2597              		.loc 1 536 0 is_stmt 0 discriminator 1
 2598 011e 013B     		subs	r3, r3, #1
 2599 0120 654A     		ldr	r2, .L161+20
 2600 0122 1370     		strb	r3, [r2]
 2601 0124 AAE7     		b	.L142
 2602              	.L149:
 543:Src/menu_handler.c ****   {
 544:Src/menu_handler.c ****     case 0:
 545:Src/menu_handler.c ****       u8g2_SetFont(&u8g2, u8g2_font_6x12_mf);
 2603              		.loc 1 545 0 is_stmt 1
 2604 0126 684D     		ldr	r5, .L161+36
 2605 0128 6849     		ldr	r1, .L161+40
 2606 012a 2846     		mov	r0, r5
 2607 012c FFF7FEFF 		bl	u8g2_SetFont
 2608              	.LVL205:
 546:Src/menu_handler.c ****       u8g2_SetDrawColor(&u8g2, 0);
 2609              		.loc 1 546 0
 2610 0130 0021     		movs	r1, #0
 2611 0132 2846     		mov	r0, r5
 2612 0134 FFF7FEFF 		bl	u8g2_SetDrawColor
 2613              	.LVL206:
 547:Src/menu_handler.c ****       sprintf((char*)buff, "%d", nghin);
 2614              		.loc 1 547 0
 2615 0138 5A4E     		ldr	r6, .L161
 2616 013a 624B     		ldr	r3, .L161+32
 2617 013c 1A78     		ldrb	r2, [r3]	@ zero_extendqisi2
 2618 013e 6549     		ldr	r1, .L161+48
 2619 0140 3046     		mov	r0, r6
 2620 0142 FFF7FEFF 		bl	sprintf
 2621              	.LVL207:
 548:Src/menu_handler.c ****       u8g2_DrawStr(&u8g2, 48, 36, buff);
 2622              		.loc 1 548 0
 2623 0146 3346     		mov	r3, r6
 2624 0148 2422     		movs	r2, #36
 2625 014a 3021     		movs	r1, #48
 2626 014c 2846     		mov	r0, r5
 2627 014e FFF7FEFF 		bl	u8g2_DrawStr
 2628              	.LVL208:
 549:Src/menu_handler.c ****       u8g2_SetDrawColor(&u8g2, 1);
 2629              		.loc 1 549 0
 2630 0152 0121     		movs	r1, #1
 2631 0154 2846     		mov	r0, r5
 2632 0156 FFF7FEFF 		bl	u8g2_SetDrawColor
 2633              	.LVL209:
ARM GAS  /var/folders/rk/zpr83dd14lx588t7kb0yv2b40000gn/T//cc3igAjz.s 			page 59


 550:Src/menu_handler.c **** 
 551:Src/menu_handler.c ****       sprintf((char*)buff, "%d%d%d", tram, chuc, dv);
 2634              		.loc 1 551 0
 2635 015a 584B     		ldr	r3, .L161+24
 2636 015c 1B78     		ldrb	r3, [r3]	@ zero_extendqisi2
 2637 015e 584A     		ldr	r2, .L161+28
 2638 0160 1278     		ldrb	r2, [r2]	@ zero_extendqisi2
 2639 0162 5549     		ldr	r1, .L161+20
 2640 0164 0978     		ldrb	r1, [r1]	@ zero_extendqisi2
 2641 0166 0091     		str	r1, [sp]
 2642 0168 5B49     		ldr	r1, .L161+52
 2643 016a 3046     		mov	r0, r6
 2644 016c FFF7FEFF 		bl	sprintf
 2645              	.LVL210:
 552:Src/menu_handler.c ****       u8g2_DrawStr(&u8g2, 48 + 6, 36, buff);
 2646              		.loc 1 552 0
 2647 0170 3346     		mov	r3, r6
 2648 0172 2422     		movs	r2, #36
 2649 0174 3621     		movs	r1, #54
 2650 0176 2846     		mov	r0, r5
 2651 0178 FFF7FEFF 		bl	u8g2_DrawStr
 2652              	.LVL211:
 2653              	.L148:
 553:Src/menu_handler.c ****       break;
 554:Src/menu_handler.c ****     case 1:
 555:Src/menu_handler.c ****       u8g2_SetFont(&u8g2, u8g2_font_6x12_mf);
 556:Src/menu_handler.c ****       sprintf((char*)buff, "%d", nghin);
 557:Src/menu_handler.c ****       u8g2_DrawStr(&u8g2, 48, 36, buff);
 558:Src/menu_handler.c ****       /* blink minutes */
 559:Src/menu_handler.c ****       u8g2_SetDrawColor(&u8g2, 0);
 560:Src/menu_handler.c ****       sprintf((char*)buff, "%d", tram);
 561:Src/menu_handler.c ****       u8g2_DrawStr(&u8g2, 48 + 6, 36, buff);
 562:Src/menu_handler.c ****       u8g2_SetDrawColor(&u8g2, 1);
 563:Src/menu_handler.c **** 
 564:Src/menu_handler.c ****       sprintf((char*)buff, "%d%d", chuc, dv);
 565:Src/menu_handler.c ****       u8g2_DrawStr(&u8g2, 48 + 12, 36, buff);
 566:Src/menu_handler.c ****       break;
 567:Src/menu_handler.c ****     case 2:
 568:Src/menu_handler.c ****       u8g2_SetFont(&u8g2, u8g2_font_6x12_mf);
 569:Src/menu_handler.c ****       sprintf((char*)buff, "%d%d", nghin, tram);
 570:Src/menu_handler.c ****       u8g2_DrawStr(&u8g2, 48, 36, buff);
 571:Src/menu_handler.c **** 
 572:Src/menu_handler.c ****       u8g2_SetDrawColor(&u8g2, 0);
 573:Src/menu_handler.c ****       sprintf((char*)buff, "%d", chuc);
 574:Src/menu_handler.c ****       u8g2_DrawStr(&u8g2, 48 + 12, 36, buff);
 575:Src/menu_handler.c ****       u8g2_SetDrawColor(&u8g2, 1);
 576:Src/menu_handler.c ****       sprintf((char*)buff, "%d", dv);
 577:Src/menu_handler.c ****       u8g2_DrawStr(&u8g2, 48 + 18, 36, buff);
 578:Src/menu_handler.c ****       break;
 579:Src/menu_handler.c ****     case 3:
 580:Src/menu_handler.c ****       u8g2_SetFont(&u8g2, u8g2_font_6x12_mf);
 581:Src/menu_handler.c ****       sprintf((char*)buff, "%d%d%d", nghin, tram, chuc);
 582:Src/menu_handler.c ****       u8g2_DrawStr(&u8g2, 48, 36, buff);
 583:Src/menu_handler.c **** 
 584:Src/menu_handler.c ****       u8g2_SetDrawColor(&u8g2, 0);
 585:Src/menu_handler.c ****       sprintf((char*)buff, "%d", dv);
 586:Src/menu_handler.c ****       u8g2_DrawStr(&u8g2, 48 + 18, 36, buff);
ARM GAS  /var/folders/rk/zpr83dd14lx588t7kb0yv2b40000gn/T//cc3igAjz.s 			page 60


 587:Src/menu_handler.c ****       u8g2_SetDrawColor(&u8g2, 1);
 588:Src/menu_handler.c ****       break;
 589:Src/menu_handler.c ****   }
 590:Src/menu_handler.c ****   // sprintf((char*)buff, "%04d", menuValueSet);
 591:Src/menu_handler.c ****   // u8g2_SetFont(&u8g2, u8g2_font_6x12_mf);
 592:Src/menu_handler.c ****   // u8g2_DrawStr(&u8g2, ((22 - strlen(buff))/2)*6, 36, buff);
 593:Src/menu_handler.c ****   menuValueSet = nghin*1000 + tram*100 + chuc*10 + dv;
 2654              		.loc 1 593 0
 2655 017c 514B     		ldr	r3, .L161+32
 2656 017e 1B78     		ldrb	r3, [r3]	@ zero_extendqisi2
 2657 0180 C3EB4312 		rsb	r2, r3, r3, lsl #5
 2658 0184 03EB8202 		add	r2, r3, r2, lsl #2
 2659 0188 D300     		lsls	r3, r2, #3
 2660 018a 4D4A     		ldr	r2, .L161+28
 2661 018c 1278     		ldrb	r2, [r2]	@ zero_extendqisi2
 2662 018e 02EB8202 		add	r2, r2, r2, lsl #2
 2663 0192 02EB8202 		add	r2, r2, r2, lsl #2
 2664 0196 9100     		lsls	r1, r2, #2
 2665 0198 0B44     		add	r3, r3, r1
 2666 019a 9BB2     		uxth	r3, r3
 2667 019c 474A     		ldr	r2, .L161+24
 2668 019e 1278     		ldrb	r2, [r2]	@ zero_extendqisi2
 2669 01a0 02EB8202 		add	r2, r2, r2, lsl #2
 2670 01a4 5100     		lsls	r1, r2, #1
 2671 01a6 0B44     		add	r3, r3, r1
 2672 01a8 9BB2     		uxth	r3, r3
 2673 01aa 434A     		ldr	r2, .L161+20
 2674 01ac 1278     		ldrb	r2, [r2]	@ zero_extendqisi2
 2675 01ae 1344     		add	r3, r3, r2
 2676 01b0 9BB2     		uxth	r3, r3
 2677 01b2 3F4A     		ldr	r2, .L161+12
 2678 01b4 1380     		strh	r3, [r2]	@ movhi
 594:Src/menu_handler.c ****   if(menuValueSet == sys_cfg.passWord)
 2679              		.loc 1 594 0
 2680 01b6 494A     		ldr	r2, .L161+56
 2681 01b8 1289     		ldrh	r2, [r2, #8]
 2682 01ba 9342     		cmp	r3, r2
 2683 01bc 00F0BE80 		beq	.L159
 595:Src/menu_handler.c ****   {
 596:Src/menu_handler.c ****     if(key == BTN_MENU)
 597:Src/menu_handler.c ****     {
 598:Src/menu_handler.c ****       sys.UVTime = 0;
 599:Src/menu_handler.c ****       Save_SysTime_BKUP();
 600:Src/menu_handler.c ****       CFG_Save();
 601:Src/menu_handler.c ****       sprintf((char*)buff, "%04d Hours", sys.UVTime);
 602:Src/menu_handler.c ****       u8g2_DrawStr(&u8g2,((22 - strlen(buff))/2)*6, 36, buff);
 603:Src/menu_handler.c ****       sprintf((char*)buff, "\4 Reset UV Time!\n");
 604:Src/menu_handler.c ****       u8g2_DrawStr(&u8g2,((22 - strlen("Reset UV Time!"))/2)*6, 48, "Reset UV Time!");
 605:Src/menu_handler.c ****     }
 606:Src/menu_handler.c ****   }
 607:Src/menu_handler.c ****   else
 608:Src/menu_handler.c ****   {
 609:Src/menu_handler.c ****     if(key == BTN_MENU)
 2684              		.loc 1 609 0
 2685 01c0 042C     		cmp	r4, #4
 2686 01c2 00F0EB80 		beq	.L160
 2687              	.L155:
ARM GAS  /var/folders/rk/zpr83dd14lx588t7kb0yv2b40000gn/T//cc3igAjz.s 			page 61


 610:Src/menu_handler.c ****     {
 611:Src/menu_handler.c ****       sys.UVTime = sys.UVTime;
 612:Src/menu_handler.c ****       sprintf((char*)buff, "%04d Hours", sys.UVTime);
 613:Src/menu_handler.c ****       u8g2_DrawStr(&u8g2,((22 - strlen(buff))/2)*6, 36, buff);
 614:Src/menu_handler.c ****       u8g2_DrawStr(&u8g2,((22 - strlen("Wrong Password!"))/2)*6, 48, "Wrong Password!");
 615:Src/menu_handler.c ****     }
 616:Src/menu_handler.c ****   }
 617:Src/menu_handler.c ****   return 0;
 618:Src/menu_handler.c **** }
 2688              		.loc 1 618 0
 2689 01c6 0020     		movs	r0, #0
 2690 01c8 03B0     		add	sp, sp, #12
 2691              	.LCFI17:
 2692              		.cfi_remember_state
 2693              		.cfi_def_cfa_offset 20
 2694              		@ sp needed
 2695 01ca F0BD     		pop	{r4, r5, r6, r7, pc}
 2696              	.L151:
 2697              	.LCFI18:
 2698              		.cfi_restore_state
 555:Src/menu_handler.c ****       sprintf((char*)buff, "%d", nghin);
 2699              		.loc 1 555 0
 2700 01cc 3E4D     		ldr	r5, .L161+36
 2701 01ce 3F49     		ldr	r1, .L161+40
 2702 01d0 2846     		mov	r0, r5
 2703 01d2 FFF7FEFF 		bl	u8g2_SetFont
 2704              	.LVL212:
 556:Src/menu_handler.c ****       u8g2_DrawStr(&u8g2, 48, 36, buff);
 2705              		.loc 1 556 0
 2706 01d6 3F4F     		ldr	r7, .L161+48
 2707 01d8 324E     		ldr	r6, .L161
 2708 01da 3A4B     		ldr	r3, .L161+32
 2709 01dc 1A78     		ldrb	r2, [r3]	@ zero_extendqisi2
 2710 01de 3946     		mov	r1, r7
 2711 01e0 3046     		mov	r0, r6
 2712 01e2 FFF7FEFF 		bl	sprintf
 2713              	.LVL213:
 557:Src/menu_handler.c ****       /* blink minutes */
 2714              		.loc 1 557 0
 2715 01e6 3346     		mov	r3, r6
 2716 01e8 2422     		movs	r2, #36
 2717 01ea 3021     		movs	r1, #48
 2718 01ec 2846     		mov	r0, r5
 2719 01ee FFF7FEFF 		bl	u8g2_DrawStr
 2720              	.LVL214:
 559:Src/menu_handler.c ****       sprintf((char*)buff, "%d", tram);
 2721              		.loc 1 559 0
 2722 01f2 0021     		movs	r1, #0
 2723 01f4 2846     		mov	r0, r5
 2724 01f6 FFF7FEFF 		bl	u8g2_SetDrawColor
 2725              	.LVL215:
 560:Src/menu_handler.c ****       u8g2_DrawStr(&u8g2, 48 + 6, 36, buff);
 2726              		.loc 1 560 0
 2727 01fa 314B     		ldr	r3, .L161+28
 2728 01fc 1A78     		ldrb	r2, [r3]	@ zero_extendqisi2
 2729 01fe 3946     		mov	r1, r7
 2730 0200 3046     		mov	r0, r6
ARM GAS  /var/folders/rk/zpr83dd14lx588t7kb0yv2b40000gn/T//cc3igAjz.s 			page 62


 2731 0202 FFF7FEFF 		bl	sprintf
 2732              	.LVL216:
 561:Src/menu_handler.c ****       u8g2_SetDrawColor(&u8g2, 1);
 2733              		.loc 1 561 0
 2734 0206 3346     		mov	r3, r6
 2735 0208 2422     		movs	r2, #36
 2736 020a 3621     		movs	r1, #54
 2737 020c 2846     		mov	r0, r5
 2738 020e FFF7FEFF 		bl	u8g2_DrawStr
 2739              	.LVL217:
 562:Src/menu_handler.c **** 
 2740              		.loc 1 562 0
 2741 0212 0121     		movs	r1, #1
 2742 0214 2846     		mov	r0, r5
 2743 0216 FFF7FEFF 		bl	u8g2_SetDrawColor
 2744              	.LVL218:
 564:Src/menu_handler.c ****       u8g2_DrawStr(&u8g2, 48 + 12, 36, buff);
 2745              		.loc 1 564 0
 2746 021a 274B     		ldr	r3, .L161+20
 2747 021c 1B78     		ldrb	r3, [r3]	@ zero_extendqisi2
 2748 021e 274A     		ldr	r2, .L161+24
 2749 0220 1278     		ldrb	r2, [r2]	@ zero_extendqisi2
 2750 0222 2F49     		ldr	r1, .L161+60
 2751 0224 3046     		mov	r0, r6
 2752 0226 FFF7FEFF 		bl	sprintf
 2753              	.LVL219:
 565:Src/menu_handler.c ****       break;
 2754              		.loc 1 565 0
 2755 022a 3346     		mov	r3, r6
 2756 022c 2422     		movs	r2, #36
 2757 022e 3C21     		movs	r1, #60
 2758 0230 2846     		mov	r0, r5
 2759 0232 FFF7FEFF 		bl	u8g2_DrawStr
 2760              	.LVL220:
 566:Src/menu_handler.c ****     case 2:
 2761              		.loc 1 566 0
 2762 0236 A1E7     		b	.L148
 2763              	.L152:
 568:Src/menu_handler.c ****       sprintf((char*)buff, "%d%d", nghin, tram);
 2764              		.loc 1 568 0
 2765 0238 234D     		ldr	r5, .L161+36
 2766 023a 2449     		ldr	r1, .L161+40
 2767 023c 2846     		mov	r0, r5
 2768 023e FFF7FEFF 		bl	u8g2_SetFont
 2769              	.LVL221:
 569:Src/menu_handler.c ****       u8g2_DrawStr(&u8g2, 48, 36, buff);
 2770              		.loc 1 569 0
 2771 0242 184E     		ldr	r6, .L161
 2772 0244 1E4B     		ldr	r3, .L161+28
 2773 0246 1B78     		ldrb	r3, [r3]	@ zero_extendqisi2
 2774 0248 1E4A     		ldr	r2, .L161+32
 2775 024a 1278     		ldrb	r2, [r2]	@ zero_extendqisi2
 2776 024c 2449     		ldr	r1, .L161+60
 2777 024e 3046     		mov	r0, r6
 2778 0250 FFF7FEFF 		bl	sprintf
 2779              	.LVL222:
 570:Src/menu_handler.c **** 
ARM GAS  /var/folders/rk/zpr83dd14lx588t7kb0yv2b40000gn/T//cc3igAjz.s 			page 63


 2780              		.loc 1 570 0
 2781 0254 3346     		mov	r3, r6
 2782 0256 2422     		movs	r2, #36
 2783 0258 3021     		movs	r1, #48
 2784 025a 2846     		mov	r0, r5
 2785 025c FFF7FEFF 		bl	u8g2_DrawStr
 2786              	.LVL223:
 572:Src/menu_handler.c ****       sprintf((char*)buff, "%d", chuc);
 2787              		.loc 1 572 0
 2788 0260 0021     		movs	r1, #0
 2789 0262 2846     		mov	r0, r5
 2790 0264 FFF7FEFF 		bl	u8g2_SetDrawColor
 2791              	.LVL224:
 573:Src/menu_handler.c ****       u8g2_DrawStr(&u8g2, 48 + 12, 36, buff);
 2792              		.loc 1 573 0
 2793 0268 1A4F     		ldr	r7, .L161+48
 2794 026a 144B     		ldr	r3, .L161+24
 2795 026c 1A78     		ldrb	r2, [r3]	@ zero_extendqisi2
 2796 026e 3946     		mov	r1, r7
 2797 0270 3046     		mov	r0, r6
 2798 0272 FFF7FEFF 		bl	sprintf
 2799              	.LVL225:
 574:Src/menu_handler.c ****       u8g2_SetDrawColor(&u8g2, 1);
 2800              		.loc 1 574 0
 2801 0276 3346     		mov	r3, r6
 2802 0278 2422     		movs	r2, #36
 2803 027a 3C21     		movs	r1, #60
 2804 027c 2846     		mov	r0, r5
 2805 027e FFF7FEFF 		bl	u8g2_DrawStr
 2806              	.LVL226:
 575:Src/menu_handler.c ****       sprintf((char*)buff, "%d", dv);
 2807              		.loc 1 575 0
 2808 0282 0121     		movs	r1, #1
 2809 0284 2846     		mov	r0, r5
 2810 0286 FFF7FEFF 		bl	u8g2_SetDrawColor
 2811              	.LVL227:
 576:Src/menu_handler.c ****       u8g2_DrawStr(&u8g2, 48 + 18, 36, buff);
 2812              		.loc 1 576 0
 2813 028a 0B4B     		ldr	r3, .L161+20
 2814 028c 1A78     		ldrb	r2, [r3]	@ zero_extendqisi2
 2815 028e 3946     		mov	r1, r7
 2816 0290 3046     		mov	r0, r6
 2817 0292 FFF7FEFF 		bl	sprintf
 2818              	.LVL228:
 577:Src/menu_handler.c ****       break;
 2819              		.loc 1 577 0
 2820 0296 3346     		mov	r3, r6
 2821 0298 2422     		movs	r2, #36
 2822 029a 4221     		movs	r1, #66
 2823 029c 2846     		mov	r0, r5
 2824 029e FFF7FEFF 		bl	u8g2_DrawStr
 2825              	.LVL229:
 578:Src/menu_handler.c ****     case 3:
 2826              		.loc 1 578 0
 2827 02a2 6BE7     		b	.L148
 2828              	.L162:
 2829              		.align	2
ARM GAS  /var/folders/rk/zpr83dd14lx588t7kb0yv2b40000gn/T//cc3igAjz.s 			page 64


 2830              	.L161:
 2831 02a4 00000000 		.word	buff
 2832 02a8 00000000 		.word	treeView
 2833 02ac 00000000 		.word	menuIdxLast
 2834 02b0 00000000 		.word	menuValueSet
 2835 02b4 00000000 		.word	menuCursor
 2836 02b8 00000000 		.word	dv
 2837 02bc 00000000 		.word	chuc
 2838 02c0 00000000 		.word	tram
 2839 02c4 00000000 		.word	nghin
 2840 02c8 00000000 		.word	u8g2
 2841 02cc 00000000 		.word	u8g2_font_6x12_mf
 2842 02d0 00000000 		.word	.LC30
 2843 02d4 10000000 		.word	.LC31
 2844 02d8 14000000 		.word	.LC32
 2845 02dc 00000000 		.word	sys_cfg
 2846 02e0 1C000000 		.word	.LC33
 2847              	.L153:
 580:Src/menu_handler.c ****       sprintf((char*)buff, "%d%d%d", nghin, tram, chuc);
 2848              		.loc 1 580 0
 2849 02e4 3D4D     		ldr	r5, .L163
 2850 02e6 3E49     		ldr	r1, .L163+4
 2851 02e8 2846     		mov	r0, r5
 2852 02ea FFF7FEFF 		bl	u8g2_SetFont
 2853              	.LVL230:
 581:Src/menu_handler.c ****       u8g2_DrawStr(&u8g2, 48, 36, buff);
 2854              		.loc 1 581 0
 2855 02ee 3D4B     		ldr	r3, .L163+8
 2856 02f0 1B78     		ldrb	r3, [r3]	@ zero_extendqisi2
 2857 02f2 3D4A     		ldr	r2, .L163+12
 2858 02f4 1278     		ldrb	r2, [r2]	@ zero_extendqisi2
 2859 02f6 3D4E     		ldr	r6, .L163+16
 2860 02f8 3D49     		ldr	r1, .L163+20
 2861 02fa 0978     		ldrb	r1, [r1]	@ zero_extendqisi2
 2862 02fc 0091     		str	r1, [sp]
 2863 02fe 3D49     		ldr	r1, .L163+24
 2864 0300 3046     		mov	r0, r6
 2865 0302 FFF7FEFF 		bl	sprintf
 2866              	.LVL231:
 582:Src/menu_handler.c **** 
 2867              		.loc 1 582 0
 2868 0306 3346     		mov	r3, r6
 2869 0308 2422     		movs	r2, #36
 2870 030a 3021     		movs	r1, #48
 2871 030c 2846     		mov	r0, r5
 2872 030e FFF7FEFF 		bl	u8g2_DrawStr
 2873              	.LVL232:
 584:Src/menu_handler.c ****       sprintf((char*)buff, "%d", dv);
 2874              		.loc 1 584 0
 2875 0312 0021     		movs	r1, #0
 2876 0314 2846     		mov	r0, r5
 2877 0316 FFF7FEFF 		bl	u8g2_SetDrawColor
 2878              	.LVL233:
 585:Src/menu_handler.c ****       u8g2_DrawStr(&u8g2, 48 + 18, 36, buff);
 2879              		.loc 1 585 0
 2880 031a 374B     		ldr	r3, .L163+28
 2881 031c 1A78     		ldrb	r2, [r3]	@ zero_extendqisi2
ARM GAS  /var/folders/rk/zpr83dd14lx588t7kb0yv2b40000gn/T//cc3igAjz.s 			page 65


 2882 031e 3749     		ldr	r1, .L163+32
 2883 0320 3046     		mov	r0, r6
 2884 0322 FFF7FEFF 		bl	sprintf
 2885              	.LVL234:
 586:Src/menu_handler.c ****       u8g2_SetDrawColor(&u8g2, 1);
 2886              		.loc 1 586 0
 2887 0326 3346     		mov	r3, r6
 2888 0328 2422     		movs	r2, #36
 2889 032a 4221     		movs	r1, #66
 2890 032c 2846     		mov	r0, r5
 2891 032e FFF7FEFF 		bl	u8g2_DrawStr
 2892              	.LVL235:
 587:Src/menu_handler.c ****       break;
 2893              		.loc 1 587 0
 2894 0332 0121     		movs	r1, #1
 2895 0334 2846     		mov	r0, r5
 2896 0336 FFF7FEFF 		bl	u8g2_SetDrawColor
 2897              	.LVL236:
 588:Src/menu_handler.c ****   }
 2898              		.loc 1 588 0
 2899 033a 1FE7     		b	.L148
 2900              	.L159:
 596:Src/menu_handler.c ****     {
 2901              		.loc 1 596 0
 2902 033c 042C     		cmp	r4, #4
 2903 033e 7FF442AF 		bne	.L155
 598:Src/menu_handler.c ****       Save_SysTime_BKUP();
 2904              		.loc 1 598 0
 2905 0342 2F4D     		ldr	r5, .L163+36
 2906 0344 0023     		movs	r3, #0
 2907 0346 6B60     		str	r3, [r5, #4]
 599:Src/menu_handler.c ****       CFG_Save();
 2908              		.loc 1 599 0
 2909 0348 FFF7FEFF 		bl	Save_SysTime_BKUP
 2910              	.LVL237:
 600:Src/menu_handler.c ****       sprintf((char*)buff, "%04d Hours", sys.UVTime);
 2911              		.loc 1 600 0
 2912 034c FFF7FEFF 		bl	CFG_Save
 2913              	.LVL238:
 601:Src/menu_handler.c ****       u8g2_DrawStr(&u8g2,((22 - strlen(buff))/2)*6, 36, buff);
 2914              		.loc 1 601 0
 2915 0350 264C     		ldr	r4, .L163+16
 2916 0352 6A68     		ldr	r2, [r5, #4]
 2917 0354 2B49     		ldr	r1, .L163+40
 2918 0356 2046     		mov	r0, r4
 2919 0358 FFF7FEFF 		bl	sprintf
 2920              	.LVL239:
 602:Src/menu_handler.c ****       sprintf((char*)buff, "\4 Reset UV Time!\n");
 2921              		.loc 1 602 0
 2922 035c 2046     		mov	r0, r4
 2923 035e FFF7FEFF 		bl	strlen
 2924              	.LVL240:
 2925 0362 C0F11600 		rsb	r0, r0, #22
 2926 0366 4008     		lsrs	r0, r0, #1
 2927 0368 00EB4000 		add	r0, r0, r0, lsl #1
 2928 036c 4100     		lsls	r1, r0, #1
 2929 036e 1B4E     		ldr	r6, .L163
ARM GAS  /var/folders/rk/zpr83dd14lx588t7kb0yv2b40000gn/T//cc3igAjz.s 			page 66


 2930 0370 2346     		mov	r3, r4
 2931 0372 2422     		movs	r2, #36
 2932 0374 01F0FE01 		and	r1, r1, #254
 2933 0378 3046     		mov	r0, r6
 2934 037a FFF7FEFF 		bl	u8g2_DrawStr
 2935              	.LVL241:
 603:Src/menu_handler.c ****       u8g2_DrawStr(&u8g2,((22 - strlen("Reset UV Time!"))/2)*6, 48, "Reset UV Time!");
 2936              		.loc 1 603 0
 2937 037e 224D     		ldr	r5, .L163+44
 2938 0380 0FCD     		ldmia	r5!, {r0, r1, r2, r3}
 2939 0382 2060     		str	r0, [r4]	@ unaligned
 2940 0384 6160     		str	r1, [r4, #4]	@ unaligned
 2941 0386 A260     		str	r2, [r4, #8]	@ unaligned
 2942 0388 E360     		str	r3, [r4, #12]	@ unaligned
 2943 038a 2B88     		ldrh	r3, [r5]	@ unaligned
 2944 038c 2382     		strh	r3, [r4, #16]	@ unaligned
 604:Src/menu_handler.c ****     }
 2945              		.loc 1 604 0
 2946 038e 1F4B     		ldr	r3, .L163+48
 2947 0390 3022     		movs	r2, #48
 2948 0392 1821     		movs	r1, #24
 2949 0394 3046     		mov	r0, r6
 2950 0396 FFF7FEFF 		bl	u8g2_DrawStr
 2951              	.LVL242:
 2952 039a 14E7     		b	.L155
 2953              	.L160:
 612:Src/menu_handler.c ****       u8g2_DrawStr(&u8g2,((22 - strlen(buff))/2)*6, 36, buff);
 2954              		.loc 1 612 0
 2955 039c 134C     		ldr	r4, .L163+16
 2956 039e 184B     		ldr	r3, .L163+36
 2957 03a0 5A68     		ldr	r2, [r3, #4]
 2958 03a2 1849     		ldr	r1, .L163+40
 2959 03a4 2046     		mov	r0, r4
 2960 03a6 FFF7FEFF 		bl	sprintf
 2961              	.LVL243:
 613:Src/menu_handler.c ****       u8g2_DrawStr(&u8g2,((22 - strlen("Wrong Password!"))/2)*6, 48, "Wrong Password!");
 2962              		.loc 1 613 0
 2963 03aa 2046     		mov	r0, r4
 2964 03ac FFF7FEFF 		bl	strlen
 2965              	.LVL244:
 2966 03b0 C0F11600 		rsb	r0, r0, #22
 2967 03b4 4008     		lsrs	r0, r0, #1
 2968 03b6 00EB4000 		add	r0, r0, r0, lsl #1
 2969 03ba 4100     		lsls	r1, r0, #1
 2970 03bc 074D     		ldr	r5, .L163
 2971 03be 2346     		mov	r3, r4
 2972 03c0 2422     		movs	r2, #36
 2973 03c2 01F0FE01 		and	r1, r1, #254
 2974 03c6 2846     		mov	r0, r5
 2975 03c8 FFF7FEFF 		bl	u8g2_DrawStr
 2976              	.LVL245:
 614:Src/menu_handler.c ****     }
 2977              		.loc 1 614 0
 2978 03cc 104B     		ldr	r3, .L163+52
 2979 03ce 3022     		movs	r2, #48
 2980 03d0 1221     		movs	r1, #18
 2981 03d2 2846     		mov	r0, r5
ARM GAS  /var/folders/rk/zpr83dd14lx588t7kb0yv2b40000gn/T//cc3igAjz.s 			page 67


 2982 03d4 FFF7FEFF 		bl	u8g2_DrawStr
 2983              	.LVL246:
 2984 03d8 F5E6     		b	.L155
 2985              	.L164:
 2986 03da 00BF     		.align	2
 2987              	.L163:
 2988 03dc 00000000 		.word	u8g2
 2989 03e0 00000000 		.word	u8g2_font_6x12_mf
 2990 03e4 00000000 		.word	tram
 2991 03e8 00000000 		.word	nghin
 2992 03ec 00000000 		.word	buff
 2993 03f0 00000000 		.word	chuc
 2994 03f4 14000000 		.word	.LC32
 2995 03f8 00000000 		.word	dv
 2996 03fc 10000000 		.word	.LC31
 2997 0400 00000000 		.word	sys
 2998 0404 00000000 		.word	.LC25
 2999 0408 24000000 		.word	.LC34
 3000 040c 38000000 		.word	.LC35
 3001 0410 48000000 		.word	.LC36
 3002              		.cfi_endproc
 3003              	.LFE80:
 3005              		.section	.text.ResetFilterTimeEvt,"ax",%progbits
 3006              		.align	1
 3007              		.global	ResetFilterTimeEvt
 3008              		.syntax unified
 3009              		.thumb
 3010              		.thumb_func
 3011              		.fpu softvfp
 3013              	ResetFilterTimeEvt:
 3014              	.LFB81:
 619:Src/menu_handler.c **** 
 620:Src/menu_handler.c **** uint16_t ResetFilterTimeEvt(uint8_t add, uint16_t key)
 621:Src/menu_handler.c **** {
 3015              		.loc 1 621 0
 3016              		.cfi_startproc
 3017              		@ args = 0, pretend = 0, frame = 0
 3018              		@ frame_needed = 0, uses_anonymous_args = 0
 3019              	.LVL247:
 3020 0000 F0B5     		push	{r4, r5, r6, r7, lr}
 3021              	.LCFI19:
 3022              		.cfi_def_cfa_offset 20
 3023              		.cfi_offset 4, -20
 3024              		.cfi_offset 5, -16
 3025              		.cfi_offset 6, -12
 3026              		.cfi_offset 7, -8
 3027              		.cfi_offset 14, -4
 3028 0002 83B0     		sub	sp, sp, #12
 3029              	.LCFI20:
 3030              		.cfi_def_cfa_offset 32
 3031 0004 0546     		mov	r5, r0
 3032 0006 0C46     		mov	r4, r1
 622:Src/menu_handler.c ****   memset(buff, 0, sizeof(buff));
 3033              		.loc 1 622 0
 3034 0008 5A22     		movs	r2, #90
 3035 000a 0021     		movs	r1, #0
 3036              	.LVL248:
ARM GAS  /var/folders/rk/zpr83dd14lx588t7kb0yv2b40000gn/T//cc3igAjz.s 			page 68


 3037 000c A548     		ldr	r0, .L193
 3038              	.LVL249:
 3039 000e FFF7FEFF 		bl	memset
 3040              	.LVL250:
 623:Src/menu_handler.c ****   if(treeView[add].keyMode != menuIdxLast)
 3041              		.loc 1 623 0
 3042 0012 6420     		movs	r0, #100
 3043 0014 00FB05F0 		mul	r0, r0, r5
 3044 0018 A34B     		ldr	r3, .L193+4
 3045 001a 1A5A     		ldrh	r2, [r3, r0]
 3046 001c A34B     		ldr	r3, .L193+8
 3047 001e 1B88     		ldrh	r3, [r3]
 3048 0020 9A42     		cmp	r2, r3
 3049 0022 0CD0     		beq	.L166
 624:Src/menu_handler.c ****   {
 625:Src/menu_handler.c ****     menuValueSet = 0;
 3050              		.loc 1 625 0
 3051 0024 0023     		movs	r3, #0
 3052 0026 A24A     		ldr	r2, .L193+12
 3053 0028 1380     		strh	r3, [r2]	@ movhi
 626:Src/menu_handler.c ****     menuCursor = 0;
 3054              		.loc 1 626 0
 3055 002a A24A     		ldr	r2, .L193+16
 3056 002c 1380     		strh	r3, [r2]	@ movhi
 627:Src/menu_handler.c ****     nghin = tram = chuc = dv = 0;
 3057              		.loc 1 627 0
 3058 002e A24A     		ldr	r2, .L193+20
 3059 0030 1370     		strb	r3, [r2]
 3060 0032 A24A     		ldr	r2, .L193+24
 3061 0034 1370     		strb	r3, [r2]
 3062 0036 A24A     		ldr	r2, .L193+28
 3063 0038 1370     		strb	r3, [r2]
 3064 003a A24A     		ldr	r2, .L193+32
 3065 003c 1370     		strb	r3, [r2]
 3066              	.L166:
 628:Src/menu_handler.c ****   }
 629:Src/menu_handler.c ****   if(key == BTN_NEXT)
 3067              		.loc 1 629 0
 3068 003e 032C     		cmp	r4, #3
 3069 0040 08D0     		beq	.L189
 3070              	.L167:
 630:Src/menu_handler.c ****   {
 631:Src/menu_handler.c ****     if(++menuCursor > 3) menuCursor = 0;
 632:Src/menu_handler.c ****   }
 633:Src/menu_handler.c **** 
 634:Src/menu_handler.c ****   if(key == BTN_UP)
 3071              		.loc 1 634 0
 3072 0042 CCB9     		cbnz	r4, .L168
 635:Src/menu_handler.c ****   {
 636:Src/menu_handler.c ****     switch(menuCursor)
 3073              		.loc 1 636 0
 3074 0044 9B4B     		ldr	r3, .L193+16
 3075 0046 1B88     		ldrh	r3, [r3]
 3076 0048 032B     		cmp	r3, #3
 3077 004a 15D8     		bhi	.L168
 3078 004c DFE803F0 		tbb	[pc, r3]
 3079              	.L170:
ARM GAS  /var/folders/rk/zpr83dd14lx588t7kb0yv2b40000gn/T//cc3igAjz.s 			page 69


 3080 0050 0D       		.byte	(.L169-.L170)/2
 3081 0051 2B       		.byte	(.L171-.L170)/2
 3082 0052 33       		.byte	(.L172-.L170)/2
 3083 0053 3B       		.byte	(.L173-.L170)/2
 3084              		.p2align 1
 3085              	.L189:
 631:Src/menu_handler.c ****   }
 3086              		.loc 1 631 0
 3087 0054 974A     		ldr	r2, .L193+16
 3088 0056 1388     		ldrh	r3, [r2]
 3089 0058 0133     		adds	r3, r3, #1
 3090 005a 9BB2     		uxth	r3, r3
 3091 005c 1380     		strh	r3, [r2]	@ movhi
 3092 005e 032B     		cmp	r3, #3
 3093 0060 EFD9     		bls	.L167
 631:Src/menu_handler.c ****   }
 3094              		.loc 1 631 0 is_stmt 0 discriminator 1
 3095 0062 1346     		mov	r3, r2
 3096 0064 0022     		movs	r2, #0
 3097 0066 1A80     		strh	r2, [r3]	@ movhi
 3098 0068 EBE7     		b	.L167
 3099              	.L169:
 637:Src/menu_handler.c ****     {
 638:Src/menu_handler.c ****       case 0:
 639:Src/menu_handler.c ****         if(nghin < 9) nghin++;
 3100              		.loc 1 639 0 is_stmt 1
 3101 006a 964B     		ldr	r3, .L193+32
 3102 006c 1B78     		ldrb	r3, [r3]	@ zero_extendqisi2
 3103 006e 082B     		cmp	r3, #8
 3104 0070 02D8     		bhi	.L168
 3105              		.loc 1 639 0 is_stmt 0 discriminator 1
 3106 0072 0133     		adds	r3, r3, #1
 3107 0074 934A     		ldr	r2, .L193+32
 3108 0076 1370     		strb	r3, [r2]
 3109              	.L168:
 640:Src/menu_handler.c ****         break;
 641:Src/menu_handler.c ****       case 1:
 642:Src/menu_handler.c ****         if(tram < 9) tram++;
 643:Src/menu_handler.c ****         break;
 644:Src/menu_handler.c ****       case 2:
 645:Src/menu_handler.c ****         if(chuc < 9) chuc++;
 646:Src/menu_handler.c ****         break;
 647:Src/menu_handler.c ****       case 3:
 648:Src/menu_handler.c ****         if(dv < 9) dv++;
 649:Src/menu_handler.c ****         break;
 650:Src/menu_handler.c ****     }
 651:Src/menu_handler.c ****   }
 652:Src/menu_handler.c ****   if(key == BTN_DOWN)
 3110              		.loc 1 652 0 is_stmt 1
 3111 0078 012C     		cmp	r4, #1
 3112 007a 2CD0     		beq	.L190
 3113              	.L174:
 653:Src/menu_handler.c ****   {
 654:Src/menu_handler.c ****     switch(menuCursor)
 655:Src/menu_handler.c ****     {
 656:Src/menu_handler.c ****       case 0:
 657:Src/menu_handler.c ****         if(nghin > 0) nghin--;
ARM GAS  /var/folders/rk/zpr83dd14lx588t7kb0yv2b40000gn/T//cc3igAjz.s 			page 70


 658:Src/menu_handler.c ****         break;
 659:Src/menu_handler.c ****       case 1:
 660:Src/menu_handler.c ****         if(tram > 0) tram--;
 661:Src/menu_handler.c ****         break;
 662:Src/menu_handler.c ****       case 2:
 663:Src/menu_handler.c ****         if(chuc > 0) chuc--;
 664:Src/menu_handler.c ****         break;
 665:Src/menu_handler.c ****       case 3:
 666:Src/menu_handler.c ****         if(dv > 0) dv--;
 667:Src/menu_handler.c ****         break;
 668:Src/menu_handler.c ****     }
 669:Src/menu_handler.c ****   }
 670:Src/menu_handler.c ****   u8g2_SetFont(&u8g2, u8g2_font_6x12_mf);
 3114              		.loc 1 670 0
 3115 007c 924D     		ldr	r5, .L193+36
 3116 007e 9349     		ldr	r1, .L193+40
 3117 0080 2846     		mov	r0, r5
 3118 0082 FFF7FEFF 		bl	u8g2_SetFont
 3119              	.LVL251:
 671:Src/menu_handler.c ****   u8g2_DrawStr(&u8g2,((22 - strlen("Enter Password!"))/2)*6, 24, "Enter Password!");
 3120              		.loc 1 671 0
 3121 0086 924B     		ldr	r3, .L193+44
 3122 0088 1822     		movs	r2, #24
 3123 008a 1221     		movs	r1, #18
 3124 008c 2846     		mov	r0, r5
 3125 008e FFF7FEFF 		bl	u8g2_DrawStr
 3126              	.LVL252:
 672:Src/menu_handler.c ****   switch(menuCursor)
 3127              		.loc 1 672 0
 3128 0092 884B     		ldr	r3, .L193+16
 3129 0094 1B88     		ldrh	r3, [r3]
 3130 0096 032B     		cmp	r3, #3
 3131 0098 70D8     		bhi	.L180
 3132 009a DFE813F0 		tbh	[pc, r3, lsl #1]
 3133              	.L182:
 3134 009e 4400     		.2byte	(.L181-.L182)/2
 3135 00a0 9700     		.2byte	(.L183-.L182)/2
 3136 00a2 CD00     		.2byte	(.L184-.L182)/2
 3137 00a4 2301     		.2byte	(.L185-.L182)/2
 3138              		.p2align 1
 3139              	.L171:
 642:Src/menu_handler.c ****         break;
 3140              		.loc 1 642 0
 3141 00a6 864B     		ldr	r3, .L193+28
 3142 00a8 1B78     		ldrb	r3, [r3]	@ zero_extendqisi2
 3143 00aa 082B     		cmp	r3, #8
 3144 00ac E4D8     		bhi	.L168
 642:Src/menu_handler.c ****         break;
 3145              		.loc 1 642 0 is_stmt 0 discriminator 1
 3146 00ae 0133     		adds	r3, r3, #1
 3147 00b0 834A     		ldr	r2, .L193+28
 3148 00b2 1370     		strb	r3, [r2]
 3149 00b4 E0E7     		b	.L168
 3150              	.L172:
 645:Src/menu_handler.c ****         break;
 3151              		.loc 1 645 0 is_stmt 1
 3152 00b6 814B     		ldr	r3, .L193+24
ARM GAS  /var/folders/rk/zpr83dd14lx588t7kb0yv2b40000gn/T//cc3igAjz.s 			page 71


 3153 00b8 1B78     		ldrb	r3, [r3]	@ zero_extendqisi2
 3154 00ba 082B     		cmp	r3, #8
 3155 00bc DCD8     		bhi	.L168
 645:Src/menu_handler.c ****         break;
 3156              		.loc 1 645 0 is_stmt 0 discriminator 1
 3157 00be 0133     		adds	r3, r3, #1
 3158 00c0 7E4A     		ldr	r2, .L193+24
 3159 00c2 1370     		strb	r3, [r2]
 3160 00c4 D8E7     		b	.L168
 3161              	.L173:
 648:Src/menu_handler.c ****         break;
 3162              		.loc 1 648 0 is_stmt 1
 3163 00c6 7C4B     		ldr	r3, .L193+20
 3164 00c8 1B78     		ldrb	r3, [r3]	@ zero_extendqisi2
 3165 00ca 082B     		cmp	r3, #8
 3166 00cc D4D8     		bhi	.L168
 648:Src/menu_handler.c ****         break;
 3167              		.loc 1 648 0 is_stmt 0 discriminator 1
 3168 00ce 0133     		adds	r3, r3, #1
 3169 00d0 794A     		ldr	r2, .L193+20
 3170 00d2 1370     		strb	r3, [r2]
 3171 00d4 D0E7     		b	.L168
 3172              	.L190:
 654:Src/menu_handler.c ****     {
 3173              		.loc 1 654 0 is_stmt 1
 3174 00d6 774B     		ldr	r3, .L193+16
 3175 00d8 1B88     		ldrh	r3, [r3]
 3176 00da 032B     		cmp	r3, #3
 3177 00dc CED8     		bhi	.L174
 3178 00de DFE803F0 		tbb	[pc, r3]
 3179              	.L176:
 3180 00e2 02       		.byte	(.L175-.L176)/2
 3181 00e3 0A       		.byte	(.L177-.L176)/2
 3182 00e4 12       		.byte	(.L178-.L176)/2
 3183 00e5 1A       		.byte	(.L179-.L176)/2
 3184              		.p2align 1
 3185              	.L175:
 657:Src/menu_handler.c ****         break;
 3186              		.loc 1 657 0
 3187 00e6 774B     		ldr	r3, .L193+32
 3188 00e8 1B78     		ldrb	r3, [r3]	@ zero_extendqisi2
 3189 00ea 002B     		cmp	r3, #0
 3190 00ec C6D0     		beq	.L174
 657:Src/menu_handler.c ****         break;
 3191              		.loc 1 657 0 is_stmt 0 discriminator 1
 3192 00ee 013B     		subs	r3, r3, #1
 3193 00f0 744A     		ldr	r2, .L193+32
 3194 00f2 1370     		strb	r3, [r2]
 3195 00f4 C2E7     		b	.L174
 3196              	.L177:
 660:Src/menu_handler.c ****         break;
 3197              		.loc 1 660 0 is_stmt 1
 3198 00f6 724B     		ldr	r3, .L193+28
 3199 00f8 1B78     		ldrb	r3, [r3]	@ zero_extendqisi2
 3200 00fa 002B     		cmp	r3, #0
 3201 00fc BED0     		beq	.L174
 660:Src/menu_handler.c ****         break;
ARM GAS  /var/folders/rk/zpr83dd14lx588t7kb0yv2b40000gn/T//cc3igAjz.s 			page 72


 3202              		.loc 1 660 0 is_stmt 0 discriminator 1
 3203 00fe 013B     		subs	r3, r3, #1
 3204 0100 6F4A     		ldr	r2, .L193+28
 3205 0102 1370     		strb	r3, [r2]
 3206 0104 BAE7     		b	.L174
 3207              	.L178:
 663:Src/menu_handler.c ****         break;
 3208              		.loc 1 663 0 is_stmt 1
 3209 0106 6D4B     		ldr	r3, .L193+24
 3210 0108 1B78     		ldrb	r3, [r3]	@ zero_extendqisi2
 3211 010a 002B     		cmp	r3, #0
 3212 010c B6D0     		beq	.L174
 663:Src/menu_handler.c ****         break;
 3213              		.loc 1 663 0 is_stmt 0 discriminator 1
 3214 010e 013B     		subs	r3, r3, #1
 3215 0110 6A4A     		ldr	r2, .L193+24
 3216 0112 1370     		strb	r3, [r2]
 3217 0114 B2E7     		b	.L174
 3218              	.L179:
 666:Src/menu_handler.c ****         break;
 3219              		.loc 1 666 0 is_stmt 1
 3220 0116 684B     		ldr	r3, .L193+20
 3221 0118 1B78     		ldrb	r3, [r3]	@ zero_extendqisi2
 3222 011a 002B     		cmp	r3, #0
 3223 011c AED0     		beq	.L174
 666:Src/menu_handler.c ****         break;
 3224              		.loc 1 666 0 is_stmt 0 discriminator 1
 3225 011e 013B     		subs	r3, r3, #1
 3226 0120 654A     		ldr	r2, .L193+20
 3227 0122 1370     		strb	r3, [r2]
 3228 0124 AAE7     		b	.L174
 3229              	.L181:
 673:Src/menu_handler.c ****   {
 674:Src/menu_handler.c ****     case 0:
 675:Src/menu_handler.c ****       u8g2_SetFont(&u8g2, u8g2_font_6x12_mf);
 3230              		.loc 1 675 0 is_stmt 1
 3231 0126 684D     		ldr	r5, .L193+36
 3232 0128 6849     		ldr	r1, .L193+40
 3233 012a 2846     		mov	r0, r5
 3234 012c FFF7FEFF 		bl	u8g2_SetFont
 3235              	.LVL253:
 676:Src/menu_handler.c ****       u8g2_SetDrawColor(&u8g2, 0);
 3236              		.loc 1 676 0
 3237 0130 0021     		movs	r1, #0
 3238 0132 2846     		mov	r0, r5
 3239 0134 FFF7FEFF 		bl	u8g2_SetDrawColor
 3240              	.LVL254:
 677:Src/menu_handler.c ****       sprintf((char*)buff, "%d", nghin);
 3241              		.loc 1 677 0
 3242 0138 5A4E     		ldr	r6, .L193
 3243 013a 624B     		ldr	r3, .L193+32
 3244 013c 1A78     		ldrb	r2, [r3]	@ zero_extendqisi2
 3245 013e 6549     		ldr	r1, .L193+48
 3246 0140 3046     		mov	r0, r6
 3247 0142 FFF7FEFF 		bl	sprintf
 3248              	.LVL255:
 678:Src/menu_handler.c ****       u8g2_DrawStr(&u8g2, 48, 36, buff);
ARM GAS  /var/folders/rk/zpr83dd14lx588t7kb0yv2b40000gn/T//cc3igAjz.s 			page 73


 3249              		.loc 1 678 0
 3250 0146 3346     		mov	r3, r6
 3251 0148 2422     		movs	r2, #36
 3252 014a 3021     		movs	r1, #48
 3253 014c 2846     		mov	r0, r5
 3254 014e FFF7FEFF 		bl	u8g2_DrawStr
 3255              	.LVL256:
 679:Src/menu_handler.c ****       u8g2_SetDrawColor(&u8g2, 1);
 3256              		.loc 1 679 0
 3257 0152 0121     		movs	r1, #1
 3258 0154 2846     		mov	r0, r5
 3259 0156 FFF7FEFF 		bl	u8g2_SetDrawColor
 3260              	.LVL257:
 680:Src/menu_handler.c **** 
 681:Src/menu_handler.c ****       sprintf((char*)buff, "%d%d%d", tram, chuc, dv);
 3261              		.loc 1 681 0
 3262 015a 584B     		ldr	r3, .L193+24
 3263 015c 1B78     		ldrb	r3, [r3]	@ zero_extendqisi2
 3264 015e 584A     		ldr	r2, .L193+28
 3265 0160 1278     		ldrb	r2, [r2]	@ zero_extendqisi2
 3266 0162 5549     		ldr	r1, .L193+20
 3267 0164 0978     		ldrb	r1, [r1]	@ zero_extendqisi2
 3268 0166 0091     		str	r1, [sp]
 3269 0168 5B49     		ldr	r1, .L193+52
 3270 016a 3046     		mov	r0, r6
 3271 016c FFF7FEFF 		bl	sprintf
 3272              	.LVL258:
 682:Src/menu_handler.c ****       u8g2_DrawStr(&u8g2, 48 + 6, 36, buff);
 3273              		.loc 1 682 0
 3274 0170 3346     		mov	r3, r6
 3275 0172 2422     		movs	r2, #36
 3276 0174 3621     		movs	r1, #54
 3277 0176 2846     		mov	r0, r5
 3278 0178 FFF7FEFF 		bl	u8g2_DrawStr
 3279              	.LVL259:
 3280              	.L180:
 683:Src/menu_handler.c ****       break;
 684:Src/menu_handler.c ****     case 1:
 685:Src/menu_handler.c ****       u8g2_SetFont(&u8g2, u8g2_font_6x12_mf);
 686:Src/menu_handler.c ****       sprintf((char*)buff, "%d", nghin);
 687:Src/menu_handler.c ****       u8g2_DrawStr(&u8g2, 48, 36, buff);
 688:Src/menu_handler.c ****       /* blink minutes */
 689:Src/menu_handler.c ****       u8g2_SetDrawColor(&u8g2, 0);
 690:Src/menu_handler.c ****       sprintf((char*)buff, "%d", tram);
 691:Src/menu_handler.c ****       u8g2_DrawStr(&u8g2, 48 + 6, 36, buff);
 692:Src/menu_handler.c ****       u8g2_SetDrawColor(&u8g2, 1);
 693:Src/menu_handler.c **** 
 694:Src/menu_handler.c ****       sprintf((char*)buff, "%d%d", chuc, dv);
 695:Src/menu_handler.c ****       u8g2_DrawStr(&u8g2, 48 + 12, 36, buff);
 696:Src/menu_handler.c ****       break;
 697:Src/menu_handler.c ****     case 2:
 698:Src/menu_handler.c ****       u8g2_SetFont(&u8g2, u8g2_font_6x12_mf);
 699:Src/menu_handler.c ****       sprintf((char*)buff, "%d%d", nghin, tram);
 700:Src/menu_handler.c ****       u8g2_DrawStr(&u8g2, 48, 36, buff);
 701:Src/menu_handler.c **** 
 702:Src/menu_handler.c ****       u8g2_SetDrawColor(&u8g2, 0);
 703:Src/menu_handler.c ****       sprintf((char*)buff, "%d", chuc);
ARM GAS  /var/folders/rk/zpr83dd14lx588t7kb0yv2b40000gn/T//cc3igAjz.s 			page 74


 704:Src/menu_handler.c ****       u8g2_DrawStr(&u8g2, 48 + 12, 36, buff);
 705:Src/menu_handler.c ****       u8g2_SetDrawColor(&u8g2, 1);
 706:Src/menu_handler.c ****       sprintf((char*)buff, "%d", dv);
 707:Src/menu_handler.c ****       u8g2_DrawStr(&u8g2, 48 + 18, 36, buff);
 708:Src/menu_handler.c ****       break;
 709:Src/menu_handler.c ****     case 3:
 710:Src/menu_handler.c ****       u8g2_SetFont(&u8g2, u8g2_font_6x12_mf);
 711:Src/menu_handler.c ****       sprintf((char*)buff, "%d%d%d", nghin, tram, chuc);
 712:Src/menu_handler.c ****       u8g2_DrawStr(&u8g2, 48, 36, buff);
 713:Src/menu_handler.c **** 
 714:Src/menu_handler.c ****       u8g2_SetDrawColor(&u8g2, 0);
 715:Src/menu_handler.c ****       sprintf((char*)buff, "%d", dv);
 716:Src/menu_handler.c ****       u8g2_DrawStr(&u8g2, 48 + 18, 36, buff);
 717:Src/menu_handler.c ****       u8g2_SetDrawColor(&u8g2, 1);
 718:Src/menu_handler.c ****       break;
 719:Src/menu_handler.c ****   }
 720:Src/menu_handler.c ****   // sprintf((char*)buff, "%04d", menuValueSet);
 721:Src/menu_handler.c ****   // u8g2_SetFont(&u8g2, u8g2_font_6x12_mf);
 722:Src/menu_handler.c ****   // u8g2_DrawStr(&u8g2, ((22 - strlen(buff))/2)*6, 36, buff);
 723:Src/menu_handler.c ****   menuValueSet = nghin*1000 + tram*100 + chuc*10 + dv;
 3281              		.loc 1 723 0
 3282 017c 514B     		ldr	r3, .L193+32
 3283 017e 1B78     		ldrb	r3, [r3]	@ zero_extendqisi2
 3284 0180 C3EB4312 		rsb	r2, r3, r3, lsl #5
 3285 0184 03EB8202 		add	r2, r3, r2, lsl #2
 3286 0188 D300     		lsls	r3, r2, #3
 3287 018a 4D4A     		ldr	r2, .L193+28
 3288 018c 1278     		ldrb	r2, [r2]	@ zero_extendqisi2
 3289 018e 02EB8202 		add	r2, r2, r2, lsl #2
 3290 0192 02EB8202 		add	r2, r2, r2, lsl #2
 3291 0196 9100     		lsls	r1, r2, #2
 3292 0198 0B44     		add	r3, r3, r1
 3293 019a 9BB2     		uxth	r3, r3
 3294 019c 474A     		ldr	r2, .L193+24
 3295 019e 1278     		ldrb	r2, [r2]	@ zero_extendqisi2
 3296 01a0 02EB8202 		add	r2, r2, r2, lsl #2
 3297 01a4 5100     		lsls	r1, r2, #1
 3298 01a6 0B44     		add	r3, r3, r1
 3299 01a8 9BB2     		uxth	r3, r3
 3300 01aa 434A     		ldr	r2, .L193+20
 3301 01ac 1278     		ldrb	r2, [r2]	@ zero_extendqisi2
 3302 01ae 1344     		add	r3, r3, r2
 3303 01b0 9BB2     		uxth	r3, r3
 3304 01b2 3F4A     		ldr	r2, .L193+12
 3305 01b4 1380     		strh	r3, [r2]	@ movhi
 724:Src/menu_handler.c ****   if(menuValueSet == sys_cfg.passWord)
 3306              		.loc 1 724 0
 3307 01b6 494A     		ldr	r2, .L193+56
 3308 01b8 1289     		ldrh	r2, [r2, #8]
 3309 01ba 9342     		cmp	r3, r2
 3310 01bc 00F0BE80 		beq	.L191
 725:Src/menu_handler.c ****   {
 726:Src/menu_handler.c ****     if(key == BTN_MENU)
 727:Src/menu_handler.c ****     {
 728:Src/menu_handler.c ****       sys.FilterTime = 0;
 729:Src/menu_handler.c ****       Save_SysTime_BKUP();
 730:Src/menu_handler.c ****       CFG_Save();
ARM GAS  /var/folders/rk/zpr83dd14lx588t7kb0yv2b40000gn/T//cc3igAjz.s 			page 75


 731:Src/menu_handler.c ****       sprintf((char*)buff, "%04d Hours", sys.FilterTime); 
 732:Src/menu_handler.c ****       u8g2_DrawStr(&u8g2,((22 - strlen(buff))/2)*6, 36, buff);
 733:Src/menu_handler.c ****       sprintf((char*)buff, "\4 Reset UV Time!\n");
 734:Src/menu_handler.c ****       u8g2_DrawStr(&u8g2,((22 - strlen("Reset UV Time!"))/2)*6, 48, "Reset UV Time!");
 735:Src/menu_handler.c ****     }
 736:Src/menu_handler.c ****   }
 737:Src/menu_handler.c ****   else
 738:Src/menu_handler.c ****   {
 739:Src/menu_handler.c ****     if(key == BTN_MENU)
 3311              		.loc 1 739 0
 3312 01c0 042C     		cmp	r4, #4
 3313 01c2 00F0EB80 		beq	.L192
 3314              	.L187:
 740:Src/menu_handler.c ****     {
 741:Src/menu_handler.c ****       sys.FilterTime = sys.FilterTime;
 742:Src/menu_handler.c ****       sprintf((char*)buff, "%04d Hours", sys.FilterTime);
 743:Src/menu_handler.c ****       u8g2_DrawStr(&u8g2,((22 - strlen(buff))/2)*6, 36, buff);
 744:Src/menu_handler.c ****       u8g2_DrawStr(&u8g2,((22 - strlen("Wrong Password!"))/2)*6, 48, "Wrong Password!");
 745:Src/menu_handler.c ****     }
 746:Src/menu_handler.c ****   }
 747:Src/menu_handler.c ****   return 0;
 748:Src/menu_handler.c **** }
 3315              		.loc 1 748 0
 3316 01c6 0020     		movs	r0, #0
 3317 01c8 03B0     		add	sp, sp, #12
 3318              	.LCFI21:
 3319              		.cfi_remember_state
 3320              		.cfi_def_cfa_offset 20
 3321              		@ sp needed
 3322 01ca F0BD     		pop	{r4, r5, r6, r7, pc}
 3323              	.L183:
 3324              	.LCFI22:
 3325              		.cfi_restore_state
 685:Src/menu_handler.c ****       sprintf((char*)buff, "%d", nghin);
 3326              		.loc 1 685 0
 3327 01cc 3E4D     		ldr	r5, .L193+36
 3328 01ce 3F49     		ldr	r1, .L193+40
 3329 01d0 2846     		mov	r0, r5
 3330 01d2 FFF7FEFF 		bl	u8g2_SetFont
 3331              	.LVL260:
 686:Src/menu_handler.c ****       u8g2_DrawStr(&u8g2, 48, 36, buff);
 3332              		.loc 1 686 0
 3333 01d6 3F4F     		ldr	r7, .L193+48
 3334 01d8 324E     		ldr	r6, .L193
 3335 01da 3A4B     		ldr	r3, .L193+32
 3336 01dc 1A78     		ldrb	r2, [r3]	@ zero_extendqisi2
 3337 01de 3946     		mov	r1, r7
 3338 01e0 3046     		mov	r0, r6
 3339 01e2 FFF7FEFF 		bl	sprintf
 3340              	.LVL261:
 687:Src/menu_handler.c ****       /* blink minutes */
 3341              		.loc 1 687 0
 3342 01e6 3346     		mov	r3, r6
 3343 01e8 2422     		movs	r2, #36
 3344 01ea 3021     		movs	r1, #48
 3345 01ec 2846     		mov	r0, r5
 3346 01ee FFF7FEFF 		bl	u8g2_DrawStr
ARM GAS  /var/folders/rk/zpr83dd14lx588t7kb0yv2b40000gn/T//cc3igAjz.s 			page 76


 3347              	.LVL262:
 689:Src/menu_handler.c ****       sprintf((char*)buff, "%d", tram);
 3348              		.loc 1 689 0
 3349 01f2 0021     		movs	r1, #0
 3350 01f4 2846     		mov	r0, r5
 3351 01f6 FFF7FEFF 		bl	u8g2_SetDrawColor
 3352              	.LVL263:
 690:Src/menu_handler.c ****       u8g2_DrawStr(&u8g2, 48 + 6, 36, buff);
 3353              		.loc 1 690 0
 3354 01fa 314B     		ldr	r3, .L193+28
 3355 01fc 1A78     		ldrb	r2, [r3]	@ zero_extendqisi2
 3356 01fe 3946     		mov	r1, r7
 3357 0200 3046     		mov	r0, r6
 3358 0202 FFF7FEFF 		bl	sprintf
 3359              	.LVL264:
 691:Src/menu_handler.c ****       u8g2_SetDrawColor(&u8g2, 1);
 3360              		.loc 1 691 0
 3361 0206 3346     		mov	r3, r6
 3362 0208 2422     		movs	r2, #36
 3363 020a 3621     		movs	r1, #54
 3364 020c 2846     		mov	r0, r5
 3365 020e FFF7FEFF 		bl	u8g2_DrawStr
 3366              	.LVL265:
 692:Src/menu_handler.c **** 
 3367              		.loc 1 692 0
 3368 0212 0121     		movs	r1, #1
 3369 0214 2846     		mov	r0, r5
 3370 0216 FFF7FEFF 		bl	u8g2_SetDrawColor
 3371              	.LVL266:
 694:Src/menu_handler.c ****       u8g2_DrawStr(&u8g2, 48 + 12, 36, buff);
 3372              		.loc 1 694 0
 3373 021a 274B     		ldr	r3, .L193+20
 3374 021c 1B78     		ldrb	r3, [r3]	@ zero_extendqisi2
 3375 021e 274A     		ldr	r2, .L193+24
 3376 0220 1278     		ldrb	r2, [r2]	@ zero_extendqisi2
 3377 0222 2F49     		ldr	r1, .L193+60
 3378 0224 3046     		mov	r0, r6
 3379 0226 FFF7FEFF 		bl	sprintf
 3380              	.LVL267:
 695:Src/menu_handler.c ****       break;
 3381              		.loc 1 695 0
 3382 022a 3346     		mov	r3, r6
 3383 022c 2422     		movs	r2, #36
 3384 022e 3C21     		movs	r1, #60
 3385 0230 2846     		mov	r0, r5
 3386 0232 FFF7FEFF 		bl	u8g2_DrawStr
 3387              	.LVL268:
 696:Src/menu_handler.c ****     case 2:
 3388              		.loc 1 696 0
 3389 0236 A1E7     		b	.L180
 3390              	.L184:
 698:Src/menu_handler.c ****       sprintf((char*)buff, "%d%d", nghin, tram);
 3391              		.loc 1 698 0
 3392 0238 234D     		ldr	r5, .L193+36
 3393 023a 2449     		ldr	r1, .L193+40
 3394 023c 2846     		mov	r0, r5
 3395 023e FFF7FEFF 		bl	u8g2_SetFont
ARM GAS  /var/folders/rk/zpr83dd14lx588t7kb0yv2b40000gn/T//cc3igAjz.s 			page 77


 3396              	.LVL269:
 699:Src/menu_handler.c ****       u8g2_DrawStr(&u8g2, 48, 36, buff);
 3397              		.loc 1 699 0
 3398 0242 184E     		ldr	r6, .L193
 3399 0244 1E4B     		ldr	r3, .L193+28
 3400 0246 1B78     		ldrb	r3, [r3]	@ zero_extendqisi2
 3401 0248 1E4A     		ldr	r2, .L193+32
 3402 024a 1278     		ldrb	r2, [r2]	@ zero_extendqisi2
 3403 024c 2449     		ldr	r1, .L193+60
 3404 024e 3046     		mov	r0, r6
 3405 0250 FFF7FEFF 		bl	sprintf
 3406              	.LVL270:
 700:Src/menu_handler.c **** 
 3407              		.loc 1 700 0
 3408 0254 3346     		mov	r3, r6
 3409 0256 2422     		movs	r2, #36
 3410 0258 3021     		movs	r1, #48
 3411 025a 2846     		mov	r0, r5
 3412 025c FFF7FEFF 		bl	u8g2_DrawStr
 3413              	.LVL271:
 702:Src/menu_handler.c ****       sprintf((char*)buff, "%d", chuc);
 3414              		.loc 1 702 0
 3415 0260 0021     		movs	r1, #0
 3416 0262 2846     		mov	r0, r5
 3417 0264 FFF7FEFF 		bl	u8g2_SetDrawColor
 3418              	.LVL272:
 703:Src/menu_handler.c ****       u8g2_DrawStr(&u8g2, 48 + 12, 36, buff);
 3419              		.loc 1 703 0
 3420 0268 1A4F     		ldr	r7, .L193+48
 3421 026a 144B     		ldr	r3, .L193+24
 3422 026c 1A78     		ldrb	r2, [r3]	@ zero_extendqisi2
 3423 026e 3946     		mov	r1, r7
 3424 0270 3046     		mov	r0, r6
 3425 0272 FFF7FEFF 		bl	sprintf
 3426              	.LVL273:
 704:Src/menu_handler.c ****       u8g2_SetDrawColor(&u8g2, 1);
 3427              		.loc 1 704 0
 3428 0276 3346     		mov	r3, r6
 3429 0278 2422     		movs	r2, #36
 3430 027a 3C21     		movs	r1, #60
 3431 027c 2846     		mov	r0, r5
 3432 027e FFF7FEFF 		bl	u8g2_DrawStr
 3433              	.LVL274:
 705:Src/menu_handler.c ****       sprintf((char*)buff, "%d", dv);
 3434              		.loc 1 705 0
 3435 0282 0121     		movs	r1, #1
 3436 0284 2846     		mov	r0, r5
 3437 0286 FFF7FEFF 		bl	u8g2_SetDrawColor
 3438              	.LVL275:
 706:Src/menu_handler.c ****       u8g2_DrawStr(&u8g2, 48 + 18, 36, buff);
 3439              		.loc 1 706 0
 3440 028a 0B4B     		ldr	r3, .L193+20
 3441 028c 1A78     		ldrb	r2, [r3]	@ zero_extendqisi2
 3442 028e 3946     		mov	r1, r7
 3443 0290 3046     		mov	r0, r6
 3444 0292 FFF7FEFF 		bl	sprintf
 3445              	.LVL276:
ARM GAS  /var/folders/rk/zpr83dd14lx588t7kb0yv2b40000gn/T//cc3igAjz.s 			page 78


 707:Src/menu_handler.c ****       break;
 3446              		.loc 1 707 0
 3447 0296 3346     		mov	r3, r6
 3448 0298 2422     		movs	r2, #36
 3449 029a 4221     		movs	r1, #66
 3450 029c 2846     		mov	r0, r5
 3451 029e FFF7FEFF 		bl	u8g2_DrawStr
 3452              	.LVL277:
 708:Src/menu_handler.c ****     case 3:
 3453              		.loc 1 708 0
 3454 02a2 6BE7     		b	.L180
 3455              	.L194:
 3456              		.align	2
 3457              	.L193:
 3458 02a4 00000000 		.word	buff
 3459 02a8 00000000 		.word	treeView
 3460 02ac 00000000 		.word	menuIdxLast
 3461 02b0 00000000 		.word	menuValueSet
 3462 02b4 00000000 		.word	menuCursor
 3463 02b8 00000000 		.word	dv
 3464 02bc 00000000 		.word	chuc
 3465 02c0 00000000 		.word	tram
 3466 02c4 00000000 		.word	nghin
 3467 02c8 00000000 		.word	u8g2
 3468 02cc 00000000 		.word	u8g2_font_6x12_mf
 3469 02d0 00000000 		.word	.LC30
 3470 02d4 10000000 		.word	.LC31
 3471 02d8 14000000 		.word	.LC32
 3472 02dc 00000000 		.word	sys_cfg
 3473 02e0 1C000000 		.word	.LC33
 3474              	.L185:
 710:Src/menu_handler.c ****       sprintf((char*)buff, "%d%d%d", nghin, tram, chuc);
 3475              		.loc 1 710 0
 3476 02e4 3D4D     		ldr	r5, .L195
 3477 02e6 3E49     		ldr	r1, .L195+4
 3478 02e8 2846     		mov	r0, r5
 3479 02ea FFF7FEFF 		bl	u8g2_SetFont
 3480              	.LVL278:
 711:Src/menu_handler.c ****       u8g2_DrawStr(&u8g2, 48, 36, buff);
 3481              		.loc 1 711 0
 3482 02ee 3D4B     		ldr	r3, .L195+8
 3483 02f0 1B78     		ldrb	r3, [r3]	@ zero_extendqisi2
 3484 02f2 3D4A     		ldr	r2, .L195+12
 3485 02f4 1278     		ldrb	r2, [r2]	@ zero_extendqisi2
 3486 02f6 3D4E     		ldr	r6, .L195+16
 3487 02f8 3D49     		ldr	r1, .L195+20
 3488 02fa 0978     		ldrb	r1, [r1]	@ zero_extendqisi2
 3489 02fc 0091     		str	r1, [sp]
 3490 02fe 3D49     		ldr	r1, .L195+24
 3491 0300 3046     		mov	r0, r6
 3492 0302 FFF7FEFF 		bl	sprintf
 3493              	.LVL279:
 712:Src/menu_handler.c **** 
 3494              		.loc 1 712 0
 3495 0306 3346     		mov	r3, r6
 3496 0308 2422     		movs	r2, #36
 3497 030a 3021     		movs	r1, #48
ARM GAS  /var/folders/rk/zpr83dd14lx588t7kb0yv2b40000gn/T//cc3igAjz.s 			page 79


 3498 030c 2846     		mov	r0, r5
 3499 030e FFF7FEFF 		bl	u8g2_DrawStr
 3500              	.LVL280:
 714:Src/menu_handler.c ****       sprintf((char*)buff, "%d", dv);
 3501              		.loc 1 714 0
 3502 0312 0021     		movs	r1, #0
 3503 0314 2846     		mov	r0, r5
 3504 0316 FFF7FEFF 		bl	u8g2_SetDrawColor
 3505              	.LVL281:
 715:Src/menu_handler.c ****       u8g2_DrawStr(&u8g2, 48 + 18, 36, buff);
 3506              		.loc 1 715 0
 3507 031a 374B     		ldr	r3, .L195+28
 3508 031c 1A78     		ldrb	r2, [r3]	@ zero_extendqisi2
 3509 031e 3749     		ldr	r1, .L195+32
 3510 0320 3046     		mov	r0, r6
 3511 0322 FFF7FEFF 		bl	sprintf
 3512              	.LVL282:
 716:Src/menu_handler.c ****       u8g2_SetDrawColor(&u8g2, 1);
 3513              		.loc 1 716 0
 3514 0326 3346     		mov	r3, r6
 3515 0328 2422     		movs	r2, #36
 3516 032a 4221     		movs	r1, #66
 3517 032c 2846     		mov	r0, r5
 3518 032e FFF7FEFF 		bl	u8g2_DrawStr
 3519              	.LVL283:
 717:Src/menu_handler.c ****       break;
 3520              		.loc 1 717 0
 3521 0332 0121     		movs	r1, #1
 3522 0334 2846     		mov	r0, r5
 3523 0336 FFF7FEFF 		bl	u8g2_SetDrawColor
 3524              	.LVL284:
 718:Src/menu_handler.c ****   }
 3525              		.loc 1 718 0
 3526 033a 1FE7     		b	.L180
 3527              	.L191:
 726:Src/menu_handler.c ****     {
 3528              		.loc 1 726 0
 3529 033c 042C     		cmp	r4, #4
 3530 033e 7FF442AF 		bne	.L187
 728:Src/menu_handler.c ****       Save_SysTime_BKUP();
 3531              		.loc 1 728 0
 3532 0342 2F4D     		ldr	r5, .L195+36
 3533 0344 0023     		movs	r3, #0
 3534 0346 AB60     		str	r3, [r5, #8]
 729:Src/menu_handler.c ****       CFG_Save();
 3535              		.loc 1 729 0
 3536 0348 FFF7FEFF 		bl	Save_SysTime_BKUP
 3537              	.LVL285:
 730:Src/menu_handler.c ****       sprintf((char*)buff, "%04d Hours", sys.FilterTime); 
 3538              		.loc 1 730 0
 3539 034c FFF7FEFF 		bl	CFG_Save
 3540              	.LVL286:
 731:Src/menu_handler.c ****       u8g2_DrawStr(&u8g2,((22 - strlen(buff))/2)*6, 36, buff);
 3541              		.loc 1 731 0
 3542 0350 264C     		ldr	r4, .L195+16
 3543 0352 AA68     		ldr	r2, [r5, #8]
 3544 0354 2B49     		ldr	r1, .L195+40
ARM GAS  /var/folders/rk/zpr83dd14lx588t7kb0yv2b40000gn/T//cc3igAjz.s 			page 80


 3545 0356 2046     		mov	r0, r4
 3546 0358 FFF7FEFF 		bl	sprintf
 3547              	.LVL287:
 732:Src/menu_handler.c ****       sprintf((char*)buff, "\4 Reset UV Time!\n");
 3548              		.loc 1 732 0
 3549 035c 2046     		mov	r0, r4
 3550 035e FFF7FEFF 		bl	strlen
 3551              	.LVL288:
 3552 0362 C0F11600 		rsb	r0, r0, #22
 3553 0366 4008     		lsrs	r0, r0, #1
 3554 0368 00EB4000 		add	r0, r0, r0, lsl #1
 3555 036c 4100     		lsls	r1, r0, #1
 3556 036e 1B4E     		ldr	r6, .L195
 3557 0370 2346     		mov	r3, r4
 3558 0372 2422     		movs	r2, #36
 3559 0374 01F0FE01 		and	r1, r1, #254
 3560 0378 3046     		mov	r0, r6
 3561 037a FFF7FEFF 		bl	u8g2_DrawStr
 3562              	.LVL289:
 733:Src/menu_handler.c ****       u8g2_DrawStr(&u8g2,((22 - strlen("Reset UV Time!"))/2)*6, 48, "Reset UV Time!");
 3563              		.loc 1 733 0
 3564 037e 224D     		ldr	r5, .L195+44
 3565 0380 0FCD     		ldmia	r5!, {r0, r1, r2, r3}
 3566 0382 2060     		str	r0, [r4]	@ unaligned
 3567 0384 6160     		str	r1, [r4, #4]	@ unaligned
 3568 0386 A260     		str	r2, [r4, #8]	@ unaligned
 3569 0388 E360     		str	r3, [r4, #12]	@ unaligned
 3570 038a 2B88     		ldrh	r3, [r5]	@ unaligned
 3571 038c 2382     		strh	r3, [r4, #16]	@ unaligned
 734:Src/menu_handler.c ****     }
 3572              		.loc 1 734 0
 3573 038e 1F4B     		ldr	r3, .L195+48
 3574 0390 3022     		movs	r2, #48
 3575 0392 1821     		movs	r1, #24
 3576 0394 3046     		mov	r0, r6
 3577 0396 FFF7FEFF 		bl	u8g2_DrawStr
 3578              	.LVL290:
 3579 039a 14E7     		b	.L187
 3580              	.L192:
 742:Src/menu_handler.c ****       u8g2_DrawStr(&u8g2,((22 - strlen(buff))/2)*6, 36, buff);
 3581              		.loc 1 742 0
 3582 039c 134C     		ldr	r4, .L195+16
 3583 039e 184B     		ldr	r3, .L195+36
 3584 03a0 9A68     		ldr	r2, [r3, #8]
 3585 03a2 1849     		ldr	r1, .L195+40
 3586 03a4 2046     		mov	r0, r4
 3587 03a6 FFF7FEFF 		bl	sprintf
 3588              	.LVL291:
 743:Src/menu_handler.c ****       u8g2_DrawStr(&u8g2,((22 - strlen("Wrong Password!"))/2)*6, 48, "Wrong Password!");
 3589              		.loc 1 743 0
 3590 03aa 2046     		mov	r0, r4
 3591 03ac FFF7FEFF 		bl	strlen
 3592              	.LVL292:
 3593 03b0 C0F11600 		rsb	r0, r0, #22
 3594 03b4 4008     		lsrs	r0, r0, #1
 3595 03b6 00EB4000 		add	r0, r0, r0, lsl #1
 3596 03ba 4100     		lsls	r1, r0, #1
ARM GAS  /var/folders/rk/zpr83dd14lx588t7kb0yv2b40000gn/T//cc3igAjz.s 			page 81


 3597 03bc 074D     		ldr	r5, .L195
 3598 03be 2346     		mov	r3, r4
 3599 03c0 2422     		movs	r2, #36
 3600 03c2 01F0FE01 		and	r1, r1, #254
 3601 03c6 2846     		mov	r0, r5
 3602 03c8 FFF7FEFF 		bl	u8g2_DrawStr
 3603              	.LVL293:
 744:Src/menu_handler.c ****     }
 3604              		.loc 1 744 0
 3605 03cc 104B     		ldr	r3, .L195+52
 3606 03ce 3022     		movs	r2, #48
 3607 03d0 1221     		movs	r1, #18
 3608 03d2 2846     		mov	r0, r5
 3609 03d4 FFF7FEFF 		bl	u8g2_DrawStr
 3610              	.LVL294:
 3611 03d8 F5E6     		b	.L187
 3612              	.L196:
 3613 03da 00BF     		.align	2
 3614              	.L195:
 3615 03dc 00000000 		.word	u8g2
 3616 03e0 00000000 		.word	u8g2_font_6x12_mf
 3617 03e4 00000000 		.word	tram
 3618 03e8 00000000 		.word	nghin
 3619 03ec 00000000 		.word	buff
 3620 03f0 00000000 		.word	chuc
 3621 03f4 14000000 		.word	.LC32
 3622 03f8 00000000 		.word	dv
 3623 03fc 10000000 		.word	.LC31
 3624 0400 00000000 		.word	sys
 3625 0404 00000000 		.word	.LC25
 3626 0408 24000000 		.word	.LC34
 3627 040c 38000000 		.word	.LC35
 3628 0410 48000000 		.word	.LC36
 3629              		.cfi_endproc
 3630              	.LFE81:
 3632              		.section	.text.ResetSystemTimeEvt,"ax",%progbits
 3633              		.align	1
 3634              		.global	ResetSystemTimeEvt
 3635              		.syntax unified
 3636              		.thumb
 3637              		.thumb_func
 3638              		.fpu softvfp
 3640              	ResetSystemTimeEvt:
 3641              	.LFB82:
 749:Src/menu_handler.c **** 
 750:Src/menu_handler.c **** uint16_t ResetSystemTimeEvt(uint8_t add, uint16_t key)
 751:Src/menu_handler.c **** {
 3642              		.loc 1 751 0
 3643              		.cfi_startproc
 3644              		@ args = 0, pretend = 0, frame = 0
 3645              		@ frame_needed = 0, uses_anonymous_args = 0
 3646              	.LVL295:
 3647 0000 F0B5     		push	{r4, r5, r6, r7, lr}
 3648              	.LCFI23:
 3649              		.cfi_def_cfa_offset 20
 3650              		.cfi_offset 4, -20
 3651              		.cfi_offset 5, -16
ARM GAS  /var/folders/rk/zpr83dd14lx588t7kb0yv2b40000gn/T//cc3igAjz.s 			page 82


 3652              		.cfi_offset 6, -12
 3653              		.cfi_offset 7, -8
 3654              		.cfi_offset 14, -4
 3655 0002 83B0     		sub	sp, sp, #12
 3656              	.LCFI24:
 3657              		.cfi_def_cfa_offset 32
 3658 0004 0546     		mov	r5, r0
 3659 0006 0C46     		mov	r4, r1
 752:Src/menu_handler.c ****   memset(buff, 0, sizeof(buff));
 3660              		.loc 1 752 0
 3661 0008 5A22     		movs	r2, #90
 3662 000a 0021     		movs	r1, #0
 3663              	.LVL296:
 3664 000c A548     		ldr	r0, .L225
 3665              	.LVL297:
 3666 000e FFF7FEFF 		bl	memset
 3667              	.LVL298:
 753:Src/menu_handler.c ****   if(treeView[add].keyMode != menuIdxLast)
 3668              		.loc 1 753 0
 3669 0012 6420     		movs	r0, #100
 3670 0014 00FB05F0 		mul	r0, r0, r5
 3671 0018 A34B     		ldr	r3, .L225+4
 3672 001a 1A5A     		ldrh	r2, [r3, r0]
 3673 001c A34B     		ldr	r3, .L225+8
 3674 001e 1B88     		ldrh	r3, [r3]
 3675 0020 9A42     		cmp	r2, r3
 3676 0022 0CD0     		beq	.L198
 754:Src/menu_handler.c ****   {
 755:Src/menu_handler.c ****     menuValueSet = 0;
 3677              		.loc 1 755 0
 3678 0024 0023     		movs	r3, #0
 3679 0026 A24A     		ldr	r2, .L225+12
 3680 0028 1380     		strh	r3, [r2]	@ movhi
 756:Src/menu_handler.c ****     menuCursor = 0;
 3681              		.loc 1 756 0
 3682 002a A24A     		ldr	r2, .L225+16
 3683 002c 1380     		strh	r3, [r2]	@ movhi
 757:Src/menu_handler.c ****     nghin = tram = chuc = dv = 0;
 3684              		.loc 1 757 0
 3685 002e A24A     		ldr	r2, .L225+20
 3686 0030 1370     		strb	r3, [r2]
 3687 0032 A24A     		ldr	r2, .L225+24
 3688 0034 1370     		strb	r3, [r2]
 3689 0036 A24A     		ldr	r2, .L225+28
 3690 0038 1370     		strb	r3, [r2]
 3691 003a A24A     		ldr	r2, .L225+32
 3692 003c 1370     		strb	r3, [r2]
 3693              	.L198:
 758:Src/menu_handler.c ****   }
 759:Src/menu_handler.c ****   if(key == BTN_NEXT)
 3694              		.loc 1 759 0
 3695 003e 032C     		cmp	r4, #3
 3696 0040 08D0     		beq	.L221
 3697              	.L199:
 760:Src/menu_handler.c ****   {
 761:Src/menu_handler.c ****     if(++menuCursor > 3) menuCursor = 0;
 762:Src/menu_handler.c ****   }
ARM GAS  /var/folders/rk/zpr83dd14lx588t7kb0yv2b40000gn/T//cc3igAjz.s 			page 83


 763:Src/menu_handler.c **** 
 764:Src/menu_handler.c ****   if(key == BTN_UP)
 3698              		.loc 1 764 0
 3699 0042 CCB9     		cbnz	r4, .L200
 765:Src/menu_handler.c ****   {
 766:Src/menu_handler.c ****     switch(menuCursor)
 3700              		.loc 1 766 0
 3701 0044 9B4B     		ldr	r3, .L225+16
 3702 0046 1B88     		ldrh	r3, [r3]
 3703 0048 032B     		cmp	r3, #3
 3704 004a 15D8     		bhi	.L200
 3705 004c DFE803F0 		tbb	[pc, r3]
 3706              	.L202:
 3707 0050 0D       		.byte	(.L201-.L202)/2
 3708 0051 2B       		.byte	(.L203-.L202)/2
 3709 0052 33       		.byte	(.L204-.L202)/2
 3710 0053 3B       		.byte	(.L205-.L202)/2
 3711              		.p2align 1
 3712              	.L221:
 761:Src/menu_handler.c ****   }
 3713              		.loc 1 761 0
 3714 0054 974A     		ldr	r2, .L225+16
 3715 0056 1388     		ldrh	r3, [r2]
 3716 0058 0133     		adds	r3, r3, #1
 3717 005a 9BB2     		uxth	r3, r3
 3718 005c 1380     		strh	r3, [r2]	@ movhi
 3719 005e 032B     		cmp	r3, #3
 3720 0060 EFD9     		bls	.L199
 761:Src/menu_handler.c ****   }
 3721              		.loc 1 761 0 is_stmt 0 discriminator 1
 3722 0062 1346     		mov	r3, r2
 3723 0064 0022     		movs	r2, #0
 3724 0066 1A80     		strh	r2, [r3]	@ movhi
 3725 0068 EBE7     		b	.L199
 3726              	.L201:
 767:Src/menu_handler.c ****     {
 768:Src/menu_handler.c ****       case 0:
 769:Src/menu_handler.c ****         if(nghin < 9) nghin++;
 3727              		.loc 1 769 0 is_stmt 1
 3728 006a 964B     		ldr	r3, .L225+32
 3729 006c 1B78     		ldrb	r3, [r3]	@ zero_extendqisi2
 3730 006e 082B     		cmp	r3, #8
 3731 0070 02D8     		bhi	.L200
 3732              		.loc 1 769 0 is_stmt 0 discriminator 1
 3733 0072 0133     		adds	r3, r3, #1
 3734 0074 934A     		ldr	r2, .L225+32
 3735 0076 1370     		strb	r3, [r2]
 3736              	.L200:
 770:Src/menu_handler.c ****         break;
 771:Src/menu_handler.c ****       case 1:
 772:Src/menu_handler.c ****         if(tram < 9) tram++;
 773:Src/menu_handler.c ****         break;
 774:Src/menu_handler.c ****       case 2:
 775:Src/menu_handler.c ****         if(chuc < 9) chuc++;
 776:Src/menu_handler.c ****         break;
 777:Src/menu_handler.c ****       case 3:
 778:Src/menu_handler.c ****         if(dv < 9) dv++;
ARM GAS  /var/folders/rk/zpr83dd14lx588t7kb0yv2b40000gn/T//cc3igAjz.s 			page 84


 779:Src/menu_handler.c ****         break;
 780:Src/menu_handler.c ****     }
 781:Src/menu_handler.c ****   }
 782:Src/menu_handler.c ****   if(key == BTN_DOWN)
 3737              		.loc 1 782 0 is_stmt 1
 3738 0078 012C     		cmp	r4, #1
 3739 007a 2CD0     		beq	.L222
 3740              	.L206:
 783:Src/menu_handler.c ****   {
 784:Src/menu_handler.c ****     switch(menuCursor)
 785:Src/menu_handler.c ****     {
 786:Src/menu_handler.c ****       case 0:
 787:Src/menu_handler.c ****         if(nghin > 0) nghin--;
 788:Src/menu_handler.c ****         break;
 789:Src/menu_handler.c ****       case 1:
 790:Src/menu_handler.c ****         if(tram > 0) tram--;
 791:Src/menu_handler.c ****         break;
 792:Src/menu_handler.c ****       case 2:
 793:Src/menu_handler.c ****         if(chuc > 0) chuc--;
 794:Src/menu_handler.c ****         break;
 795:Src/menu_handler.c ****       case 3:
 796:Src/menu_handler.c ****         if(dv > 0) dv--;
 797:Src/menu_handler.c ****         break;
 798:Src/menu_handler.c ****     }
 799:Src/menu_handler.c ****   }
 800:Src/menu_handler.c ****   u8g2_SetFont(&u8g2, u8g2_font_6x12_mf);
 3741              		.loc 1 800 0
 3742 007c 924D     		ldr	r5, .L225+36
 3743 007e 9349     		ldr	r1, .L225+40
 3744 0080 2846     		mov	r0, r5
 3745 0082 FFF7FEFF 		bl	u8g2_SetFont
 3746              	.LVL299:
 801:Src/menu_handler.c ****   u8g2_DrawStr(&u8g2,((22 - strlen("Enter Password!"))/2)*6, 24, "Enter Password!");
 3747              		.loc 1 801 0
 3748 0086 924B     		ldr	r3, .L225+44
 3749 0088 1822     		movs	r2, #24
 3750 008a 1221     		movs	r1, #18
 3751 008c 2846     		mov	r0, r5
 3752 008e FFF7FEFF 		bl	u8g2_DrawStr
 3753              	.LVL300:
 802:Src/menu_handler.c ****   switch(menuCursor)
 3754              		.loc 1 802 0
 3755 0092 884B     		ldr	r3, .L225+16
 3756 0094 1B88     		ldrh	r3, [r3]
 3757 0096 032B     		cmp	r3, #3
 3758 0098 70D8     		bhi	.L212
 3759 009a DFE813F0 		tbh	[pc, r3, lsl #1]
 3760              	.L214:
 3761 009e 4400     		.2byte	(.L213-.L214)/2
 3762 00a0 9700     		.2byte	(.L215-.L214)/2
 3763 00a2 CD00     		.2byte	(.L216-.L214)/2
 3764 00a4 2301     		.2byte	(.L217-.L214)/2
 3765              		.p2align 1
 3766              	.L203:
 772:Src/menu_handler.c ****         break;
 3767              		.loc 1 772 0
 3768 00a6 864B     		ldr	r3, .L225+28
ARM GAS  /var/folders/rk/zpr83dd14lx588t7kb0yv2b40000gn/T//cc3igAjz.s 			page 85


 3769 00a8 1B78     		ldrb	r3, [r3]	@ zero_extendqisi2
 3770 00aa 082B     		cmp	r3, #8
 3771 00ac E4D8     		bhi	.L200
 772:Src/menu_handler.c ****         break;
 3772              		.loc 1 772 0 is_stmt 0 discriminator 1
 3773 00ae 0133     		adds	r3, r3, #1
 3774 00b0 834A     		ldr	r2, .L225+28
 3775 00b2 1370     		strb	r3, [r2]
 3776 00b4 E0E7     		b	.L200
 3777              	.L204:
 775:Src/menu_handler.c ****         break;
 3778              		.loc 1 775 0 is_stmt 1
 3779 00b6 814B     		ldr	r3, .L225+24
 3780 00b8 1B78     		ldrb	r3, [r3]	@ zero_extendqisi2
 3781 00ba 082B     		cmp	r3, #8
 3782 00bc DCD8     		bhi	.L200
 775:Src/menu_handler.c ****         break;
 3783              		.loc 1 775 0 is_stmt 0 discriminator 1
 3784 00be 0133     		adds	r3, r3, #1
 3785 00c0 7E4A     		ldr	r2, .L225+24
 3786 00c2 1370     		strb	r3, [r2]
 3787 00c4 D8E7     		b	.L200
 3788              	.L205:
 778:Src/menu_handler.c ****         break;
 3789              		.loc 1 778 0 is_stmt 1
 3790 00c6 7C4B     		ldr	r3, .L225+20
 3791 00c8 1B78     		ldrb	r3, [r3]	@ zero_extendqisi2
 3792 00ca 082B     		cmp	r3, #8
 3793 00cc D4D8     		bhi	.L200
 778:Src/menu_handler.c ****         break;
 3794              		.loc 1 778 0 is_stmt 0 discriminator 1
 3795 00ce 0133     		adds	r3, r3, #1
 3796 00d0 794A     		ldr	r2, .L225+20
 3797 00d2 1370     		strb	r3, [r2]
 3798 00d4 D0E7     		b	.L200
 3799              	.L222:
 784:Src/menu_handler.c ****     {
 3800              		.loc 1 784 0 is_stmt 1
 3801 00d6 774B     		ldr	r3, .L225+16
 3802 00d8 1B88     		ldrh	r3, [r3]
 3803 00da 032B     		cmp	r3, #3
 3804 00dc CED8     		bhi	.L206
 3805 00de DFE803F0 		tbb	[pc, r3]
 3806              	.L208:
 3807 00e2 02       		.byte	(.L207-.L208)/2
 3808 00e3 0A       		.byte	(.L209-.L208)/2
 3809 00e4 12       		.byte	(.L210-.L208)/2
 3810 00e5 1A       		.byte	(.L211-.L208)/2
 3811              		.p2align 1
 3812              	.L207:
 787:Src/menu_handler.c ****         break;
 3813              		.loc 1 787 0
 3814 00e6 774B     		ldr	r3, .L225+32
 3815 00e8 1B78     		ldrb	r3, [r3]	@ zero_extendqisi2
 3816 00ea 002B     		cmp	r3, #0
 3817 00ec C6D0     		beq	.L206
 787:Src/menu_handler.c ****         break;
ARM GAS  /var/folders/rk/zpr83dd14lx588t7kb0yv2b40000gn/T//cc3igAjz.s 			page 86


 3818              		.loc 1 787 0 is_stmt 0 discriminator 1
 3819 00ee 013B     		subs	r3, r3, #1
 3820 00f0 744A     		ldr	r2, .L225+32
 3821 00f2 1370     		strb	r3, [r2]
 3822 00f4 C2E7     		b	.L206
 3823              	.L209:
 790:Src/menu_handler.c ****         break;
 3824              		.loc 1 790 0 is_stmt 1
 3825 00f6 724B     		ldr	r3, .L225+28
 3826 00f8 1B78     		ldrb	r3, [r3]	@ zero_extendqisi2
 3827 00fa 002B     		cmp	r3, #0
 3828 00fc BED0     		beq	.L206
 790:Src/menu_handler.c ****         break;
 3829              		.loc 1 790 0 is_stmt 0 discriminator 1
 3830 00fe 013B     		subs	r3, r3, #1
 3831 0100 6F4A     		ldr	r2, .L225+28
 3832 0102 1370     		strb	r3, [r2]
 3833 0104 BAE7     		b	.L206
 3834              	.L210:
 793:Src/menu_handler.c ****         break;
 3835              		.loc 1 793 0 is_stmt 1
 3836 0106 6D4B     		ldr	r3, .L225+24
 3837 0108 1B78     		ldrb	r3, [r3]	@ zero_extendqisi2
 3838 010a 002B     		cmp	r3, #0
 3839 010c B6D0     		beq	.L206
 793:Src/menu_handler.c ****         break;
 3840              		.loc 1 793 0 is_stmt 0 discriminator 1
 3841 010e 013B     		subs	r3, r3, #1
 3842 0110 6A4A     		ldr	r2, .L225+24
 3843 0112 1370     		strb	r3, [r2]
 3844 0114 B2E7     		b	.L206
 3845              	.L211:
 796:Src/menu_handler.c ****         break;
 3846              		.loc 1 796 0 is_stmt 1
 3847 0116 684B     		ldr	r3, .L225+20
 3848 0118 1B78     		ldrb	r3, [r3]	@ zero_extendqisi2
 3849 011a 002B     		cmp	r3, #0
 3850 011c AED0     		beq	.L206
 796:Src/menu_handler.c ****         break;
 3851              		.loc 1 796 0 is_stmt 0 discriminator 1
 3852 011e 013B     		subs	r3, r3, #1
 3853 0120 654A     		ldr	r2, .L225+20
 3854 0122 1370     		strb	r3, [r2]
 3855 0124 AAE7     		b	.L206
 3856              	.L213:
 803:Src/menu_handler.c ****   {
 804:Src/menu_handler.c ****     case 0:
 805:Src/menu_handler.c ****       u8g2_SetFont(&u8g2, u8g2_font_6x12_mf);
 3857              		.loc 1 805 0 is_stmt 1
 3858 0126 684D     		ldr	r5, .L225+36
 3859 0128 6849     		ldr	r1, .L225+40
 3860 012a 2846     		mov	r0, r5
 3861 012c FFF7FEFF 		bl	u8g2_SetFont
 3862              	.LVL301:
 806:Src/menu_handler.c ****       u8g2_SetDrawColor(&u8g2, 0);
 3863              		.loc 1 806 0
 3864 0130 0021     		movs	r1, #0
ARM GAS  /var/folders/rk/zpr83dd14lx588t7kb0yv2b40000gn/T//cc3igAjz.s 			page 87


 3865 0132 2846     		mov	r0, r5
 3866 0134 FFF7FEFF 		bl	u8g2_SetDrawColor
 3867              	.LVL302:
 807:Src/menu_handler.c ****       sprintf((char*)buff, "%d", nghin);
 3868              		.loc 1 807 0
 3869 0138 5A4E     		ldr	r6, .L225
 3870 013a 624B     		ldr	r3, .L225+32
 3871 013c 1A78     		ldrb	r2, [r3]	@ zero_extendqisi2
 3872 013e 6549     		ldr	r1, .L225+48
 3873 0140 3046     		mov	r0, r6
 3874 0142 FFF7FEFF 		bl	sprintf
 3875              	.LVL303:
 808:Src/menu_handler.c ****       u8g2_DrawStr(&u8g2, 48, 36, buff);
 3876              		.loc 1 808 0
 3877 0146 3346     		mov	r3, r6
 3878 0148 2422     		movs	r2, #36
 3879 014a 3021     		movs	r1, #48
 3880 014c 2846     		mov	r0, r5
 3881 014e FFF7FEFF 		bl	u8g2_DrawStr
 3882              	.LVL304:
 809:Src/menu_handler.c ****       u8g2_SetDrawColor(&u8g2, 1);
 3883              		.loc 1 809 0
 3884 0152 0121     		movs	r1, #1
 3885 0154 2846     		mov	r0, r5
 3886 0156 FFF7FEFF 		bl	u8g2_SetDrawColor
 3887              	.LVL305:
 810:Src/menu_handler.c **** 
 811:Src/menu_handler.c ****       sprintf((char*)buff, "%d%d%d", tram, chuc, dv);
 3888              		.loc 1 811 0
 3889 015a 584B     		ldr	r3, .L225+24
 3890 015c 1B78     		ldrb	r3, [r3]	@ zero_extendqisi2
 3891 015e 584A     		ldr	r2, .L225+28
 3892 0160 1278     		ldrb	r2, [r2]	@ zero_extendqisi2
 3893 0162 5549     		ldr	r1, .L225+20
 3894 0164 0978     		ldrb	r1, [r1]	@ zero_extendqisi2
 3895 0166 0091     		str	r1, [sp]
 3896 0168 5B49     		ldr	r1, .L225+52
 3897 016a 3046     		mov	r0, r6
 3898 016c FFF7FEFF 		bl	sprintf
 3899              	.LVL306:
 812:Src/menu_handler.c ****       u8g2_DrawStr(&u8g2, 48 + 6, 36, buff);
 3900              		.loc 1 812 0
 3901 0170 3346     		mov	r3, r6
 3902 0172 2422     		movs	r2, #36
 3903 0174 3621     		movs	r1, #54
 3904 0176 2846     		mov	r0, r5
 3905 0178 FFF7FEFF 		bl	u8g2_DrawStr
 3906              	.LVL307:
 3907              	.L212:
 813:Src/menu_handler.c ****       break;
 814:Src/menu_handler.c ****     case 1:
 815:Src/menu_handler.c ****       u8g2_SetFont(&u8g2, u8g2_font_6x12_mf);
 816:Src/menu_handler.c ****       sprintf((char*)buff, "%d", nghin);
 817:Src/menu_handler.c ****       u8g2_DrawStr(&u8g2, 48, 36, buff);
 818:Src/menu_handler.c ****       /* blink minutes */
 819:Src/menu_handler.c ****       u8g2_SetDrawColor(&u8g2, 0);
 820:Src/menu_handler.c ****       sprintf((char*)buff, "%d", tram);
ARM GAS  /var/folders/rk/zpr83dd14lx588t7kb0yv2b40000gn/T//cc3igAjz.s 			page 88


 821:Src/menu_handler.c ****       u8g2_DrawStr(&u8g2, 48 + 6, 36, buff);
 822:Src/menu_handler.c ****       u8g2_SetDrawColor(&u8g2, 1);
 823:Src/menu_handler.c **** 
 824:Src/menu_handler.c ****       sprintf((char*)buff, "%d%d", chuc, dv);
 825:Src/menu_handler.c ****       u8g2_DrawStr(&u8g2, 48 + 12, 36, buff);
 826:Src/menu_handler.c ****       break;
 827:Src/menu_handler.c ****     case 2:
 828:Src/menu_handler.c ****       u8g2_SetFont(&u8g2, u8g2_font_6x12_mf);
 829:Src/menu_handler.c ****       sprintf((char*)buff, "%d%d", nghin, tram);
 830:Src/menu_handler.c ****       u8g2_DrawStr(&u8g2, 48, 36, buff);
 831:Src/menu_handler.c **** 
 832:Src/menu_handler.c ****       u8g2_SetDrawColor(&u8g2, 0);
 833:Src/menu_handler.c ****       sprintf((char*)buff, "%d", chuc);
 834:Src/menu_handler.c ****       u8g2_DrawStr(&u8g2, 48 + 12, 36, buff);
 835:Src/menu_handler.c ****       u8g2_SetDrawColor(&u8g2, 1);
 836:Src/menu_handler.c ****       sprintf((char*)buff, "%d", dv);
 837:Src/menu_handler.c ****       u8g2_DrawStr(&u8g2, 48 + 18, 36, buff);
 838:Src/menu_handler.c ****       break;
 839:Src/menu_handler.c ****     case 3:
 840:Src/menu_handler.c ****       u8g2_SetFont(&u8g2, u8g2_font_6x12_mf);
 841:Src/menu_handler.c ****       sprintf((char*)buff, "%d%d%d", nghin, tram, chuc);
 842:Src/menu_handler.c ****       u8g2_DrawStr(&u8g2, 48, 36, buff);
 843:Src/menu_handler.c **** 
 844:Src/menu_handler.c ****       u8g2_SetDrawColor(&u8g2, 0);
 845:Src/menu_handler.c ****       sprintf((char*)buff, "%d", dv);
 846:Src/menu_handler.c ****       u8g2_DrawStr(&u8g2, 48 + 18, 36, buff);
 847:Src/menu_handler.c ****       u8g2_SetDrawColor(&u8g2, 1);
 848:Src/menu_handler.c ****       break;
 849:Src/menu_handler.c ****   }
 850:Src/menu_handler.c ****   // sprintf((char*)buff, "%04d", menuValueSet);
 851:Src/menu_handler.c ****   // u8g2_SetFont(&u8g2, u8g2_font_6x12_mf);
 852:Src/menu_handler.c ****   // u8g2_DrawStr(&u8g2, ((22 - strlen(buff))/2)*6, 36, buff);
 853:Src/menu_handler.c ****   menuValueSet = nghin*1000 + tram*100 + chuc*10 + dv;
 3908              		.loc 1 853 0
 3909 017c 514B     		ldr	r3, .L225+32
 3910 017e 1B78     		ldrb	r3, [r3]	@ zero_extendqisi2
 3911 0180 C3EB4312 		rsb	r2, r3, r3, lsl #5
 3912 0184 03EB8202 		add	r2, r3, r2, lsl #2
 3913 0188 D300     		lsls	r3, r2, #3
 3914 018a 4D4A     		ldr	r2, .L225+28
 3915 018c 1278     		ldrb	r2, [r2]	@ zero_extendqisi2
 3916 018e 02EB8202 		add	r2, r2, r2, lsl #2
 3917 0192 02EB8202 		add	r2, r2, r2, lsl #2
 3918 0196 9100     		lsls	r1, r2, #2
 3919 0198 0B44     		add	r3, r3, r1
 3920 019a 9BB2     		uxth	r3, r3
 3921 019c 474A     		ldr	r2, .L225+24
 3922 019e 1278     		ldrb	r2, [r2]	@ zero_extendqisi2
 3923 01a0 02EB8202 		add	r2, r2, r2, lsl #2
 3924 01a4 5100     		lsls	r1, r2, #1
 3925 01a6 0B44     		add	r3, r3, r1
 3926 01a8 9BB2     		uxth	r3, r3
 3927 01aa 434A     		ldr	r2, .L225+20
 3928 01ac 1278     		ldrb	r2, [r2]	@ zero_extendqisi2
 3929 01ae 1344     		add	r3, r3, r2
 3930 01b0 9BB2     		uxth	r3, r3
 3931 01b2 3F4A     		ldr	r2, .L225+12
ARM GAS  /var/folders/rk/zpr83dd14lx588t7kb0yv2b40000gn/T//cc3igAjz.s 			page 89


 3932 01b4 1380     		strh	r3, [r2]	@ movhi
 854:Src/menu_handler.c ****   if(menuValueSet == sys_cfg.passWord)
 3933              		.loc 1 854 0
 3934 01b6 494A     		ldr	r2, .L225+56
 3935 01b8 1289     		ldrh	r2, [r2, #8]
 3936 01ba 9342     		cmp	r3, r2
 3937 01bc 00F0BE80 		beq	.L223
 855:Src/menu_handler.c ****   {
 856:Src/menu_handler.c ****     if(key == BTN_MENU)
 857:Src/menu_handler.c ****     {
 858:Src/menu_handler.c ****       sys.SysTime = 0;
 859:Src/menu_handler.c ****       Save_SysTime_BKUP();
 860:Src/menu_handler.c ****       CFG_Save();
 861:Src/menu_handler.c ****       sprintf((char*)buff, "%05d Hours", sys.SysTime);
 862:Src/menu_handler.c ****       u8g2_DrawStr(&u8g2,((22 - strlen(buff))/2)*6, 36, buff);
 863:Src/menu_handler.c ****       sprintf((char*)buff, "\4 Reset UV Time!\n");
 864:Src/menu_handler.c ****       u8g2_DrawStr(&u8g2,((22 - strlen("Reset UV Time!"))/2)*6, 48, "Reset UV Time!");
 865:Src/menu_handler.c ****     }
 866:Src/menu_handler.c ****   }
 867:Src/menu_handler.c ****   else
 868:Src/menu_handler.c ****   {
 869:Src/menu_handler.c ****     if(key == BTN_MENU)
 3938              		.loc 1 869 0
 3939 01c0 042C     		cmp	r4, #4
 3940 01c2 00F0EB80 		beq	.L224
 3941              	.L219:
 870:Src/menu_handler.c ****     {
 871:Src/menu_handler.c ****       sys.SysTime = sys.SysTime;
 872:Src/menu_handler.c ****       sprintf((char*)buff, "%05d Hours", sys.SysTime);
 873:Src/menu_handler.c ****       u8g2_DrawStr(&u8g2,((22 - strlen(buff))/2)*6, 36, buff);
 874:Src/menu_handler.c ****       u8g2_DrawStr(&u8g2,((22 - strlen("Wrong Password!"))/2)*6, 48, "Wrong Password!");
 875:Src/menu_handler.c ****     }
 876:Src/menu_handler.c ****   }
 877:Src/menu_handler.c ****   return 0;
 878:Src/menu_handler.c **** }
 3942              		.loc 1 878 0
 3943 01c6 0020     		movs	r0, #0
 3944 01c8 03B0     		add	sp, sp, #12
 3945              	.LCFI25:
 3946              		.cfi_remember_state
 3947              		.cfi_def_cfa_offset 20
 3948              		@ sp needed
 3949 01ca F0BD     		pop	{r4, r5, r6, r7, pc}
 3950              	.L215:
 3951              	.LCFI26:
 3952              		.cfi_restore_state
 815:Src/menu_handler.c ****       sprintf((char*)buff, "%d", nghin);
 3953              		.loc 1 815 0
 3954 01cc 3E4D     		ldr	r5, .L225+36
 3955 01ce 3F49     		ldr	r1, .L225+40
 3956 01d0 2846     		mov	r0, r5
 3957 01d2 FFF7FEFF 		bl	u8g2_SetFont
 3958              	.LVL308:
 816:Src/menu_handler.c ****       u8g2_DrawStr(&u8g2, 48, 36, buff);
 3959              		.loc 1 816 0
 3960 01d6 3F4F     		ldr	r7, .L225+48
 3961 01d8 324E     		ldr	r6, .L225
ARM GAS  /var/folders/rk/zpr83dd14lx588t7kb0yv2b40000gn/T//cc3igAjz.s 			page 90


 3962 01da 3A4B     		ldr	r3, .L225+32
 3963 01dc 1A78     		ldrb	r2, [r3]	@ zero_extendqisi2
 3964 01de 3946     		mov	r1, r7
 3965 01e0 3046     		mov	r0, r6
 3966 01e2 FFF7FEFF 		bl	sprintf
 3967              	.LVL309:
 817:Src/menu_handler.c ****       /* blink minutes */
 3968              		.loc 1 817 0
 3969 01e6 3346     		mov	r3, r6
 3970 01e8 2422     		movs	r2, #36
 3971 01ea 3021     		movs	r1, #48
 3972 01ec 2846     		mov	r0, r5
 3973 01ee FFF7FEFF 		bl	u8g2_DrawStr
 3974              	.LVL310:
 819:Src/menu_handler.c ****       sprintf((char*)buff, "%d", tram);
 3975              		.loc 1 819 0
 3976 01f2 0021     		movs	r1, #0
 3977 01f4 2846     		mov	r0, r5
 3978 01f6 FFF7FEFF 		bl	u8g2_SetDrawColor
 3979              	.LVL311:
 820:Src/menu_handler.c ****       u8g2_DrawStr(&u8g2, 48 + 6, 36, buff);
 3980              		.loc 1 820 0
 3981 01fa 314B     		ldr	r3, .L225+28
 3982 01fc 1A78     		ldrb	r2, [r3]	@ zero_extendqisi2
 3983 01fe 3946     		mov	r1, r7
 3984 0200 3046     		mov	r0, r6
 3985 0202 FFF7FEFF 		bl	sprintf
 3986              	.LVL312:
 821:Src/menu_handler.c ****       u8g2_SetDrawColor(&u8g2, 1);
 3987              		.loc 1 821 0
 3988 0206 3346     		mov	r3, r6
 3989 0208 2422     		movs	r2, #36
 3990 020a 3621     		movs	r1, #54
 3991 020c 2846     		mov	r0, r5
 3992 020e FFF7FEFF 		bl	u8g2_DrawStr
 3993              	.LVL313:
 822:Src/menu_handler.c **** 
 3994              		.loc 1 822 0
 3995 0212 0121     		movs	r1, #1
 3996 0214 2846     		mov	r0, r5
 3997 0216 FFF7FEFF 		bl	u8g2_SetDrawColor
 3998              	.LVL314:
 824:Src/menu_handler.c ****       u8g2_DrawStr(&u8g2, 48 + 12, 36, buff);
 3999              		.loc 1 824 0
 4000 021a 274B     		ldr	r3, .L225+20
 4001 021c 1B78     		ldrb	r3, [r3]	@ zero_extendqisi2
 4002 021e 274A     		ldr	r2, .L225+24
 4003 0220 1278     		ldrb	r2, [r2]	@ zero_extendqisi2
 4004 0222 2F49     		ldr	r1, .L225+60
 4005 0224 3046     		mov	r0, r6
 4006 0226 FFF7FEFF 		bl	sprintf
 4007              	.LVL315:
 825:Src/menu_handler.c ****       break;
 4008              		.loc 1 825 0
 4009 022a 3346     		mov	r3, r6
 4010 022c 2422     		movs	r2, #36
 4011 022e 3C21     		movs	r1, #60
ARM GAS  /var/folders/rk/zpr83dd14lx588t7kb0yv2b40000gn/T//cc3igAjz.s 			page 91


 4012 0230 2846     		mov	r0, r5
 4013 0232 FFF7FEFF 		bl	u8g2_DrawStr
 4014              	.LVL316:
 826:Src/menu_handler.c ****     case 2:
 4015              		.loc 1 826 0
 4016 0236 A1E7     		b	.L212
 4017              	.L216:
 828:Src/menu_handler.c ****       sprintf((char*)buff, "%d%d", nghin, tram);
 4018              		.loc 1 828 0
 4019 0238 234D     		ldr	r5, .L225+36
 4020 023a 2449     		ldr	r1, .L225+40
 4021 023c 2846     		mov	r0, r5
 4022 023e FFF7FEFF 		bl	u8g2_SetFont
 4023              	.LVL317:
 829:Src/menu_handler.c ****       u8g2_DrawStr(&u8g2, 48, 36, buff);
 4024              		.loc 1 829 0
 4025 0242 184E     		ldr	r6, .L225
 4026 0244 1E4B     		ldr	r3, .L225+28
 4027 0246 1B78     		ldrb	r3, [r3]	@ zero_extendqisi2
 4028 0248 1E4A     		ldr	r2, .L225+32
 4029 024a 1278     		ldrb	r2, [r2]	@ zero_extendqisi2
 4030 024c 2449     		ldr	r1, .L225+60
 4031 024e 3046     		mov	r0, r6
 4032 0250 FFF7FEFF 		bl	sprintf
 4033              	.LVL318:
 830:Src/menu_handler.c **** 
 4034              		.loc 1 830 0
 4035 0254 3346     		mov	r3, r6
 4036 0256 2422     		movs	r2, #36
 4037 0258 3021     		movs	r1, #48
 4038 025a 2846     		mov	r0, r5
 4039 025c FFF7FEFF 		bl	u8g2_DrawStr
 4040              	.LVL319:
 832:Src/menu_handler.c ****       sprintf((char*)buff, "%d", chuc);
 4041              		.loc 1 832 0
 4042 0260 0021     		movs	r1, #0
 4043 0262 2846     		mov	r0, r5
 4044 0264 FFF7FEFF 		bl	u8g2_SetDrawColor
 4045              	.LVL320:
 833:Src/menu_handler.c ****       u8g2_DrawStr(&u8g2, 48 + 12, 36, buff);
 4046              		.loc 1 833 0
 4047 0268 1A4F     		ldr	r7, .L225+48
 4048 026a 144B     		ldr	r3, .L225+24
 4049 026c 1A78     		ldrb	r2, [r3]	@ zero_extendqisi2
 4050 026e 3946     		mov	r1, r7
 4051 0270 3046     		mov	r0, r6
 4052 0272 FFF7FEFF 		bl	sprintf
 4053              	.LVL321:
 834:Src/menu_handler.c ****       u8g2_SetDrawColor(&u8g2, 1);
 4054              		.loc 1 834 0
 4055 0276 3346     		mov	r3, r6
 4056 0278 2422     		movs	r2, #36
 4057 027a 3C21     		movs	r1, #60
 4058 027c 2846     		mov	r0, r5
 4059 027e FFF7FEFF 		bl	u8g2_DrawStr
 4060              	.LVL322:
 835:Src/menu_handler.c ****       sprintf((char*)buff, "%d", dv);
ARM GAS  /var/folders/rk/zpr83dd14lx588t7kb0yv2b40000gn/T//cc3igAjz.s 			page 92


 4061              		.loc 1 835 0
 4062 0282 0121     		movs	r1, #1
 4063 0284 2846     		mov	r0, r5
 4064 0286 FFF7FEFF 		bl	u8g2_SetDrawColor
 4065              	.LVL323:
 836:Src/menu_handler.c ****       u8g2_DrawStr(&u8g2, 48 + 18, 36, buff);
 4066              		.loc 1 836 0
 4067 028a 0B4B     		ldr	r3, .L225+20
 4068 028c 1A78     		ldrb	r2, [r3]	@ zero_extendqisi2
 4069 028e 3946     		mov	r1, r7
 4070 0290 3046     		mov	r0, r6
 4071 0292 FFF7FEFF 		bl	sprintf
 4072              	.LVL324:
 837:Src/menu_handler.c ****       break;
 4073              		.loc 1 837 0
 4074 0296 3346     		mov	r3, r6
 4075 0298 2422     		movs	r2, #36
 4076 029a 4221     		movs	r1, #66
 4077 029c 2846     		mov	r0, r5
 4078 029e FFF7FEFF 		bl	u8g2_DrawStr
 4079              	.LVL325:
 838:Src/menu_handler.c ****     case 3:
 4080              		.loc 1 838 0
 4081 02a2 6BE7     		b	.L212
 4082              	.L226:
 4083              		.align	2
 4084              	.L225:
 4085 02a4 00000000 		.word	buff
 4086 02a8 00000000 		.word	treeView
 4087 02ac 00000000 		.word	menuIdxLast
 4088 02b0 00000000 		.word	menuValueSet
 4089 02b4 00000000 		.word	menuCursor
 4090 02b8 00000000 		.word	dv
 4091 02bc 00000000 		.word	chuc
 4092 02c0 00000000 		.word	tram
 4093 02c4 00000000 		.word	nghin
 4094 02c8 00000000 		.word	u8g2
 4095 02cc 00000000 		.word	u8g2_font_6x12_mf
 4096 02d0 00000000 		.word	.LC30
 4097 02d4 10000000 		.word	.LC31
 4098 02d8 14000000 		.word	.LC32
 4099 02dc 00000000 		.word	sys_cfg
 4100 02e0 1C000000 		.word	.LC33
 4101              	.L217:
 840:Src/menu_handler.c ****       sprintf((char*)buff, "%d%d%d", nghin, tram, chuc);
 4102              		.loc 1 840 0
 4103 02e4 3D4D     		ldr	r5, .L227
 4104 02e6 3E49     		ldr	r1, .L227+4
 4105 02e8 2846     		mov	r0, r5
 4106 02ea FFF7FEFF 		bl	u8g2_SetFont
 4107              	.LVL326:
 841:Src/menu_handler.c ****       u8g2_DrawStr(&u8g2, 48, 36, buff);
 4108              		.loc 1 841 0
 4109 02ee 3D4B     		ldr	r3, .L227+8
 4110 02f0 1B78     		ldrb	r3, [r3]	@ zero_extendqisi2
 4111 02f2 3D4A     		ldr	r2, .L227+12
 4112 02f4 1278     		ldrb	r2, [r2]	@ zero_extendqisi2
ARM GAS  /var/folders/rk/zpr83dd14lx588t7kb0yv2b40000gn/T//cc3igAjz.s 			page 93


 4113 02f6 3D4E     		ldr	r6, .L227+16
 4114 02f8 3D49     		ldr	r1, .L227+20
 4115 02fa 0978     		ldrb	r1, [r1]	@ zero_extendqisi2
 4116 02fc 0091     		str	r1, [sp]
 4117 02fe 3D49     		ldr	r1, .L227+24
 4118 0300 3046     		mov	r0, r6
 4119 0302 FFF7FEFF 		bl	sprintf
 4120              	.LVL327:
 842:Src/menu_handler.c **** 
 4121              		.loc 1 842 0
 4122 0306 3346     		mov	r3, r6
 4123 0308 2422     		movs	r2, #36
 4124 030a 3021     		movs	r1, #48
 4125 030c 2846     		mov	r0, r5
 4126 030e FFF7FEFF 		bl	u8g2_DrawStr
 4127              	.LVL328:
 844:Src/menu_handler.c ****       sprintf((char*)buff, "%d", dv);
 4128              		.loc 1 844 0
 4129 0312 0021     		movs	r1, #0
 4130 0314 2846     		mov	r0, r5
 4131 0316 FFF7FEFF 		bl	u8g2_SetDrawColor
 4132              	.LVL329:
 845:Src/menu_handler.c ****       u8g2_DrawStr(&u8g2, 48 + 18, 36, buff);
 4133              		.loc 1 845 0
 4134 031a 374B     		ldr	r3, .L227+28
 4135 031c 1A78     		ldrb	r2, [r3]	@ zero_extendqisi2
 4136 031e 3749     		ldr	r1, .L227+32
 4137 0320 3046     		mov	r0, r6
 4138 0322 FFF7FEFF 		bl	sprintf
 4139              	.LVL330:
 846:Src/menu_handler.c ****       u8g2_SetDrawColor(&u8g2, 1);
 4140              		.loc 1 846 0
 4141 0326 3346     		mov	r3, r6
 4142 0328 2422     		movs	r2, #36
 4143 032a 4221     		movs	r1, #66
 4144 032c 2846     		mov	r0, r5
 4145 032e FFF7FEFF 		bl	u8g2_DrawStr
 4146              	.LVL331:
 847:Src/menu_handler.c ****       break;
 4147              		.loc 1 847 0
 4148 0332 0121     		movs	r1, #1
 4149 0334 2846     		mov	r0, r5
 4150 0336 FFF7FEFF 		bl	u8g2_SetDrawColor
 4151              	.LVL332:
 848:Src/menu_handler.c ****   }
 4152              		.loc 1 848 0
 4153 033a 1FE7     		b	.L212
 4154              	.L223:
 856:Src/menu_handler.c ****     {
 4155              		.loc 1 856 0
 4156 033c 042C     		cmp	r4, #4
 4157 033e 7FF442AF 		bne	.L219
 858:Src/menu_handler.c ****       Save_SysTime_BKUP();
 4158              		.loc 1 858 0
 4159 0342 2F4D     		ldr	r5, .L227+36
 4160 0344 0023     		movs	r3, #0
 4161 0346 EB60     		str	r3, [r5, #12]
ARM GAS  /var/folders/rk/zpr83dd14lx588t7kb0yv2b40000gn/T//cc3igAjz.s 			page 94


 859:Src/menu_handler.c ****       CFG_Save();
 4162              		.loc 1 859 0
 4163 0348 FFF7FEFF 		bl	Save_SysTime_BKUP
 4164              	.LVL333:
 860:Src/menu_handler.c ****       sprintf((char*)buff, "%05d Hours", sys.SysTime);
 4165              		.loc 1 860 0
 4166 034c FFF7FEFF 		bl	CFG_Save
 4167              	.LVL334:
 861:Src/menu_handler.c ****       u8g2_DrawStr(&u8g2,((22 - strlen(buff))/2)*6, 36, buff);
 4168              		.loc 1 861 0
 4169 0350 264C     		ldr	r4, .L227+16
 4170 0352 EA68     		ldr	r2, [r5, #12]
 4171 0354 2B49     		ldr	r1, .L227+40
 4172 0356 2046     		mov	r0, r4
 4173 0358 FFF7FEFF 		bl	sprintf
 4174              	.LVL335:
 862:Src/menu_handler.c ****       sprintf((char*)buff, "\4 Reset UV Time!\n");
 4175              		.loc 1 862 0
 4176 035c 2046     		mov	r0, r4
 4177 035e FFF7FEFF 		bl	strlen
 4178              	.LVL336:
 4179 0362 C0F11600 		rsb	r0, r0, #22
 4180 0366 4008     		lsrs	r0, r0, #1
 4181 0368 00EB4000 		add	r0, r0, r0, lsl #1
 4182 036c 4100     		lsls	r1, r0, #1
 4183 036e 1B4E     		ldr	r6, .L227
 4184 0370 2346     		mov	r3, r4
 4185 0372 2422     		movs	r2, #36
 4186 0374 01F0FE01 		and	r1, r1, #254
 4187 0378 3046     		mov	r0, r6
 4188 037a FFF7FEFF 		bl	u8g2_DrawStr
 4189              	.LVL337:
 863:Src/menu_handler.c ****       u8g2_DrawStr(&u8g2,((22 - strlen("Reset UV Time!"))/2)*6, 48, "Reset UV Time!");
 4190              		.loc 1 863 0
 4191 037e 224D     		ldr	r5, .L227+44
 4192 0380 0FCD     		ldmia	r5!, {r0, r1, r2, r3}
 4193 0382 2060     		str	r0, [r4]	@ unaligned
 4194 0384 6160     		str	r1, [r4, #4]	@ unaligned
 4195 0386 A260     		str	r2, [r4, #8]	@ unaligned
 4196 0388 E360     		str	r3, [r4, #12]	@ unaligned
 4197 038a 2B88     		ldrh	r3, [r5]	@ unaligned
 4198 038c 2382     		strh	r3, [r4, #16]	@ unaligned
 864:Src/menu_handler.c ****     }
 4199              		.loc 1 864 0
 4200 038e 1F4B     		ldr	r3, .L227+48
 4201 0390 3022     		movs	r2, #48
 4202 0392 1821     		movs	r1, #24
 4203 0394 3046     		mov	r0, r6
 4204 0396 FFF7FEFF 		bl	u8g2_DrawStr
 4205              	.LVL338:
 4206 039a 14E7     		b	.L219
 4207              	.L224:
 872:Src/menu_handler.c ****       u8g2_DrawStr(&u8g2,((22 - strlen(buff))/2)*6, 36, buff);
 4208              		.loc 1 872 0
 4209 039c 134C     		ldr	r4, .L227+16
 4210 039e 184B     		ldr	r3, .L227+36
 4211 03a0 DA68     		ldr	r2, [r3, #12]
ARM GAS  /var/folders/rk/zpr83dd14lx588t7kb0yv2b40000gn/T//cc3igAjz.s 			page 95


 4212 03a2 1849     		ldr	r1, .L227+40
 4213 03a4 2046     		mov	r0, r4
 4214 03a6 FFF7FEFF 		bl	sprintf
 4215              	.LVL339:
 873:Src/menu_handler.c ****       u8g2_DrawStr(&u8g2,((22 - strlen("Wrong Password!"))/2)*6, 48, "Wrong Password!");
 4216              		.loc 1 873 0
 4217 03aa 2046     		mov	r0, r4
 4218 03ac FFF7FEFF 		bl	strlen
 4219              	.LVL340:
 4220 03b0 C0F11600 		rsb	r0, r0, #22
 4221 03b4 4008     		lsrs	r0, r0, #1
 4222 03b6 00EB4000 		add	r0, r0, r0, lsl #1
 4223 03ba 4100     		lsls	r1, r0, #1
 4224 03bc 074D     		ldr	r5, .L227
 4225 03be 2346     		mov	r3, r4
 4226 03c0 2422     		movs	r2, #36
 4227 03c2 01F0FE01 		and	r1, r1, #254
 4228 03c6 2846     		mov	r0, r5
 4229 03c8 FFF7FEFF 		bl	u8g2_DrawStr
 4230              	.LVL341:
 874:Src/menu_handler.c ****     }
 4231              		.loc 1 874 0
 4232 03cc 104B     		ldr	r3, .L227+52
 4233 03ce 3022     		movs	r2, #48
 4234 03d0 1221     		movs	r1, #18
 4235 03d2 2846     		mov	r0, r5
 4236 03d4 FFF7FEFF 		bl	u8g2_DrawStr
 4237              	.LVL342:
 4238 03d8 F5E6     		b	.L219
 4239              	.L228:
 4240 03da 00BF     		.align	2
 4241              	.L227:
 4242 03dc 00000000 		.word	u8g2
 4243 03e0 00000000 		.word	u8g2_font_6x12_mf
 4244 03e4 00000000 		.word	tram
 4245 03e8 00000000 		.word	nghin
 4246 03ec 00000000 		.word	buff
 4247 03f0 00000000 		.word	chuc
 4248 03f4 14000000 		.word	.LC32
 4249 03f8 00000000 		.word	dv
 4250 03fc 10000000 		.word	.LC31
 4251 0400 00000000 		.word	sys
 4252 0404 00000000 		.word	.LC28
 4253 0408 24000000 		.word	.LC34
 4254 040c 38000000 		.word	.LC35
 4255 0410 48000000 		.word	.LC36
 4256              		.cfi_endproc
 4257              	.LFE82:
 4259              		.section	.text.SetSpeakerEvt,"ax",%progbits
 4260              		.align	1
 4261              		.global	SetSpeakerEvt
 4262              		.syntax unified
 4263              		.thumb
 4264              		.thumb_func
 4265              		.fpu softvfp
 4267              	SetSpeakerEvt:
 4268              	.LFB83:
ARM GAS  /var/folders/rk/zpr83dd14lx588t7kb0yv2b40000gn/T//cc3igAjz.s 			page 96


 879:Src/menu_handler.c **** 
 880:Src/menu_handler.c **** uint16_t SetSpeakerEvt(uint8_t add, uint16_t key)
 881:Src/menu_handler.c **** {
 4269              		.loc 1 881 0
 4270              		.cfi_startproc
 4271              		@ args = 0, pretend = 0, frame = 0
 4272              		@ frame_needed = 0, uses_anonymous_args = 0
 4273              	.LVL343:
 4274 0000 70B5     		push	{r4, r5, r6, lr}
 4275              	.LCFI27:
 4276              		.cfi_def_cfa_offset 16
 4277              		.cfi_offset 4, -16
 4278              		.cfi_offset 5, -12
 4279              		.cfi_offset 6, -8
 4280              		.cfi_offset 14, -4
 4281 0002 0446     		mov	r4, r0
 4282 0004 0D46     		mov	r5, r1
 882:Src/menu_handler.c ****   memset(buff, 0, sizeof(buff));
 4283              		.loc 1 882 0
 4284 0006 5A22     		movs	r2, #90
 4285 0008 0021     		movs	r1, #0
 4286              	.LVL344:
 4287 000a 4648     		ldr	r0, .L241
 4288              	.LVL345:
 4289 000c FFF7FEFF 		bl	memset
 4290              	.LVL346:
 883:Src/menu_handler.c ****   if(treeView[add].keyMode != menuIdxLast)
 4291              		.loc 1 883 0
 4292 0010 6420     		movs	r0, #100
 4293 0012 00FB04F0 		mul	r0, r0, r4
 4294 0016 444B     		ldr	r3, .L241+4
 4295 0018 1A5A     		ldrh	r2, [r3, r0]
 4296 001a 444B     		ldr	r3, .L241+8
 4297 001c 1B88     		ldrh	r3, [r3]
 4298 001e 9A42     		cmp	r2, r3
 4299 0020 03D0     		beq	.L230
 884:Src/menu_handler.c ****     menuValueSet = sys_cfg.speaker;
 4300              		.loc 1 884 0
 4301 0022 434B     		ldr	r3, .L241+12
 4302 0024 1A79     		ldrb	r2, [r3, #4]	@ zero_extendqisi2
 4303 0026 434B     		ldr	r3, .L241+16
 4304 0028 1A80     		strh	r2, [r3]	@ movhi
 4305              	.L230:
 885:Src/menu_handler.c ****   if(key == BTN_UP)
 4306              		.loc 1 885 0
 4307 002a 2DB9     		cbnz	r5, .L231
 886:Src/menu_handler.c ****     if(menuValueSet < 1)
 4308              		.loc 1 886 0
 4309 002c 414B     		ldr	r3, .L241+16
 4310 002e 1B88     		ldrh	r3, [r3]
 4311 0030 13B9     		cbnz	r3, .L231
 887:Src/menu_handler.c ****       menuValueSet++;
 4312              		.loc 1 887 0
 4313 0032 0133     		adds	r3, r3, #1
 4314 0034 3F4A     		ldr	r2, .L241+16
 4315 0036 1380     		strh	r3, [r2]	@ movhi
 4316              	.L231:
ARM GAS  /var/folders/rk/zpr83dd14lx588t7kb0yv2b40000gn/T//cc3igAjz.s 			page 97


 888:Src/menu_handler.c ****   if(key == BTN_DOWN)
 4317              		.loc 1 888 0
 4318 0038 012D     		cmp	r5, #1
 4319 003a 37D0     		beq	.L237
 4320              	.L232:
 889:Src/menu_handler.c ****     if(menuValueSet > 0)
 890:Src/menu_handler.c ****       menuValueSet--;
 891:Src/menu_handler.c **** 
 892:Src/menu_handler.c ****   u8g2_SetFont(&u8g2, u8g2_font_unifont_t_symbols);
 4321              		.loc 1 892 0
 4322 003c 3E4C     		ldr	r4, .L241+20
 4323 003e 3F49     		ldr	r1, .L241+24
 4324 0040 2046     		mov	r0, r4
 4325 0042 FFF7FEFF 		bl	u8g2_SetFont
 4326              	.LVL347:
 893:Src/menu_handler.c ****   u8g2_DrawGlyph(&u8g2, 56, 24, 0x23f6);
 4327              		.loc 1 893 0
 4328 0046 42F2F633 		movw	r3, #9206
 4329 004a 1822     		movs	r2, #24
 4330 004c 3821     		movs	r1, #56
 4331 004e 2046     		mov	r0, r4
 4332 0050 FFF7FEFF 		bl	u8g2_DrawGlyph
 4333              	.LVL348:
 894:Src/menu_handler.c **** 
 895:Src/menu_handler.c ****   if(menuValueSet == 0)
 4334              		.loc 1 895 0
 4335 0054 374B     		ldr	r3, .L241+16
 4336 0056 1B88     		ldrh	r3, [r3]
 4337 0058 83B3     		cbz	r3, .L238
 4338              	.L233:
 896:Src/menu_handler.c ****   {
 897:Src/menu_handler.c ****     u8g2_SetFont(&u8g2, u8g2_font_unifont_t_symbols);
 898:Src/menu_handler.c ****     u8g2_DrawGlyph(&u8g2, 35, 36, 0x2610);
 899:Src/menu_handler.c ****     sprintf((char*)buff, "OFF");
 900:Src/menu_handler.c ****   }
 901:Src/menu_handler.c ****   if(menuValueSet == 1)
 4339              		.loc 1 901 0
 4340 005a 364B     		ldr	r3, .L241+16
 4341 005c 1B88     		ldrh	r3, [r3]
 4342 005e 012B     		cmp	r3, #1
 4343 0060 3CD0     		beq	.L239
 4344              	.L234:
 902:Src/menu_handler.c ****   {
 903:Src/menu_handler.c ****     u8g2_SetFont(&u8g2, u8g2_font_unifont_t_symbols);
 904:Src/menu_handler.c ****     u8g2_DrawGlyph(&u8g2, 35, 36, 0x2611);
 905:Src/menu_handler.c ****     sprintf((char*)buff, "ON");
 906:Src/menu_handler.c ****   }
 907:Src/menu_handler.c ****   u8g2_SetFont(&u8g2, u8g2_font_6x12_mf);
 4345              		.loc 1 907 0
 4346 0062 354C     		ldr	r4, .L241+20
 4347 0064 3649     		ldr	r1, .L241+28
 4348 0066 2046     		mov	r0, r4
 4349 0068 FFF7FEFF 		bl	u8g2_SetFont
 4350              	.LVL349:
 908:Src/menu_handler.c ****   u8g2_DrawStr(&u8g2, ((22 - strlen(buff))/2)*6, 36, buff);
 4351              		.loc 1 908 0
 4352 006c 2D4E     		ldr	r6, .L241
ARM GAS  /var/folders/rk/zpr83dd14lx588t7kb0yv2b40000gn/T//cc3igAjz.s 			page 98


 4353 006e 3046     		mov	r0, r6
 4354 0070 FFF7FEFF 		bl	strlen
 4355              	.LVL350:
 4356 0074 C0F11600 		rsb	r0, r0, #22
 4357 0078 4008     		lsrs	r0, r0, #1
 4358 007a 00EB4000 		add	r0, r0, r0, lsl #1
 4359 007e 4100     		lsls	r1, r0, #1
 4360 0080 3346     		mov	r3, r6
 4361 0082 2422     		movs	r2, #36
 4362 0084 01F0FE01 		and	r1, r1, #254
 4363 0088 2046     		mov	r0, r4
 4364 008a FFF7FEFF 		bl	u8g2_DrawStr
 4365              	.LVL351:
 909:Src/menu_handler.c ****   u8g2_SetFont(&u8g2, u8g2_font_unifont_t_symbols);
 4366              		.loc 1 909 0
 4367 008e 2B49     		ldr	r1, .L241+24
 4368 0090 2046     		mov	r0, r4
 4369 0092 FFF7FEFF 		bl	u8g2_SetFont
 4370              	.LVL352:
 910:Src/menu_handler.c ****   u8g2_DrawGlyph(&u8g2, 56, 50, 0x23f7);
 4371              		.loc 1 910 0
 4372 0096 42F2F733 		movw	r3, #9207
 4373 009a 3222     		movs	r2, #50
 4374 009c 3821     		movs	r1, #56
 4375 009e 2046     		mov	r0, r4
 4376 00a0 FFF7FEFF 		bl	u8g2_DrawGlyph
 4377              	.LVL353:
 911:Src/menu_handler.c ****   if(key == BTN_MENU)
 4378              		.loc 1 911 0
 4379 00a4 042D     		cmp	r5, #4
 4380 00a6 2CD0     		beq	.L240
 4381              	.L235:
 912:Src/menu_handler.c ****   {
 913:Src/menu_handler.c ****     sys_cfg.speaker = (uint8_t)menuValueSet;
 914:Src/menu_handler.c ****     CFG_Save();
 915:Src/menu_handler.c ****     u8g2_SetFont(&u8g2, u8g2_font_6x12_mf);
 916:Src/menu_handler.c ****     u8g2_DrawStr(&u8g2, ((22 - strlen("Saved!"))/2)*6, 60, "Saved!");
 917:Src/menu_handler.c ****   }
 918:Src/menu_handler.c ****   return 0;
 919:Src/menu_handler.c **** }
 4382              		.loc 1 919 0
 4383 00a8 0020     		movs	r0, #0
 4384 00aa 70BD     		pop	{r4, r5, r6, pc}
 4385              	.L237:
 889:Src/menu_handler.c ****       menuValueSet--;
 4386              		.loc 1 889 0
 4387 00ac 214B     		ldr	r3, .L241+16
 4388 00ae 1B88     		ldrh	r3, [r3]
 4389 00b0 002B     		cmp	r3, #0
 4390 00b2 C3D0     		beq	.L232
 890:Src/menu_handler.c **** 
 4391              		.loc 1 890 0
 4392 00b4 013B     		subs	r3, r3, #1
 4393 00b6 1F4A     		ldr	r2, .L241+16
 4394 00b8 1380     		strh	r3, [r2]	@ movhi
 4395 00ba BFE7     		b	.L232
 4396              	.L238:
ARM GAS  /var/folders/rk/zpr83dd14lx588t7kb0yv2b40000gn/T//cc3igAjz.s 			page 99


 897:Src/menu_handler.c ****     u8g2_DrawGlyph(&u8g2, 35, 36, 0x2610);
 4397              		.loc 1 897 0
 4398 00bc 1F49     		ldr	r1, .L241+24
 4399 00be 2046     		mov	r0, r4
 4400 00c0 FFF7FEFF 		bl	u8g2_SetFont
 4401              	.LVL354:
 898:Src/menu_handler.c ****     sprintf((char*)buff, "OFF");
 4402              		.loc 1 898 0
 4403 00c4 42F21063 		movw	r3, #9744
 4404 00c8 2422     		movs	r2, #36
 4405 00ca 2321     		movs	r1, #35
 4406 00cc 2046     		mov	r0, r4
 4407 00ce FFF7FEFF 		bl	u8g2_DrawGlyph
 4408              	.LVL355:
 899:Src/menu_handler.c ****   }
 4409              		.loc 1 899 0
 4410 00d2 1C4B     		ldr	r3, .L241+32
 4411 00d4 1868     		ldr	r0, [r3]
 4412 00d6 134B     		ldr	r3, .L241
 4413 00d8 1860     		str	r0, [r3]	@ unaligned
 4414 00da BEE7     		b	.L233
 4415              	.L239:
 903:Src/menu_handler.c ****     u8g2_DrawGlyph(&u8g2, 35, 36, 0x2611);
 4416              		.loc 1 903 0
 4417 00dc 164C     		ldr	r4, .L241+20
 4418 00de 1749     		ldr	r1, .L241+24
 4419 00e0 2046     		mov	r0, r4
 4420 00e2 FFF7FEFF 		bl	u8g2_SetFont
 4421              	.LVL356:
 904:Src/menu_handler.c ****     sprintf((char*)buff, "ON");
 4422              		.loc 1 904 0
 4423 00e6 42F21163 		movw	r3, #9745
 4424 00ea 2422     		movs	r2, #36
 4425 00ec 2321     		movs	r1, #35
 4426 00ee 2046     		mov	r0, r4
 4427 00f0 FFF7FEFF 		bl	u8g2_DrawGlyph
 4428              	.LVL357:
 905:Src/menu_handler.c ****   }
 4429              		.loc 1 905 0
 4430 00f4 0B4B     		ldr	r3, .L241
 4431 00f6 144A     		ldr	r2, .L241+36
 4432 00f8 1188     		ldrh	r1, [r2]	@ unaligned
 4433 00fa 9278     		ldrb	r2, [r2, #2]	@ zero_extendqisi2
 4434 00fc 1980     		strh	r1, [r3]	@ unaligned
 4435 00fe 9A70     		strb	r2, [r3, #2]
 4436 0100 AFE7     		b	.L234
 4437              	.L240:
 913:Src/menu_handler.c ****     CFG_Save();
 4438              		.loc 1 913 0
 4439 0102 0C4B     		ldr	r3, .L241+16
 4440 0104 1A78     		ldrb	r2, [r3]	@ zero_extendqisi2
 4441 0106 0A4B     		ldr	r3, .L241+12
 4442 0108 1A71     		strb	r2, [r3, #4]
 914:Src/menu_handler.c ****     u8g2_SetFont(&u8g2, u8g2_font_6x12_mf);
 4443              		.loc 1 914 0
 4444 010a FFF7FEFF 		bl	CFG_Save
 4445              	.LVL358:
ARM GAS  /var/folders/rk/zpr83dd14lx588t7kb0yv2b40000gn/T//cc3igAjz.s 			page 100


 915:Src/menu_handler.c ****     u8g2_DrawStr(&u8g2, ((22 - strlen("Saved!"))/2)*6, 60, "Saved!");
 4446              		.loc 1 915 0
 4447 010e 0C49     		ldr	r1, .L241+28
 4448 0110 2046     		mov	r0, r4
 4449 0112 FFF7FEFF 		bl	u8g2_SetFont
 4450              	.LVL359:
 916:Src/menu_handler.c ****   }
 4451              		.loc 1 916 0
 4452 0116 0D4B     		ldr	r3, .L241+40
 4453 0118 3C22     		movs	r2, #60
 4454 011a 3021     		movs	r1, #48
 4455 011c 2046     		mov	r0, r4
 4456 011e FFF7FEFF 		bl	u8g2_DrawStr
 4457              	.LVL360:
 4458 0122 C1E7     		b	.L235
 4459              	.L242:
 4460              		.align	2
 4461              	.L241:
 4462 0124 00000000 		.word	buff
 4463 0128 00000000 		.word	treeView
 4464 012c 00000000 		.word	menuIdxLast
 4465 0130 00000000 		.word	sys_cfg
 4466 0134 00000000 		.word	menuValueSet
 4467 0138 00000000 		.word	u8g2
 4468 013c 00000000 		.word	u8g2_font_unifont_t_symbols
 4469 0140 00000000 		.word	u8g2_font_6x12_mf
 4470 0144 00000000 		.word	.LC13
 4471 0148 00000000 		.word	.LC24
 4472 014c 80000000 		.word	.LC12
 4473              		.cfi_endproc
 4474              	.LFE83:
 4476              		.comm	dv,1,1
 4477              		.comm	chuc,1,1
 4478              		.comm	tram,1,1
 4479              		.comm	nghin,1,1
 4480              		.comm	menuRtc,8,4
 4481              		.comm	logGetBuff,32,4
 4482              		.comm	unit,1,1
 4483              		.comm	ten,1,1
 4484              		.comm	buff,90,4
 4485              		.section	.rodata.ResetUVTimeEvt.str1.4,"aMS",%progbits,1
 4486              		.align	2
 4487              	.LC30:
 4488 0000 456E7465 		.ascii	"Enter Password!\000"
 4488      72205061 
 4488      7373776F 
 4488      72642100 
 4489              	.LC31:
 4490 0010 256400   		.ascii	"%d\000"
 4491 0013 00       		.space	1
 4492              	.LC32:
 4493 0014 25642564 		.ascii	"%d%d%d\000"
 4493      256400
 4494 001b 00       		.space	1
 4495              	.LC33:
 4496 001c 25642564 		.ascii	"%d%d\000"
 4496      00
ARM GAS  /var/folders/rk/zpr83dd14lx588t7kb0yv2b40000gn/T//cc3igAjz.s 			page 101


 4497 0021 000000   		.space	3
 4498              	.LC34:
 4499 0024 04205265 		.ascii	"\004 Reset UV Time!\012\000"
 4499      73657420 
 4499      55562054 
 4499      696D6521 
 4499      0A00
 4500 0036 0000     		.space	2
 4501              	.LC35:
 4502 0038 52657365 		.ascii	"Reset UV Time!\000"
 4502      74205556 
 4502      2054696D 
 4502      652100
 4503 0047 00       		.space	1
 4504              	.LC36:
 4505 0048 57726F6E 		.ascii	"Wrong Password!\000"
 4505      67205061 
 4505      7373776F 
 4505      72642100 
 4506              		.section	.rodata.SetBackLightEvt.str1.4,"aMS",%progbits,1
 4507              		.align	2
 4508              	.LC24:
 4509 0000 4F4E00   		.ascii	"ON\000"
 4510              		.section	.rodata.SetBrighnessEvt.str1.4,"aMS",%progbits,1
 4511              		.align	2
 4512              	.LC22:
 4513 0000 4B657920 		.ascii	"Key pointerFunc: %d\012\000"
 4513      706F696E 
 4513      74657246 
 4513      756E633A 
 4513      2025640A 
 4514 0015 000000   		.space	3
 4515              	.LC23:
 4516 0018 25303364 		.ascii	"%03d%%\000"
 4516      252500
 4517              		.section	.rodata.SetDisplayEvt.str1.4,"aMS",%progbits,1
 4518              		.align	2
 4519              	.LC19:
 4520 0000 4155544F 		.ascii	"AUTO\000"
 4520      00
 4521 0005 000000   		.space	3
 4522              	.LC20:
 4523 0008 4D41494E 		.ascii	"MAIN PAGE\000"
 4523      20504147 
 4523      4500
 4524 0012 0000     		.space	2
 4525              	.LC21:
 4526 0014 494E464F 		.ascii	"INFO PAGE\000"
 4526      20504147 
 4526      4500
 4527              		.section	.rodata.SetPressureEvt.str1.4,"aMS",%progbits,1
 4528              		.align	2
 4529              	.LC18:
 4530 0000 25303030 		.ascii	"%0000d\000"
 4530      306400
 4531              		.section	.rodata.SetTimeEvt.str1.4,"aMS",%progbits,1
 4532              		.align	2
ARM GAS  /var/folders/rk/zpr83dd14lx588t7kb0yv2b40000gn/T//cc3igAjz.s 			page 102


 4533              	.LC0:
 4534 0000 25303264 		.ascii	"%02d\000"
 4534      00
 4535 0005 000000   		.space	3
 4536              	.LC1:
 4537 0008 3A253032 		.ascii	":%02d:%02d\000"
 4537      643A2530 
 4537      326400
 4538 0013 00       		.space	1
 4539              	.LC2:
 4540 0014 25303264 		.ascii	"%02d/%02d/%04d\000"
 4540      2F253032 
 4540      642F2530 
 4540      346400
 4541 0023 00       		.space	1
 4542              	.LC3:
 4543 0024 25303264 		.ascii	"%02d:\000"
 4543      3A00
 4544 002a 0000     		.space	2
 4545              	.LC4:
 4546 002c 3A253032 		.ascii	":%02d\000"
 4546      6400
 4547 0032 0000     		.space	2
 4548              	.LC5:
 4549 0034 25303264 		.ascii	"%02d:%02d:\000"
 4549      3A253032 
 4549      643A00
 4550 003f 00       		.space	1
 4551              	.LC6:
 4552 0040 25303264 		.ascii	"%02d:%02d:%02d\000"
 4552      3A253032 
 4552      643A2530 
 4552      326400
 4553 004f 00       		.space	1
 4554              	.LC7:
 4555 0050 2F253032 		.ascii	"/%02d/%04d\000"
 4555      642F2530 
 4555      346400
 4556 005b 00       		.space	1
 4557              	.LC8:
 4558 005c 25303264 		.ascii	"%02d/\000"
 4558      2F00
 4559 0062 0000     		.space	2
 4560              	.LC9:
 4561 0064 2F253034 		.ascii	"/%04d\000"
 4561      6400
 4562 006a 0000     		.space	2
 4563              	.LC10:
 4564 006c 25303264 		.ascii	"%02d/%02d/\000"
 4564      2F253032 
 4564      642F00
 4565 0077 00       		.space	1
 4566              	.LC11:
 4567 0078 25303464 		.ascii	"%04d\000"
 4567      00
 4568 007d 000000   		.space	3
 4569              	.LC12:
ARM GAS  /var/folders/rk/zpr83dd14lx588t7kb0yv2b40000gn/T//cc3igAjz.s 			page 103


 4570 0080 53617665 		.ascii	"Saved!\000"
 4570      642100
 4571              		.section	.rodata.SetUVEvt.str1.4,"aMS",%progbits,1
 4572              		.align	2
 4573              	.LC13:
 4574 0000 4F464600 		.ascii	"OFF\000"
 4575              	.LC14:
 4576 0004 3135204D 		.ascii	"15 MINUTE\000"
 4576      494E5554 
 4576      4500
 4577 000e 0000     		.space	2
 4578              	.LC15:
 4579 0010 3330204D 		.ascii	"30 MINUTE\000"
 4579      494E5554 
 4579      4500
 4580 001a 0000     		.space	2
 4581              	.LC16:
 4582 001c 3120484F 		.ascii	"1 HOURS\000"
 4582      55525300 
 4583              	.LC17:
 4584 0024 3220484F 		.ascii	"2 HOURS\000"
 4584      55525300 
 4585              		.section	.rodata.ViewFilterTimeEvt.str1.4,"aMS",%progbits,1
 4586              		.align	2
 4587              	.LC27:
 4588 0000 46696C74 		.ascii	"Filter Time Worked!\000"
 4588      65722054 
 4588      696D6520 
 4588      576F726B 
 4588      65642100 
 4589              		.section	.rodata.ViewSystemTimeEvt.str1.4,"aMS",%progbits,1
 4590              		.align	2
 4591              	.LC28:
 4592 0000 25303564 		.ascii	"%05d Hours\000"
 4592      20486F75 
 4592      727300
 4593 000b 00       		.space	1
 4594              	.LC29:
 4595 000c 53797374 		.ascii	"Systems Time Worked!\000"
 4595      656D7320 
 4595      54696D65 
 4595      20576F72 
 4595      6B656421 
 4596              		.section	.rodata.ViewUVTimeEvt.str1.4,"aMS",%progbits,1
 4597              		.align	2
 4598              	.LC25:
 4599 0000 25303464 		.ascii	"%04d Hours\000"
 4599      20486F75 
 4599      727300
 4600 000b 00       		.space	1
 4601              	.LC26:
 4602 000c 55562054 		.ascii	"UV Time Worked!\000"
 4602      696D6520 
 4602      576F726B 
 4602      65642100 
 4603              		.text
 4604              	.Letext0:
ARM GAS  /var/folders/rk/zpr83dd14lx588t7kb0yv2b40000gn/T//cc3igAjz.s 			page 104


 4605              		.file 2 "/usr/local/gcc_arm/gcc-arm-none-eabi-7-2017-q4-major/arm-none-eabi/include/machine/_defau
 4606              		.file 3 "/usr/local/gcc_arm/gcc-arm-none-eabi-7-2017-q4-major/arm-none-eabi/include/sys/_stdint.h"
 4607              		.file 4 "Drivers/CMSIS/Include/core_cm3.h"
 4608              		.file 5 "Drivers/CMSIS/Device/ST/STM32F1xx/Include/system_stm32f1xx.h"
 4609              		.file 6 "Drivers/CMSIS/Device/ST/STM32F1xx/Include/stm32f103xe.h"
 4610              		.file 7 "/usr/local/gcc_arm/gcc-arm-none-eabi-7-2017-q4-major/arm-none-eabi/include/sys/lock.h"
 4611              		.file 8 "/usr/local/gcc_arm/gcc-arm-none-eabi-7-2017-q4-major/arm-none-eabi/include/sys/_types.h"
 4612              		.file 9 "/usr/local/gcc_arm/gcc-arm-none-eabi-7-2017-q4-major/lib/gcc/arm-none-eabi/7.2.1/include/
 4613              		.file 10 "/usr/local/gcc_arm/gcc-arm-none-eabi-7-2017-q4-major/arm-none-eabi/include/sys/reent.h"
 4614              		.file 11 "Drivers/STM32F1xx_HAL_Driver/Inc/stm32f1xx_hal_def.h"
 4615              		.file 12 "Drivers/STM32F1xx_HAL_Driver/Inc/stm32f1xx_hal_dma.h"
 4616              		.file 13 "Drivers/STM32F1xx_HAL_Driver/Inc/stm32f1xx_hal_rtc.h"
 4617              		.file 14 "Drivers/STM32F1xx_HAL_Driver/Inc/stm32f1xx_hal_tim.h"
 4618              		.file 15 "Drivers/STM32F1xx_HAL_Driver/Inc/stm32f1xx_hal.h"
 4619              		.file 16 "u8g2/csrc/u8x8.h"
 4620              		.file 17 "u8g2/csrc/u8g2.h"
 4621              		.file 18 "Inc/main.h"
 4622              		.file 19 "Inc/menu.h"
 4623              		.file 20 "/usr/local/gcc_arm/gcc-arm-none-eabi-7-2017-q4-major/arm-none-eabi/include/time.h"
 4624              		.file 21 "Inc/clock_rtc.h"
 4625              		.file 22 "Inc/info_screen.h"
 4626              		.file 23 "Inc/system.h"
 4627              		.file 24 "Inc/lcd_backlight.h"
 4628              		.file 25 "Inc/config.h"
 4629              		.file 26 "/usr/local/gcc_arm/gcc-arm-none-eabi-7-2017-q4-major/arm-none-eabi/include/string.h"
 4630              		.file 27 "/usr/local/gcc_arm/gcc-arm-none-eabi-7-2017-q4-major/arm-none-eabi/include/stdio.h"
 4631              		.file 28 "<built-in>"
ARM GAS  /var/folders/rk/zpr83dd14lx588t7kb0yv2b40000gn/T//cc3igAjz.s 			page 105

