ARM GAS  C:\Users\behun\AppData\Local\Temp\cco080a6.s 			page 1


   1              		.cpu cortex-m3
   2              		.eabi_attribute 20, 1
   3              		.eabi_attribute 21, 1
   4              		.eabi_attribute 23, 3
   5              		.eabi_attribute 24, 1
   6              		.eabi_attribute 25, 1
   7              		.eabi_attribute 26, 1
   8              		.eabi_attribute 30, 1
   9              		.eabi_attribute 34, 1
  10              		.eabi_attribute 18, 4
  11              		.file	"output.c"
  12              		.text
  13              	.Ltext0:
  14              		.cfi_sections	.debug_frame
  15              		.section	.text.Output_Init,"ax",%progbits
  16              		.align	1
  17              		.global	Output_Init
  18              		.arch armv7-m
  19              		.syntax unified
  20              		.thumb
  21              		.thumb_func
  22              		.fpu softvfp
  24              	Output_Init:
  25              	.LFB66:
  26              		.file 1 "Src/output.c"
   1:Src/output.c  **** #include "output.h"
   2:Src/output.c  **** #include "main_screen.h"
   3:Src/output.c  **** 
   4:Src/output.c  **** void Output_Init(void)
   5:Src/output.c  **** {
  27              		.loc 1 5 1 view -0
  28              		.cfi_startproc
  29              		@ args = 0, pretend = 0, frame = 24
  30              		@ frame_needed = 0, uses_anonymous_args = 0
  31 0000 2DE9F043 		push	{r4, r5, r6, r7, r8, r9, lr}
  32              	.LCFI0:
  33              		.cfi_def_cfa_offset 28
  34              		.cfi_offset 4, -28
  35              		.cfi_offset 5, -24
  36              		.cfi_offset 6, -20
  37              		.cfi_offset 7, -16
  38              		.cfi_offset 8, -12
  39              		.cfi_offset 9, -8
  40              		.cfi_offset 14, -4
  41 0004 87B0     		sub	sp, sp, #28
  42              	.LCFI1:
  43              		.cfi_def_cfa_offset 56
   6:Src/output.c  ****     GPIO_InitTypeDef GPIO_InitStruct = {0};
  44              		.loc 1 6 5 view .LVU1
  45              		.loc 1 6 22 is_stmt 0 view .LVU2
  46 0006 0024     		movs	r4, #0
  47 0008 0494     		str	r4, [sp, #16]
   7:Src/output.c  **** 
   8:Src/output.c  ****     /* GPIO Ports Clock Enable */
   9:Src/output.c  ****     __HAL_RCC_GPIOC_CLK_ENABLE();
  48              		.loc 1 9 5 is_stmt 1 view .LVU3
  49              	.LBB2:
ARM GAS  C:\Users\behun\AppData\Local\Temp\cco080a6.s 			page 2


  50              		.loc 1 9 5 view .LVU4
  51              		.loc 1 9 5 view .LVU5
  52 000a 1D4B     		ldr	r3, .L3
  53 000c 9A69     		ldr	r2, [r3, #24]
  54 000e 42F01002 		orr	r2, r2, #16
  55 0012 9A61     		str	r2, [r3, #24]
  56              		.loc 1 9 5 view .LVU6
  57 0014 9A69     		ldr	r2, [r3, #24]
  58 0016 02F01002 		and	r2, r2, #16
  59 001a 0092     		str	r2, [sp]
  60              		.loc 1 9 5 view .LVU7
  61 001c 009A     		ldr	r2, [sp]
  62              	.LBE2:
  10:Src/output.c  ****     __HAL_RCC_GPIOB_CLK_ENABLE();
  63              		.loc 1 10 5 view .LVU8
  64              	.LBB3:
  65              		.loc 1 10 5 view .LVU9
  66              		.loc 1 10 5 view .LVU10
  67 001e 9A69     		ldr	r2, [r3, #24]
  68 0020 42F00802 		orr	r2, r2, #8
  69 0024 9A61     		str	r2, [r3, #24]
  70              		.loc 1 10 5 view .LVU11
  71 0026 9B69     		ldr	r3, [r3, #24]
  72 0028 03F00803 		and	r3, r3, #8
  73 002c 0193     		str	r3, [sp, #4]
  74              		.loc 1 10 5 view .LVU12
  75 002e 019B     		ldr	r3, [sp, #4]
  76              	.LBE3:
  11:Src/output.c  **** 
  12:Src/output.c  ****     GPIO_InitStruct.Pin = GPIO_PIN_2 | GPIO_PIN_3 | GPIO_PIN_4 | GPIO_PIN_5;
  77              		.loc 1 12 5 view .LVU13
  78              		.loc 1 12 25 is_stmt 0 view .LVU14
  79 0030 4FF03C08 		mov	r8, #60
  80 0034 CDF80880 		str	r8, [sp, #8]
  13:Src/output.c  ****     GPIO_InitStruct.Mode = GPIO_MODE_OUTPUT_PP;
  81              		.loc 1 13 5 is_stmt 1 view .LVU15
  82              		.loc 1 13 26 is_stmt 0 view .LVU16
  83 0038 4FF00109 		mov	r9, #1
  84 003c CDF80C90 		str	r9, [sp, #12]
  14:Src/output.c  ****     GPIO_InitStruct.Pull = GPIO_NOPULL;
  85              		.loc 1 14 5 is_stmt 1 view .LVU17
  15:Src/output.c  ****     GPIO_InitStruct.Speed = GPIO_SPEED_FREQ_LOW;
  86              		.loc 1 15 5 view .LVU18
  87              		.loc 1 15 27 is_stmt 0 view .LVU19
  88 0040 0225     		movs	r5, #2
  89 0042 0595     		str	r5, [sp, #20]
  16:Src/output.c  ****     HAL_GPIO_Init(GPIOB, &GPIO_InitStruct);
  90              		.loc 1 16 5 is_stmt 1 view .LVU20
  91 0044 0F4F     		ldr	r7, .L3+4
  92 0046 02A9     		add	r1, sp, #8
  93 0048 3846     		mov	r0, r7
  94 004a FFF7FEFF 		bl	HAL_GPIO_Init
  95              	.LVL0:
  17:Src/output.c  **** 
  18:Src/output.c  ****     GPIO_InitStruct.Pin = GPIO_PIN_6 | GPIO_PIN_7 | GPIO_PIN_8 | GPIO_PIN_9;
  96              		.loc 1 18 5 view .LVU21
  97              		.loc 1 18 25 is_stmt 0 view .LVU22
ARM GAS  C:\Users\behun\AppData\Local\Temp\cco080a6.s 			page 3


  98 004e 4FF47076 		mov	r6, #960
  99 0052 0296     		str	r6, [sp, #8]
  19:Src/output.c  ****     GPIO_InitStruct.Mode = GPIO_MODE_OUTPUT_PP;
 100              		.loc 1 19 5 is_stmt 1 view .LVU23
 101              		.loc 1 19 26 is_stmt 0 view .LVU24
 102 0054 CDF80C90 		str	r9, [sp, #12]
  20:Src/output.c  ****     GPIO_InitStruct.Pull = GPIO_NOPULL;
 103              		.loc 1 20 5 is_stmt 1 view .LVU25
 104              		.loc 1 20 26 is_stmt 0 view .LVU26
 105 0058 0494     		str	r4, [sp, #16]
  21:Src/output.c  ****     GPIO_InitStruct.Speed = GPIO_SPEED_FREQ_LOW;
 106              		.loc 1 21 5 is_stmt 1 view .LVU27
 107              		.loc 1 21 27 is_stmt 0 view .LVU28
 108 005a 0595     		str	r5, [sp, #20]
  22:Src/output.c  ****     HAL_GPIO_Init(GPIOC, &GPIO_InitStruct);
 109              		.loc 1 22 5 is_stmt 1 view .LVU29
 110 005c 0A4D     		ldr	r5, .L3+8
 111 005e 02A9     		add	r1, sp, #8
 112 0060 2846     		mov	r0, r5
 113 0062 FFF7FEFF 		bl	HAL_GPIO_Init
 114              	.LVL1:
  23:Src/output.c  **** 
  24:Src/output.c  ****     HAL_GPIO_WritePin(GPIOB, GPIO_PIN_2 | GPIO_PIN_3 | GPIO_PIN_4 | GPIO_PIN_5, GPIO_PIN_RESET);
 115              		.loc 1 24 5 view .LVU30
 116 0066 2246     		mov	r2, r4
 117 0068 4146     		mov	r1, r8
 118 006a 3846     		mov	r0, r7
 119 006c FFF7FEFF 		bl	HAL_GPIO_WritePin
 120              	.LVL2:
  25:Src/output.c  ****     HAL_GPIO_WritePin(GPIOC, GPIO_PIN_6 | GPIO_PIN_7 | GPIO_PIN_8 | GPIO_PIN_9, GPIO_PIN_RESET);
 121              		.loc 1 25 5 view .LVU31
 122 0070 2246     		mov	r2, r4
 123 0072 3146     		mov	r1, r6
 124 0074 2846     		mov	r0, r5
 125 0076 FFF7FEFF 		bl	HAL_GPIO_WritePin
 126              	.LVL3:
  26:Src/output.c  **** }
 127              		.loc 1 26 1 is_stmt 0 view .LVU32
 128 007a 07B0     		add	sp, sp, #28
 129              	.LCFI2:
 130              		.cfi_def_cfa_offset 28
 131              		@ sp needed
 132 007c BDE8F083 		pop	{r4, r5, r6, r7, r8, r9, pc}
 133              	.L4:
 134              		.align	2
 135              	.L3:
 136 0080 00100240 		.word	1073876992
 137 0084 000C0140 		.word	1073810432
 138 0088 00100140 		.word	1073811456
 139              		.cfi_endproc
 140              	.LFE66:
 142              		.section	.text.SW_Neon,"ax",%progbits
 143              		.align	1
 144              		.global	SW_Neon
 145              		.syntax unified
 146              		.thumb
 147              		.thumb_func
ARM GAS  C:\Users\behun\AppData\Local\Temp\cco080a6.s 			page 4


 148              		.fpu softvfp
 150              	SW_Neon:
 151              	.LVL4:
 152              	.LFB67:
  27:Src/output.c  **** 
  28:Src/output.c  **** void SW_Neon(uint8_t neonStatus)
  29:Src/output.c  **** {
 153              		.loc 1 29 1 is_stmt 1 view -0
 154              		.cfi_startproc
 155              		@ args = 0, pretend = 0, frame = 0
 156              		@ frame_needed = 0, uses_anonymous_args = 0
 157              		.loc 1 29 1 is_stmt 0 view .LVU34
 158 0000 08B5     		push	{r3, lr}
 159              	.LCFI3:
 160              		.cfi_def_cfa_offset 8
 161              		.cfi_offset 3, -8
 162              		.cfi_offset 14, -4
  30:Src/output.c  ****     if (neonStatus)
 163              		.loc 1 30 5 is_stmt 1 view .LVU35
 164              		.loc 1 30 8 is_stmt 0 view .LVU36
 165 0002 28B1     		cbz	r0, .L6
  31:Src/output.c  ****         HAL_GPIO_WritePin(GPIOB, GPIO_PIN_2, GPIO_PIN_SET);
 166              		.loc 1 31 9 is_stmt 1 view .LVU37
 167 0004 0122     		movs	r2, #1
 168 0006 0421     		movs	r1, #4
 169 0008 0448     		ldr	r0, .L9
 170              	.LVL5:
 171              		.loc 1 31 9 is_stmt 0 view .LVU38
 172 000a FFF7FEFF 		bl	HAL_GPIO_WritePin
 173              	.LVL6:
 174              	.L5:
  32:Src/output.c  ****     else
  33:Src/output.c  ****         HAL_GPIO_WritePin(GPIOB, GPIO_PIN_2, GPIO_PIN_RESET);
  34:Src/output.c  **** }
 175              		.loc 1 34 1 view .LVU39
 176 000e 08BD     		pop	{r3, pc}
 177              	.LVL7:
 178              	.L6:
  33:Src/output.c  **** }
 179              		.loc 1 33 9 is_stmt 1 view .LVU40
 180 0010 0022     		movs	r2, #0
 181 0012 0421     		movs	r1, #4
 182 0014 0148     		ldr	r0, .L9
 183              	.LVL8:
  33:Src/output.c  **** }
 184              		.loc 1 33 9 is_stmt 0 view .LVU41
 185 0016 FFF7FEFF 		bl	HAL_GPIO_WritePin
 186              	.LVL9:
 187              		.loc 1 34 1 view .LVU42
 188 001a F8E7     		b	.L5
 189              	.L10:
 190              		.align	2
 191              	.L9:
 192 001c 000C0140 		.word	1073810432
 193              		.cfi_endproc
 194              	.LFE67:
 196              		.section	.text.SW_Uv,"ax",%progbits
ARM GAS  C:\Users\behun\AppData\Local\Temp\cco080a6.s 			page 5


 197              		.align	1
 198              		.global	SW_Uv
 199              		.syntax unified
 200              		.thumb
 201              		.thumb_func
 202              		.fpu softvfp
 204              	SW_Uv:
 205              	.LVL10:
 206              	.LFB68:
  35:Src/output.c  **** void SW_Uv(uint8_t uvStatus)
  36:Src/output.c  **** {
 207              		.loc 1 36 1 is_stmt 1 view -0
 208              		.cfi_startproc
 209              		@ args = 0, pretend = 0, frame = 0
 210              		@ frame_needed = 0, uses_anonymous_args = 0
 211              		.loc 1 36 1 is_stmt 0 view .LVU44
 212 0000 08B5     		push	{r3, lr}
 213              	.LCFI4:
 214              		.cfi_def_cfa_offset 8
 215              		.cfi_offset 3, -8
 216              		.cfi_offset 14, -4
  37:Src/output.c  ****     if (uvStatus)
 217              		.loc 1 37 5 is_stmt 1 view .LVU45
 218              		.loc 1 37 8 is_stmt 0 view .LVU46
 219 0002 28B1     		cbz	r0, .L12
  38:Src/output.c  ****         HAL_GPIO_WritePin(GPIOB, GPIO_PIN_3, GPIO_PIN_SET);
 220              		.loc 1 38 9 is_stmt 1 view .LVU47
 221 0004 0122     		movs	r2, #1
 222 0006 0821     		movs	r1, #8
 223 0008 0448     		ldr	r0, .L15
 224              	.LVL11:
 225              		.loc 1 38 9 is_stmt 0 view .LVU48
 226 000a FFF7FEFF 		bl	HAL_GPIO_WritePin
 227              	.LVL12:
 228              	.L11:
  39:Src/output.c  ****     else
  40:Src/output.c  ****         HAL_GPIO_WritePin(GPIOB, GPIO_PIN_3, GPIO_PIN_RESET);
  41:Src/output.c  **** }
 229              		.loc 1 41 1 view .LVU49
 230 000e 08BD     		pop	{r3, pc}
 231              	.LVL13:
 232              	.L12:
  40:Src/output.c  **** }
 233              		.loc 1 40 9 is_stmt 1 view .LVU50
 234 0010 0022     		movs	r2, #0
 235 0012 0821     		movs	r1, #8
 236 0014 0148     		ldr	r0, .L15
 237              	.LVL14:
  40:Src/output.c  **** }
 238              		.loc 1 40 9 is_stmt 0 view .LVU51
 239 0016 FFF7FEFF 		bl	HAL_GPIO_WritePin
 240              	.LVL15:
 241              		.loc 1 41 1 view .LVU52
 242 001a F8E7     		b	.L11
 243              	.L16:
 244              		.align	2
 245              	.L15:
ARM GAS  C:\Users\behun\AppData\Local\Temp\cco080a6.s 			page 6


 246 001c 000C0140 		.word	1073810432
 247              		.cfi_endproc
 248              	.LFE68:
 250              		.section	.text.SW_Fan,"ax",%progbits
 251              		.align	1
 252              		.global	SW_Fan
 253              		.syntax unified
 254              		.thumb
 255              		.thumb_func
 256              		.fpu softvfp
 258              	SW_Fan:
 259              	.LVL16:
 260              	.LFB69:
  42:Src/output.c  **** void SW_Fan(uint8_t fanStatus)
  43:Src/output.c  **** {
 261              		.loc 1 43 1 is_stmt 1 view -0
 262              		.cfi_startproc
 263              		@ args = 0, pretend = 0, frame = 0
 264              		@ frame_needed = 0, uses_anonymous_args = 0
 265              		.loc 1 43 1 is_stmt 0 view .LVU54
 266 0000 08B5     		push	{r3, lr}
 267              	.LCFI5:
 268              		.cfi_def_cfa_offset 8
 269              		.cfi_offset 3, -8
 270              		.cfi_offset 14, -4
  44:Src/output.c  ****     if (fanStatus)
 271              		.loc 1 44 5 is_stmt 1 view .LVU55
 272              		.loc 1 44 8 is_stmt 0 view .LVU56
 273 0002 28B1     		cbz	r0, .L18
  45:Src/output.c  ****         HAL_GPIO_WritePin(GPIOB, GPIO_PIN_4, GPIO_PIN_SET);
 274              		.loc 1 45 9 is_stmt 1 view .LVU57
 275 0004 0122     		movs	r2, #1
 276 0006 1021     		movs	r1, #16
 277 0008 0448     		ldr	r0, .L21
 278              	.LVL17:
 279              		.loc 1 45 9 is_stmt 0 view .LVU58
 280 000a FFF7FEFF 		bl	HAL_GPIO_WritePin
 281              	.LVL18:
 282              	.L17:
  46:Src/output.c  ****     else
  47:Src/output.c  ****         HAL_GPIO_WritePin(GPIOB, GPIO_PIN_4, GPIO_PIN_RESET);
  48:Src/output.c  **** }
 283              		.loc 1 48 1 view .LVU59
 284 000e 08BD     		pop	{r3, pc}
 285              	.LVL19:
 286              	.L18:
  47:Src/output.c  **** }
 287              		.loc 1 47 9 is_stmt 1 view .LVU60
 288 0010 0022     		movs	r2, #0
 289 0012 1021     		movs	r1, #16
 290 0014 0148     		ldr	r0, .L21
 291              	.LVL20:
  47:Src/output.c  **** }
 292              		.loc 1 47 9 is_stmt 0 view .LVU61
 293 0016 FFF7FEFF 		bl	HAL_GPIO_WritePin
 294              	.LVL21:
 295              		.loc 1 48 1 view .LVU62
ARM GAS  C:\Users\behun\AppData\Local\Temp\cco080a6.s 			page 7


 296 001a F8E7     		b	.L17
 297              	.L22:
 298              		.align	2
 299              	.L21:
 300 001c 000C0140 		.word	1073810432
 301              		.cfi_endproc
 302              	.LFE69:
 304              		.section	.text.SW_Socket,"ax",%progbits
 305              		.align	1
 306              		.global	SW_Socket
 307              		.syntax unified
 308              		.thumb
 309              		.thumb_func
 310              		.fpu softvfp
 312              	SW_Socket:
 313              	.LVL22:
 314              	.LFB70:
  49:Src/output.c  **** void SW_Socket(uint8_t socketStatus)
  50:Src/output.c  **** {
 315              		.loc 1 50 1 is_stmt 1 view -0
 316              		.cfi_startproc
 317              		@ args = 0, pretend = 0, frame = 0
 318              		@ frame_needed = 0, uses_anonymous_args = 0
 319              		.loc 1 50 1 is_stmt 0 view .LVU64
 320 0000 08B5     		push	{r3, lr}
 321              	.LCFI6:
 322              		.cfi_def_cfa_offset 8
 323              		.cfi_offset 3, -8
 324              		.cfi_offset 14, -4
  51:Src/output.c  ****     if (socketStatus)
 325              		.loc 1 51 5 is_stmt 1 view .LVU65
 326              		.loc 1 51 8 is_stmt 0 view .LVU66
 327 0002 28B1     		cbz	r0, .L24
  52:Src/output.c  ****         HAL_GPIO_WritePin(GPIOB, GPIO_PIN_5, GPIO_PIN_SET);
 328              		.loc 1 52 9 is_stmt 1 view .LVU67
 329 0004 0122     		movs	r2, #1
 330 0006 2021     		movs	r1, #32
 331 0008 0448     		ldr	r0, .L27
 332              	.LVL23:
 333              		.loc 1 52 9 is_stmt 0 view .LVU68
 334 000a FFF7FEFF 		bl	HAL_GPIO_WritePin
 335              	.LVL24:
 336              	.L23:
  53:Src/output.c  ****     else
  54:Src/output.c  ****         HAL_GPIO_WritePin(GPIOB, GPIO_PIN_5, GPIO_PIN_RESET);
  55:Src/output.c  **** }
 337              		.loc 1 55 1 view .LVU69
 338 000e 08BD     		pop	{r3, pc}
 339              	.LVL25:
 340              	.L24:
  54:Src/output.c  **** }
 341              		.loc 1 54 9 is_stmt 1 view .LVU70
 342 0010 0022     		movs	r2, #0
 343 0012 2021     		movs	r1, #32
 344 0014 0148     		ldr	r0, .L27
 345              	.LVL26:
  54:Src/output.c  **** }
ARM GAS  C:\Users\behun\AppData\Local\Temp\cco080a6.s 			page 8


 346              		.loc 1 54 9 is_stmt 0 view .LVU71
 347 0016 FFF7FEFF 		bl	HAL_GPIO_WritePin
 348              	.LVL27:
 349              		.loc 1 55 1 view .LVU72
 350 001a F8E7     		b	.L23
 351              	.L28:
 352              		.align	2
 353              	.L27:
 354 001c 000C0140 		.word	1073810432
 355              		.cfi_endproc
 356              	.LFE70:
 358              		.section	.text.Output_Manage,"ax",%progbits
 359              		.align	1
 360              		.global	Output_Manage
 361              		.syntax unified
 362              		.thumb
 363              		.thumb_func
 364              		.fpu softvfp
 366              	Output_Manage:
 367              	.LFB71:
  56:Src/output.c  **** void Output_Manage(void)
  57:Src/output.c  **** {
 368              		.loc 1 57 1 is_stmt 1 view -0
 369              		.cfi_startproc
 370              		@ args = 0, pretend = 0, frame = 0
 371              		@ frame_needed = 0, uses_anonymous_args = 0
 372 0000 10B5     		push	{r4, lr}
 373              	.LCFI7:
 374              		.cfi_def_cfa_offset 8
 375              		.cfi_offset 4, -8
 376              		.cfi_offset 14, -4
  58:Src/output.c  ****     SW_Neon(main_scr.lampStatus);
 377              		.loc 1 58 5 view .LVU74
 378 0002 074C     		ldr	r4, .L31
 379 0004 2078     		ldrb	r0, [r4]	@ zero_extendqisi2
 380 0006 FFF7FEFF 		bl	SW_Neon
 381              	.LVL28:
  59:Src/output.c  ****     SW_Uv(main_scr.uvStatus);
 382              		.loc 1 59 5 view .LVU75
 383 000a 6078     		ldrb	r0, [r4, #1]	@ zero_extendqisi2
 384 000c FFF7FEFF 		bl	SW_Uv
 385              	.LVL29:
  60:Src/output.c  ****     SW_Fan(main_scr.fanStatus);
 386              		.loc 1 60 5 view .LVU76
 387 0010 A078     		ldrb	r0, [r4, #2]	@ zero_extendqisi2
 388 0012 FFF7FEFF 		bl	SW_Fan
 389              	.LVL30:
  61:Src/output.c  ****     SW_Socket(main_scr.socketStatus);
 390              		.loc 1 61 5 view .LVU77
 391 0016 E078     		ldrb	r0, [r4, #3]	@ zero_extendqisi2
 392 0018 FFF7FEFF 		bl	SW_Socket
 393              	.LVL31:
  62:Src/output.c  **** }...
 394              		.loc 1 62 1 is_stmt 0 view .LVU78
 395 001c 10BD     		pop	{r4, pc}
 396              	.L32:
 397 001e 00BF     		.align	2
ARM GAS  C:\Users\behun\AppData\Local\Temp\cco080a6.s 			page 9


 398              	.L31:
 399 0020 00000000 		.word	main_scr
 400              		.cfi_endproc
 401              	.LFE71:
 403              		.comm	bmp_temp,8,4
 404              		.text
 405              	.Letext0:
 406              		.file 2 "c:\\program files (x86)\\gnu tools arm embedded\\8 2019-q3-update\\arm-none-eabi\\include
 407              		.file 3 "c:\\program files (x86)\\gnu tools arm embedded\\8 2019-q3-update\\arm-none-eabi\\include
 408              		.file 4 "Drivers/CMSIS/Include/core_cm3.h"
 409              		.file 5 "Drivers/CMSIS/Device/ST/STM32F1xx/Include/system_stm32f1xx.h"
 410              		.file 6 "Drivers/CMSIS/Device/ST/STM32F1xx/Include/stm32f103xe.h"
 411              		.file 7 "c:\\program files (x86)\\gnu tools arm embedded\\8 2019-q3-update\\lib\\gcc\\arm-none-eab
 412              		.file 8 "c:\\program files (x86)\\gnu tools arm embedded\\8 2019-q3-update\\arm-none-eabi\\include
 413              		.file 9 "c:\\program files (x86)\\gnu tools arm embedded\\8 2019-q3-update\\arm-none-eabi\\include
 414              		.file 10 "c:\\program files (x86)\\gnu tools arm embedded\\8 2019-q3-update\\arm-none-eabi\\includ
 415              		.file 11 "Drivers/STM32F1xx_HAL_Driver/Inc/stm32f1xx_hal_gpio.h"
 416              		.file 12 "Drivers/STM32F1xx_HAL_Driver/Inc/stm32f1xx_hal.h"
 417              		.file 13 "Inc/user_bitmap.h"
 418              		.file 14 "Inc/main_screen.h"
ARM GAS  C:\Users\behun\AppData\Local\Temp\cco080a6.s 			page 10


DEFINED SYMBOLS
                            *ABS*:00000000 output.c
C:\Users\behun\AppData\Local\Temp\cco080a6.s:16     .text.Output_Init:00000000 $t
C:\Users\behun\AppData\Local\Temp\cco080a6.s:24     .text.Output_Init:00000000 Output_Init
C:\Users\behun\AppData\Local\Temp\cco080a6.s:136    .text.Output_Init:00000080 $d
C:\Users\behun\AppData\Local\Temp\cco080a6.s:143    .text.SW_Neon:00000000 $t
C:\Users\behun\AppData\Local\Temp\cco080a6.s:150    .text.SW_Neon:00000000 SW_Neon
C:\Users\behun\AppData\Local\Temp\cco080a6.s:192    .text.SW_Neon:0000001c $d
C:\Users\behun\AppData\Local\Temp\cco080a6.s:197    .text.SW_Uv:00000000 $t
C:\Users\behun\AppData\Local\Temp\cco080a6.s:204    .text.SW_Uv:00000000 SW_Uv
C:\Users\behun\AppData\Local\Temp\cco080a6.s:246    .text.SW_Uv:0000001c $d
C:\Users\behun\AppData\Local\Temp\cco080a6.s:251    .text.SW_Fan:00000000 $t
C:\Users\behun\AppData\Local\Temp\cco080a6.s:258    .text.SW_Fan:00000000 SW_Fan
C:\Users\behun\AppData\Local\Temp\cco080a6.s:300    .text.SW_Fan:0000001c $d
C:\Users\behun\AppData\Local\Temp\cco080a6.s:305    .text.SW_Socket:00000000 $t
C:\Users\behun\AppData\Local\Temp\cco080a6.s:312    .text.SW_Socket:00000000 SW_Socket
C:\Users\behun\AppData\Local\Temp\cco080a6.s:354    .text.SW_Socket:0000001c $d
C:\Users\behun\AppData\Local\Temp\cco080a6.s:359    .text.Output_Manage:00000000 $t
C:\Users\behun\AppData\Local\Temp\cco080a6.s:366    .text.Output_Manage:00000000 Output_Manage
C:\Users\behun\AppData\Local\Temp\cco080a6.s:399    .text.Output_Manage:00000020 $d
                            *COM*:00000008 bmp_temp

UNDEFINED SYMBOLS
HAL_GPIO_Init
HAL_GPIO_WritePin
main_scr
