ARM GAS  C:\Users\behun\AppData\Local\Temp\ccPBRhp9.s 			page 1


   1              		.cpu cortex-m3
   2              		.eabi_attribute 20, 1
   3              		.eabi_attribute 21, 1
   4              		.eabi_attribute 23, 3
   5              		.eabi_attribute 24, 1
   6              		.eabi_attribute 25, 1
   7              		.eabi_attribute 26, 1
   8              		.eabi_attribute 30, 1
   9              		.eabi_attribute 34, 1
  10              		.eabi_attribute 18, 4
  11              		.file	"stm32f1xx_hal_iwdg.c"
  12              		.text
  13              	.Ltext0:
  14              		.cfi_sections	.debug_frame
  15              		.section	.text.HAL_IWDG_Init,"ax",%progbits
  16              		.align	1
  17              		.global	HAL_IWDG_Init
  18              		.arch armv7-m
  19              		.syntax unified
  20              		.thumb
  21              		.thumb_func
  22              		.fpu softvfp
  24              	HAL_IWDG_Init:
  25              	.LVL0:
  26              	.LFB66:
  27              		.file 1 "Drivers/STM32F1xx_HAL_Driver/Src/stm32f1xx_hal_iwdg.c"
   1:Drivers/STM32F1xx_HAL_Driver/Src/stm32f1xx_hal_iwdg.c **** /**
   2:Drivers/STM32F1xx_HAL_Driver/Src/stm32f1xx_hal_iwdg.c ****   ******************************************************************************
   3:Drivers/STM32F1xx_HAL_Driver/Src/stm32f1xx_hal_iwdg.c ****   * @file    stm32f1xx_hal_iwdg.c
   4:Drivers/STM32F1xx_HAL_Driver/Src/stm32f1xx_hal_iwdg.c ****   * @author  MCD Application Team
   5:Drivers/STM32F1xx_HAL_Driver/Src/stm32f1xx_hal_iwdg.c ****   * @brief   IWDG HAL module driver.
   6:Drivers/STM32F1xx_HAL_Driver/Src/stm32f1xx_hal_iwdg.c ****   *          This file provides firmware functions to manage the following
   7:Drivers/STM32F1xx_HAL_Driver/Src/stm32f1xx_hal_iwdg.c ****   *          functionalities of the Independent Watchdog (IWDG) peripheral:
   8:Drivers/STM32F1xx_HAL_Driver/Src/stm32f1xx_hal_iwdg.c ****   *           + Initialization and Start functions
   9:Drivers/STM32F1xx_HAL_Driver/Src/stm32f1xx_hal_iwdg.c ****   *           + IO operation functions
  10:Drivers/STM32F1xx_HAL_Driver/Src/stm32f1xx_hal_iwdg.c ****   *
  11:Drivers/STM32F1xx_HAL_Driver/Src/stm32f1xx_hal_iwdg.c ****   @verbatim
  12:Drivers/STM32F1xx_HAL_Driver/Src/stm32f1xx_hal_iwdg.c ****   ==============================================================================
  13:Drivers/STM32F1xx_HAL_Driver/Src/stm32f1xx_hal_iwdg.c ****                     ##### IWDG Generic features #####
  14:Drivers/STM32F1xx_HAL_Driver/Src/stm32f1xx_hal_iwdg.c ****   ==============================================================================
  15:Drivers/STM32F1xx_HAL_Driver/Src/stm32f1xx_hal_iwdg.c ****   [..]
  16:Drivers/STM32F1xx_HAL_Driver/Src/stm32f1xx_hal_iwdg.c ****     (+) The IWDG can be started by either software or hardware (configurable
  17:Drivers/STM32F1xx_HAL_Driver/Src/stm32f1xx_hal_iwdg.c ****         through option byte).
  18:Drivers/STM32F1xx_HAL_Driver/Src/stm32f1xx_hal_iwdg.c **** 
  19:Drivers/STM32F1xx_HAL_Driver/Src/stm32f1xx_hal_iwdg.c ****     (+) The IWDG is clocked by Low-Speed clock (LSI) and thus stays active even
  20:Drivers/STM32F1xx_HAL_Driver/Src/stm32f1xx_hal_iwdg.c ****         if the main clock fails.
  21:Drivers/STM32F1xx_HAL_Driver/Src/stm32f1xx_hal_iwdg.c **** 
  22:Drivers/STM32F1xx_HAL_Driver/Src/stm32f1xx_hal_iwdg.c ****     (+) Once the IWDG is started, the LSI is forced ON and both can not be
  23:Drivers/STM32F1xx_HAL_Driver/Src/stm32f1xx_hal_iwdg.c ****         disabled. The counter starts counting down from the reset value (0xFFF).
  24:Drivers/STM32F1xx_HAL_Driver/Src/stm32f1xx_hal_iwdg.c ****         When it reaches the end of count value (0x000) a reset signal is
  25:Drivers/STM32F1xx_HAL_Driver/Src/stm32f1xx_hal_iwdg.c ****         generated (IWDG reset).
  26:Drivers/STM32F1xx_HAL_Driver/Src/stm32f1xx_hal_iwdg.c **** 
  27:Drivers/STM32F1xx_HAL_Driver/Src/stm32f1xx_hal_iwdg.c ****     (+) Whenever the key value 0x0000 AAAA is written in the IWDG_KR register,
  28:Drivers/STM32F1xx_HAL_Driver/Src/stm32f1xx_hal_iwdg.c ****         the IWDG_RLR value is reloaded in the counter and the watchdog reset is
  29:Drivers/STM32F1xx_HAL_Driver/Src/stm32f1xx_hal_iwdg.c ****         prevented.
  30:Drivers/STM32F1xx_HAL_Driver/Src/stm32f1xx_hal_iwdg.c **** 
  31:Drivers/STM32F1xx_HAL_Driver/Src/stm32f1xx_hal_iwdg.c ****     (+) The IWDG is implemented in the VDD voltage domain that is still functional
ARM GAS  C:\Users\behun\AppData\Local\Temp\ccPBRhp9.s 			page 2


  32:Drivers/STM32F1xx_HAL_Driver/Src/stm32f1xx_hal_iwdg.c ****         in STOP and STANDBY mode (IWDG reset can wake-up from STANDBY).
  33:Drivers/STM32F1xx_HAL_Driver/Src/stm32f1xx_hal_iwdg.c ****         IWDGRST flag in RCC_CSR register can be used to inform when an IWDG
  34:Drivers/STM32F1xx_HAL_Driver/Src/stm32f1xx_hal_iwdg.c ****         reset occurs.
  35:Drivers/STM32F1xx_HAL_Driver/Src/stm32f1xx_hal_iwdg.c **** 
  36:Drivers/STM32F1xx_HAL_Driver/Src/stm32f1xx_hal_iwdg.c ****     (+) Debug mode : When the microcontroller enters debug mode (core halted),
  37:Drivers/STM32F1xx_HAL_Driver/Src/stm32f1xx_hal_iwdg.c ****         the IWDG counter either continues to work normally or stops, depending
  38:Drivers/STM32F1xx_HAL_Driver/Src/stm32f1xx_hal_iwdg.c ****         on DBG_IWDG_STOP configuration bit in DBG module, accessible through
  39:Drivers/STM32F1xx_HAL_Driver/Src/stm32f1xx_hal_iwdg.c ****         __HAL_DBGMCU_FREEZE_IWDG() and __HAL_DBGMCU_UNFREEZE_IWDG() macros
  40:Drivers/STM32F1xx_HAL_Driver/Src/stm32f1xx_hal_iwdg.c **** 
  41:Drivers/STM32F1xx_HAL_Driver/Src/stm32f1xx_hal_iwdg.c ****     [..] Min-max timeout value @32KHz (LSI): ~125us / ~32.7s
  42:Drivers/STM32F1xx_HAL_Driver/Src/stm32f1xx_hal_iwdg.c ****          The IWDG timeout may vary due to LSI frequency dispersion. STM32F1xx
  43:Drivers/STM32F1xx_HAL_Driver/Src/stm32f1xx_hal_iwdg.c ****          devices provide the capability to measure the LSI frequency (LSI clock
  44:Drivers/STM32F1xx_HAL_Driver/Src/stm32f1xx_hal_iwdg.c ****          connected internally to TIM5 CH4 input capture). The measured value
  45:Drivers/STM32F1xx_HAL_Driver/Src/stm32f1xx_hal_iwdg.c ****          can be used to have an IWDG timeout with an acceptable accuracy.
  46:Drivers/STM32F1xx_HAL_Driver/Src/stm32f1xx_hal_iwdg.c **** 
  47:Drivers/STM32F1xx_HAL_Driver/Src/stm32f1xx_hal_iwdg.c ****                      ##### How to use this driver #####
  48:Drivers/STM32F1xx_HAL_Driver/Src/stm32f1xx_hal_iwdg.c ****   ==============================================================================
  49:Drivers/STM32F1xx_HAL_Driver/Src/stm32f1xx_hal_iwdg.c ****   [..]
  50:Drivers/STM32F1xx_HAL_Driver/Src/stm32f1xx_hal_iwdg.c ****     (#) Use IWDG using HAL_IWDG_Init() function to :
  51:Drivers/STM32F1xx_HAL_Driver/Src/stm32f1xx_hal_iwdg.c ****       (++) Enable instance by writing Start keyword in IWDG_KEY register. LSI
  52:Drivers/STM32F1xx_HAL_Driver/Src/stm32f1xx_hal_iwdg.c ****            clock is forced ON and IWDG counter starts downcounting.
  53:Drivers/STM32F1xx_HAL_Driver/Src/stm32f1xx_hal_iwdg.c ****       (++) Enable write access to configuration register: IWDG_PR & IWDG_RLR.
  54:Drivers/STM32F1xx_HAL_Driver/Src/stm32f1xx_hal_iwdg.c ****       (++) Configure the IWDG prescaler and counter reload value. This reload
  55:Drivers/STM32F1xx_HAL_Driver/Src/stm32f1xx_hal_iwdg.c ****            value will be loaded in the IWDG counter each time the watchdog is
  56:Drivers/STM32F1xx_HAL_Driver/Src/stm32f1xx_hal_iwdg.c ****            reloaded, then the IWDG will start counting down from this value.
  57:Drivers/STM32F1xx_HAL_Driver/Src/stm32f1xx_hal_iwdg.c ****       (++) wait for status flags to be reset"
  58:Drivers/STM32F1xx_HAL_Driver/Src/stm32f1xx_hal_iwdg.c **** 
  59:Drivers/STM32F1xx_HAL_Driver/Src/stm32f1xx_hal_iwdg.c ****     (#) Then the application program must refresh the IWDG counter at regular
  60:Drivers/STM32F1xx_HAL_Driver/Src/stm32f1xx_hal_iwdg.c ****         intervals during normal operation to prevent an MCU reset, using
  61:Drivers/STM32F1xx_HAL_Driver/Src/stm32f1xx_hal_iwdg.c ****         HAL_IWDG_Refresh() function.
  62:Drivers/STM32F1xx_HAL_Driver/Src/stm32f1xx_hal_iwdg.c **** 
  63:Drivers/STM32F1xx_HAL_Driver/Src/stm32f1xx_hal_iwdg.c ****      *** IWDG HAL driver macros list ***
  64:Drivers/STM32F1xx_HAL_Driver/Src/stm32f1xx_hal_iwdg.c ****      ====================================
  65:Drivers/STM32F1xx_HAL_Driver/Src/stm32f1xx_hal_iwdg.c ****      [..]
  66:Drivers/STM32F1xx_HAL_Driver/Src/stm32f1xx_hal_iwdg.c ****        Below the list of most used macros in IWDG HAL driver:
  67:Drivers/STM32F1xx_HAL_Driver/Src/stm32f1xx_hal_iwdg.c ****       (+) __HAL_IWDG_START: Enable the IWDG peripheral
  68:Drivers/STM32F1xx_HAL_Driver/Src/stm32f1xx_hal_iwdg.c ****       (+) __HAL_IWDG_RELOAD_COUNTER: Reloads IWDG counter with value defined in
  69:Drivers/STM32F1xx_HAL_Driver/Src/stm32f1xx_hal_iwdg.c ****           the reload register
  70:Drivers/STM32F1xx_HAL_Driver/Src/stm32f1xx_hal_iwdg.c **** 
  71:Drivers/STM32F1xx_HAL_Driver/Src/stm32f1xx_hal_iwdg.c ****   @endverbatim
  72:Drivers/STM32F1xx_HAL_Driver/Src/stm32f1xx_hal_iwdg.c ****   ******************************************************************************
  73:Drivers/STM32F1xx_HAL_Driver/Src/stm32f1xx_hal_iwdg.c ****   * @attention
  74:Drivers/STM32F1xx_HAL_Driver/Src/stm32f1xx_hal_iwdg.c ****   *
  75:Drivers/STM32F1xx_HAL_Driver/Src/stm32f1xx_hal_iwdg.c ****   * <h2><center>&copy; COPYRIGHT(c) 2016 STMicroelectronics</center></h2>
  76:Drivers/STM32F1xx_HAL_Driver/Src/stm32f1xx_hal_iwdg.c ****   *
  77:Drivers/STM32F1xx_HAL_Driver/Src/stm32f1xx_hal_iwdg.c ****   * Redistribution and use in source and binary forms, with or without modification,
  78:Drivers/STM32F1xx_HAL_Driver/Src/stm32f1xx_hal_iwdg.c ****   * are permitted provided that the following conditions are met:
  79:Drivers/STM32F1xx_HAL_Driver/Src/stm32f1xx_hal_iwdg.c ****   *   1. Redistributions of source code must retain the above copyright notice,
  80:Drivers/STM32F1xx_HAL_Driver/Src/stm32f1xx_hal_iwdg.c ****   *      this list of conditions and the following disclaimer.
  81:Drivers/STM32F1xx_HAL_Driver/Src/stm32f1xx_hal_iwdg.c ****   *   2. Redistributions in binary form must reproduce the above copyright notice,
  82:Drivers/STM32F1xx_HAL_Driver/Src/stm32f1xx_hal_iwdg.c ****   *      this list of conditions and the following disclaimer in the documentation
  83:Drivers/STM32F1xx_HAL_Driver/Src/stm32f1xx_hal_iwdg.c ****   *      and/or other materials provided with the distribution
  84:Drivers/STM32F1xx_HAL_Driver/Src/stm32f1xx_hal_iwdg.c ****   *   3. Neither the name of STMicroelectronics nor the names of its contributors
  85:Drivers/STM32F1xx_HAL_Driver/Src/stm32f1xx_hal_iwdg.c ****   *      may be used to endorse or promote products derived from this software
  86:Drivers/STM32F1xx_HAL_Driver/Src/stm32f1xx_hal_iwdg.c ****   *      without specific prior written permission.
  87:Drivers/STM32F1xx_HAL_Driver/Src/stm32f1xx_hal_iwdg.c ****   *
  88:Drivers/STM32F1xx_HAL_Driver/Src/stm32f1xx_hal_iwdg.c ****   * THIS SOFTWARE IS PROVIDED BY THE COPYRIGHT HOLDERS AND CONTRIBUTORS "AS IS"
ARM GAS  C:\Users\behun\AppData\Local\Temp\ccPBRhp9.s 			page 3


  89:Drivers/STM32F1xx_HAL_Driver/Src/stm32f1xx_hal_iwdg.c ****   * AND ANY EXPRESS OR IMPLIED WARRANTIES, INCLUDING, BUT NOT LIMITED TO, THE
  90:Drivers/STM32F1xx_HAL_Driver/Src/stm32f1xx_hal_iwdg.c ****   * IMPLIED WARRANTIES OF MERCHANTABILITY AND FITNESS FOR A PARTICULAR PURPOSE ARE
  91:Drivers/STM32F1xx_HAL_Driver/Src/stm32f1xx_hal_iwdg.c ****   * DISCLAIMED. IN NO EVENT SHALL THE COPYRIGHT HOLDER OR CONTRIBUTORS BE LIABLE
  92:Drivers/STM32F1xx_HAL_Driver/Src/stm32f1xx_hal_iwdg.c ****   * FOR ANY DIRECT, INDIRECT, INCIDENTAL, SPECIAL, EXEMPLARY, OR CONSEQUENTIAL
  93:Drivers/STM32F1xx_HAL_Driver/Src/stm32f1xx_hal_iwdg.c ****   * DAMAGES (INCLUDING, BUT NOT LIMITED TO, PROCUREMENT OF SUBSTITUTE GOODS OR
  94:Drivers/STM32F1xx_HAL_Driver/Src/stm32f1xx_hal_iwdg.c ****   * SERVICES; LOSS OF USE, DATA, OR PROFITS; OR BUSINESS INTERRUPTION) HOWEVER
  95:Drivers/STM32F1xx_HAL_Driver/Src/stm32f1xx_hal_iwdg.c ****   * CAUSED AND ON ANY THEORY OF LIABILITY, WHETHER IN CONTRACT, STRICT LIABILITY,
  96:Drivers/STM32F1xx_HAL_Driver/Src/stm32f1xx_hal_iwdg.c ****   * OR TORT (INCLUDING NEGLIGENCE OR OTHERWISE) ARISING IN ANY WAY OUT OF THE USE
  97:Drivers/STM32F1xx_HAL_Driver/Src/stm32f1xx_hal_iwdg.c ****   * OF THIS SOFTWARE, EVEN IF ADVISED OF THE POSSIBILITY OF SUCH DAMAGE.
  98:Drivers/STM32F1xx_HAL_Driver/Src/stm32f1xx_hal_iwdg.c ****   *
  99:Drivers/STM32F1xx_HAL_Driver/Src/stm32f1xx_hal_iwdg.c ****   ******************************************************************************
 100:Drivers/STM32F1xx_HAL_Driver/Src/stm32f1xx_hal_iwdg.c ****   */
 101:Drivers/STM32F1xx_HAL_Driver/Src/stm32f1xx_hal_iwdg.c **** 
 102:Drivers/STM32F1xx_HAL_Driver/Src/stm32f1xx_hal_iwdg.c **** /* Includes ------------------------------------------------------------------*/
 103:Drivers/STM32F1xx_HAL_Driver/Src/stm32f1xx_hal_iwdg.c **** #include "stm32f1xx_hal.h"
 104:Drivers/STM32F1xx_HAL_Driver/Src/stm32f1xx_hal_iwdg.c **** 
 105:Drivers/STM32F1xx_HAL_Driver/Src/stm32f1xx_hal_iwdg.c **** /** @addtogroup STM32F1xx_HAL_Driver
 106:Drivers/STM32F1xx_HAL_Driver/Src/stm32f1xx_hal_iwdg.c ****   * @{
 107:Drivers/STM32F1xx_HAL_Driver/Src/stm32f1xx_hal_iwdg.c ****   */
 108:Drivers/STM32F1xx_HAL_Driver/Src/stm32f1xx_hal_iwdg.c **** 
 109:Drivers/STM32F1xx_HAL_Driver/Src/stm32f1xx_hal_iwdg.c **** #ifdef HAL_IWDG_MODULE_ENABLED
 110:Drivers/STM32F1xx_HAL_Driver/Src/stm32f1xx_hal_iwdg.c **** /** @defgroup IWDG IWDG
 111:Drivers/STM32F1xx_HAL_Driver/Src/stm32f1xx_hal_iwdg.c ****   * @brief IWDG HAL module driver.
 112:Drivers/STM32F1xx_HAL_Driver/Src/stm32f1xx_hal_iwdg.c ****   * @{
 113:Drivers/STM32F1xx_HAL_Driver/Src/stm32f1xx_hal_iwdg.c ****   */
 114:Drivers/STM32F1xx_HAL_Driver/Src/stm32f1xx_hal_iwdg.c **** 
 115:Drivers/STM32F1xx_HAL_Driver/Src/stm32f1xx_hal_iwdg.c **** /* Private typedef -----------------------------------------------------------*/
 116:Drivers/STM32F1xx_HAL_Driver/Src/stm32f1xx_hal_iwdg.c **** /* Private define ------------------------------------------------------------*/
 117:Drivers/STM32F1xx_HAL_Driver/Src/stm32f1xx_hal_iwdg.c **** /** @defgroup IWDG_Private_Defines IWDG Private Defines
 118:Drivers/STM32F1xx_HAL_Driver/Src/stm32f1xx_hal_iwdg.c ****   * @{
 119:Drivers/STM32F1xx_HAL_Driver/Src/stm32f1xx_hal_iwdg.c ****   */
 120:Drivers/STM32F1xx_HAL_Driver/Src/stm32f1xx_hal_iwdg.c **** /* Status register need 5 RC LSI divided by prescaler clock to be updated. With
 121:Drivers/STM32F1xx_HAL_Driver/Src/stm32f1xx_hal_iwdg.c ****    higher prescaler (256), and according to HSI variation, we need to wait at
 122:Drivers/STM32F1xx_HAL_Driver/Src/stm32f1xx_hal_iwdg.c ****    least 6 cycles so 48 ms. */
 123:Drivers/STM32F1xx_HAL_Driver/Src/stm32f1xx_hal_iwdg.c **** #define HAL_IWDG_DEFAULT_TIMEOUT            48U
 124:Drivers/STM32F1xx_HAL_Driver/Src/stm32f1xx_hal_iwdg.c **** /**
 125:Drivers/STM32F1xx_HAL_Driver/Src/stm32f1xx_hal_iwdg.c ****   * @}
 126:Drivers/STM32F1xx_HAL_Driver/Src/stm32f1xx_hal_iwdg.c ****   */
 127:Drivers/STM32F1xx_HAL_Driver/Src/stm32f1xx_hal_iwdg.c **** 
 128:Drivers/STM32F1xx_HAL_Driver/Src/stm32f1xx_hal_iwdg.c **** /* Private macro -------------------------------------------------------------*/
 129:Drivers/STM32F1xx_HAL_Driver/Src/stm32f1xx_hal_iwdg.c **** /* Private variables ---------------------------------------------------------*/
 130:Drivers/STM32F1xx_HAL_Driver/Src/stm32f1xx_hal_iwdg.c **** /* Private function prototypes -----------------------------------------------*/
 131:Drivers/STM32F1xx_HAL_Driver/Src/stm32f1xx_hal_iwdg.c **** /* Exported functions --------------------------------------------------------*/
 132:Drivers/STM32F1xx_HAL_Driver/Src/stm32f1xx_hal_iwdg.c **** 
 133:Drivers/STM32F1xx_HAL_Driver/Src/stm32f1xx_hal_iwdg.c **** /** @addtogroup IWDG_Exported_Functions
 134:Drivers/STM32F1xx_HAL_Driver/Src/stm32f1xx_hal_iwdg.c ****   * @{
 135:Drivers/STM32F1xx_HAL_Driver/Src/stm32f1xx_hal_iwdg.c ****   */
 136:Drivers/STM32F1xx_HAL_Driver/Src/stm32f1xx_hal_iwdg.c **** 
 137:Drivers/STM32F1xx_HAL_Driver/Src/stm32f1xx_hal_iwdg.c **** /** @addtogroup IWDG_Exported_Functions_Group1
 138:Drivers/STM32F1xx_HAL_Driver/Src/stm32f1xx_hal_iwdg.c ****   *  @brief    Initialization and Start functions.
 139:Drivers/STM32F1xx_HAL_Driver/Src/stm32f1xx_hal_iwdg.c ****   *
 140:Drivers/STM32F1xx_HAL_Driver/Src/stm32f1xx_hal_iwdg.c **** @verbatim
 141:Drivers/STM32F1xx_HAL_Driver/Src/stm32f1xx_hal_iwdg.c ****  ===============================================================================
 142:Drivers/STM32F1xx_HAL_Driver/Src/stm32f1xx_hal_iwdg.c ****           ##### Initialization and Start functions #####
 143:Drivers/STM32F1xx_HAL_Driver/Src/stm32f1xx_hal_iwdg.c ****  ===============================================================================
 144:Drivers/STM32F1xx_HAL_Driver/Src/stm32f1xx_hal_iwdg.c ****  [..]  This section provides functions allowing to:
 145:Drivers/STM32F1xx_HAL_Driver/Src/stm32f1xx_hal_iwdg.c ****       (+) Initialize the IWDG according to the specified parameters in the
ARM GAS  C:\Users\behun\AppData\Local\Temp\ccPBRhp9.s 			page 4


 146:Drivers/STM32F1xx_HAL_Driver/Src/stm32f1xx_hal_iwdg.c ****           IWDG_InitTypeDef of associated handle.
 147:Drivers/STM32F1xx_HAL_Driver/Src/stm32f1xx_hal_iwdg.c ****       (+) Once initialization is performed in HAL_IWDG_Init function, Watchdog
 148:Drivers/STM32F1xx_HAL_Driver/Src/stm32f1xx_hal_iwdg.c ****           is reloaded in order to exit function with correct time base.
 149:Drivers/STM32F1xx_HAL_Driver/Src/stm32f1xx_hal_iwdg.c **** 
 150:Drivers/STM32F1xx_HAL_Driver/Src/stm32f1xx_hal_iwdg.c **** @endverbatim
 151:Drivers/STM32F1xx_HAL_Driver/Src/stm32f1xx_hal_iwdg.c ****   * @{
 152:Drivers/STM32F1xx_HAL_Driver/Src/stm32f1xx_hal_iwdg.c ****   */
 153:Drivers/STM32F1xx_HAL_Driver/Src/stm32f1xx_hal_iwdg.c **** 
 154:Drivers/STM32F1xx_HAL_Driver/Src/stm32f1xx_hal_iwdg.c **** /**
 155:Drivers/STM32F1xx_HAL_Driver/Src/stm32f1xx_hal_iwdg.c ****   * @brief  Initialize the IWDG according to the specified parameters in the
 156:Drivers/STM32F1xx_HAL_Driver/Src/stm32f1xx_hal_iwdg.c ****   *         IWDG_InitTypeDef and start watchdog. Before exiting function,
 157:Drivers/STM32F1xx_HAL_Driver/Src/stm32f1xx_hal_iwdg.c ****   *         watchdog is refreshed in order to have correct time base.
 158:Drivers/STM32F1xx_HAL_Driver/Src/stm32f1xx_hal_iwdg.c ****   * @param  hiwdg  pointer to a IWDG_HandleTypeDef structure that contains
 159:Drivers/STM32F1xx_HAL_Driver/Src/stm32f1xx_hal_iwdg.c ****   *                the configuration information for the specified IWDG module.
 160:Drivers/STM32F1xx_HAL_Driver/Src/stm32f1xx_hal_iwdg.c ****   * @retval HAL status
 161:Drivers/STM32F1xx_HAL_Driver/Src/stm32f1xx_hal_iwdg.c ****   */
 162:Drivers/STM32F1xx_HAL_Driver/Src/stm32f1xx_hal_iwdg.c **** HAL_StatusTypeDef HAL_IWDG_Init(IWDG_HandleTypeDef *hiwdg)
 163:Drivers/STM32F1xx_HAL_Driver/Src/stm32f1xx_hal_iwdg.c **** {
  28              		.loc 1 163 1 view -0
  29              		.cfi_startproc
  30              		@ args = 0, pretend = 0, frame = 0
  31              		@ frame_needed = 0, uses_anonymous_args = 0
 164:Drivers/STM32F1xx_HAL_Driver/Src/stm32f1xx_hal_iwdg.c ****   uint32_t tickstart;
  32              		.loc 1 164 3 view .LVU1
 165:Drivers/STM32F1xx_HAL_Driver/Src/stm32f1xx_hal_iwdg.c **** 
 166:Drivers/STM32F1xx_HAL_Driver/Src/stm32f1xx_hal_iwdg.c ****   /* Check the IWDG handle allocation */
 167:Drivers/STM32F1xx_HAL_Driver/Src/stm32f1xx_hal_iwdg.c ****   if (hiwdg == NULL)
  33              		.loc 1 167 3 view .LVU2
  34              		.loc 1 167 6 is_stmt 0 view .LVU3
  35 0000 08B3     		cbz	r0, .L5
 163:Drivers/STM32F1xx_HAL_Driver/Src/stm32f1xx_hal_iwdg.c ****   uint32_t tickstart;
  36              		.loc 1 163 1 view .LVU4
  37 0002 38B5     		push	{r3, r4, r5, lr}
  38              	.LCFI0:
  39              		.cfi_def_cfa_offset 16
  40              		.cfi_offset 3, -16
  41              		.cfi_offset 4, -12
  42              		.cfi_offset 5, -8
  43              		.cfi_offset 14, -4
  44 0004 0446     		mov	r4, r0
 168:Drivers/STM32F1xx_HAL_Driver/Src/stm32f1xx_hal_iwdg.c ****   {
 169:Drivers/STM32F1xx_HAL_Driver/Src/stm32f1xx_hal_iwdg.c ****     return HAL_ERROR;
 170:Drivers/STM32F1xx_HAL_Driver/Src/stm32f1xx_hal_iwdg.c ****   }
 171:Drivers/STM32F1xx_HAL_Driver/Src/stm32f1xx_hal_iwdg.c **** 
 172:Drivers/STM32F1xx_HAL_Driver/Src/stm32f1xx_hal_iwdg.c ****   /* Check the parameters */
 173:Drivers/STM32F1xx_HAL_Driver/Src/stm32f1xx_hal_iwdg.c ****   assert_param(IS_IWDG_ALL_INSTANCE(hiwdg->Instance));
  45              		.loc 1 173 3 is_stmt 1 view .LVU5
 174:Drivers/STM32F1xx_HAL_Driver/Src/stm32f1xx_hal_iwdg.c ****   assert_param(IS_IWDG_PRESCALER(hiwdg->Init.Prescaler));
  46              		.loc 1 174 3 view .LVU6
 175:Drivers/STM32F1xx_HAL_Driver/Src/stm32f1xx_hal_iwdg.c ****   assert_param(IS_IWDG_RELOAD(hiwdg->Init.Reload));
  47              		.loc 1 175 3 view .LVU7
 176:Drivers/STM32F1xx_HAL_Driver/Src/stm32f1xx_hal_iwdg.c **** 
 177:Drivers/STM32F1xx_HAL_Driver/Src/stm32f1xx_hal_iwdg.c ****   /* Enable IWDG. LSI is turned on automaticaly */
 178:Drivers/STM32F1xx_HAL_Driver/Src/stm32f1xx_hal_iwdg.c ****   __HAL_IWDG_START(hiwdg);
  48              		.loc 1 178 3 view .LVU8
  49 0006 0368     		ldr	r3, [r0]
  50 0008 4CF6CC42 		movw	r2, #52428
ARM GAS  C:\Users\behun\AppData\Local\Temp\ccPBRhp9.s 			page 5


  51 000c 1A60     		str	r2, [r3]
 179:Drivers/STM32F1xx_HAL_Driver/Src/stm32f1xx_hal_iwdg.c **** 
 180:Drivers/STM32F1xx_HAL_Driver/Src/stm32f1xx_hal_iwdg.c ****   /* Enable write access to IWDG_PR and IWDG_RLR registers by writing 0x5555 in KR */
 181:Drivers/STM32F1xx_HAL_Driver/Src/stm32f1xx_hal_iwdg.c ****   IWDG_ENABLE_WRITE_ACCESS(hiwdg);
  52              		.loc 1 181 3 view .LVU9
  53 000e 0368     		ldr	r3, [r0]
  54 0010 45F25552 		movw	r2, #21845
  55 0014 1A60     		str	r2, [r3]
 182:Drivers/STM32F1xx_HAL_Driver/Src/stm32f1xx_hal_iwdg.c **** 
 183:Drivers/STM32F1xx_HAL_Driver/Src/stm32f1xx_hal_iwdg.c ****   /* Write to IWDG registers the Prescaler & Reload values to work with */
 184:Drivers/STM32F1xx_HAL_Driver/Src/stm32f1xx_hal_iwdg.c ****   hiwdg->Instance->PR = hiwdg->Init.Prescaler;
  56              		.loc 1 184 3 view .LVU10
  57              		.loc 1 184 8 is_stmt 0 view .LVU11
  58 0016 0368     		ldr	r3, [r0]
  59              		.loc 1 184 36 view .LVU12
  60 0018 4268     		ldr	r2, [r0, #4]
  61              		.loc 1 184 23 view .LVU13
  62 001a 5A60     		str	r2, [r3, #4]
 185:Drivers/STM32F1xx_HAL_Driver/Src/stm32f1xx_hal_iwdg.c ****   hiwdg->Instance->RLR = hiwdg->Init.Reload;
  63              		.loc 1 185 3 is_stmt 1 view .LVU14
  64              		.loc 1 185 8 is_stmt 0 view .LVU15
  65 001c 0368     		ldr	r3, [r0]
  66              		.loc 1 185 37 view .LVU16
  67 001e 8268     		ldr	r2, [r0, #8]
  68              		.loc 1 185 24 view .LVU17
  69 0020 9A60     		str	r2, [r3, #8]
 186:Drivers/STM32F1xx_HAL_Driver/Src/stm32f1xx_hal_iwdg.c **** 
 187:Drivers/STM32F1xx_HAL_Driver/Src/stm32f1xx_hal_iwdg.c ****   /* Check pending flag, if previous update not done, return timeout */
 188:Drivers/STM32F1xx_HAL_Driver/Src/stm32f1xx_hal_iwdg.c ****   tickstart = HAL_GetTick();
  70              		.loc 1 188 3 is_stmt 1 view .LVU18
  71              		.loc 1 188 15 is_stmt 0 view .LVU19
  72 0022 FFF7FEFF 		bl	HAL_GetTick
  73              	.LVL1:
  74              		.loc 1 188 15 view .LVU20
  75 0026 0546     		mov	r5, r0
  76              	.LVL2:
 189:Drivers/STM32F1xx_HAL_Driver/Src/stm32f1xx_hal_iwdg.c **** 
 190:Drivers/STM32F1xx_HAL_Driver/Src/stm32f1xx_hal_iwdg.c ****   /* Wait for register to be updated */
 191:Drivers/STM32F1xx_HAL_Driver/Src/stm32f1xx_hal_iwdg.c ****   while (hiwdg->Instance->SR != RESET)
  77              		.loc 1 191 3 is_stmt 1 view .LVU21
  78              	.L3:
  79              		.loc 1 191 15 is_stmt 0 view .LVU22
  80 0028 2368     		ldr	r3, [r4]
  81              		.loc 1 191 25 view .LVU23
  82 002a DA68     		ldr	r2, [r3, #12]
  83              		.loc 1 191 9 view .LVU24
  84 002c 32B1     		cbz	r2, .L11
 192:Drivers/STM32F1xx_HAL_Driver/Src/stm32f1xx_hal_iwdg.c ****   {
 193:Drivers/STM32F1xx_HAL_Driver/Src/stm32f1xx_hal_iwdg.c ****     if ((HAL_GetTick() - tickstart) > HAL_IWDG_DEFAULT_TIMEOUT)
  85              		.loc 1 193 5 is_stmt 1 view .LVU25
  86              		.loc 1 193 10 is_stmt 0 view .LVU26
  87 002e FFF7FEFF 		bl	HAL_GetTick
  88              	.LVL3:
  89              		.loc 1 193 24 view .LVU27
  90 0032 401B     		subs	r0, r0, r5
  91              		.loc 1 193 8 view .LVU28
  92 0034 3028     		cmp	r0, #48
ARM GAS  C:\Users\behun\AppData\Local\Temp\ccPBRhp9.s 			page 6


  93 0036 F7D9     		bls	.L3
 194:Drivers/STM32F1xx_HAL_Driver/Src/stm32f1xx_hal_iwdg.c ****     {
 195:Drivers/STM32F1xx_HAL_Driver/Src/stm32f1xx_hal_iwdg.c ****       return HAL_TIMEOUT;
  94              		.loc 1 195 14 view .LVU29
  95 0038 0320     		movs	r0, #3
  96 003a 03E0     		b	.L2
  97              	.L11:
 196:Drivers/STM32F1xx_HAL_Driver/Src/stm32f1xx_hal_iwdg.c ****     }
 197:Drivers/STM32F1xx_HAL_Driver/Src/stm32f1xx_hal_iwdg.c ****   }
 198:Drivers/STM32F1xx_HAL_Driver/Src/stm32f1xx_hal_iwdg.c **** 
 199:Drivers/STM32F1xx_HAL_Driver/Src/stm32f1xx_hal_iwdg.c ****   /* Reload IWDG counter with value defined in the reload register */
 200:Drivers/STM32F1xx_HAL_Driver/Src/stm32f1xx_hal_iwdg.c ****   __HAL_IWDG_RELOAD_COUNTER(hiwdg);
  98              		.loc 1 200 3 is_stmt 1 view .LVU30
  99 003c 4AF6AA22 		movw	r2, #43690
 100 0040 1A60     		str	r2, [r3]
 201:Drivers/STM32F1xx_HAL_Driver/Src/stm32f1xx_hal_iwdg.c **** 
 202:Drivers/STM32F1xx_HAL_Driver/Src/stm32f1xx_hal_iwdg.c ****   /* Return function status */
 203:Drivers/STM32F1xx_HAL_Driver/Src/stm32f1xx_hal_iwdg.c ****   return HAL_OK;
 101              		.loc 1 203 3 view .LVU31
 102              		.loc 1 203 10 is_stmt 0 view .LVU32
 103 0042 0020     		movs	r0, #0
 104              	.L2:
 204:Drivers/STM32F1xx_HAL_Driver/Src/stm32f1xx_hal_iwdg.c **** }
 105              		.loc 1 204 1 view .LVU33
 106 0044 38BD     		pop	{r3, r4, r5, pc}
 107              	.LVL4:
 108              	.L5:
 109              	.LCFI1:
 110              		.cfi_def_cfa_offset 0
 111              		.cfi_restore 3
 112              		.cfi_restore 4
 113              		.cfi_restore 5
 114              		.cfi_restore 14
 169:Drivers/STM32F1xx_HAL_Driver/Src/stm32f1xx_hal_iwdg.c ****   }
 115              		.loc 1 169 12 view .LVU34
 116 0046 0120     		movs	r0, #1
 117              	.LVL5:
 118              		.loc 1 204 1 view .LVU35
 119 0048 7047     		bx	lr
 120              		.cfi_endproc
 121              	.LFE66:
 123              		.section	.text.HAL_IWDG_Refresh,"ax",%progbits
 124              		.align	1
 125              		.global	HAL_IWDG_Refresh
 126              		.syntax unified
 127              		.thumb
 128              		.thumb_func
 129              		.fpu softvfp
 131              	HAL_IWDG_Refresh:
 132              	.LVL6:
 133              	.LFB67:
 205:Drivers/STM32F1xx_HAL_Driver/Src/stm32f1xx_hal_iwdg.c **** 
 206:Drivers/STM32F1xx_HAL_Driver/Src/stm32f1xx_hal_iwdg.c **** /**
 207:Drivers/STM32F1xx_HAL_Driver/Src/stm32f1xx_hal_iwdg.c ****   * @}
 208:Drivers/STM32F1xx_HAL_Driver/Src/stm32f1xx_hal_iwdg.c ****   */
 209:Drivers/STM32F1xx_HAL_Driver/Src/stm32f1xx_hal_iwdg.c **** 
 210:Drivers/STM32F1xx_HAL_Driver/Src/stm32f1xx_hal_iwdg.c **** /** @addtogroup IWDG_Exported_Functions_Group2
ARM GAS  C:\Users\behun\AppData\Local\Temp\ccPBRhp9.s 			page 7


 211:Drivers/STM32F1xx_HAL_Driver/Src/stm32f1xx_hal_iwdg.c ****   *  @brief   IO operation functions
 212:Drivers/STM32F1xx_HAL_Driver/Src/stm32f1xx_hal_iwdg.c ****   *
 213:Drivers/STM32F1xx_HAL_Driver/Src/stm32f1xx_hal_iwdg.c **** @verbatim
 214:Drivers/STM32F1xx_HAL_Driver/Src/stm32f1xx_hal_iwdg.c ****  ===============================================================================
 215:Drivers/STM32F1xx_HAL_Driver/Src/stm32f1xx_hal_iwdg.c ****                       ##### IO operation functions #####
 216:Drivers/STM32F1xx_HAL_Driver/Src/stm32f1xx_hal_iwdg.c ****  ===============================================================================
 217:Drivers/STM32F1xx_HAL_Driver/Src/stm32f1xx_hal_iwdg.c ****  [..]  This section provides functions allowing to:
 218:Drivers/STM32F1xx_HAL_Driver/Src/stm32f1xx_hal_iwdg.c ****       (+) Refresh the IWDG.
 219:Drivers/STM32F1xx_HAL_Driver/Src/stm32f1xx_hal_iwdg.c **** 
 220:Drivers/STM32F1xx_HAL_Driver/Src/stm32f1xx_hal_iwdg.c **** @endverbatim
 221:Drivers/STM32F1xx_HAL_Driver/Src/stm32f1xx_hal_iwdg.c ****   * @{
 222:Drivers/STM32F1xx_HAL_Driver/Src/stm32f1xx_hal_iwdg.c ****   */
 223:Drivers/STM32F1xx_HAL_Driver/Src/stm32f1xx_hal_iwdg.c **** 
 224:Drivers/STM32F1xx_HAL_Driver/Src/stm32f1xx_hal_iwdg.c **** /**
 225:Drivers/STM32F1xx_HAL_Driver/Src/stm32f1xx_hal_iwdg.c ****   * @brief  Refresh the IWDG.
 226:Drivers/STM32F1xx_HAL_Driver/Src/stm32f1xx_hal_iwdg.c ****   * @param  hiwdg  pointer to a IWDG_HandleTypeDef structure that contains
 227:Drivers/STM32F1xx_HAL_Driver/Src/stm32f1xx_hal_iwdg.c ****   *                the configuration information for the specified IWDG module.
 228:Drivers/STM32F1xx_HAL_Driver/Src/stm32f1xx_hal_iwdg.c ****   * @retval HAL status
 229:Drivers/STM32F1xx_HAL_Driver/Src/stm32f1xx_hal_iwdg.c ****   */
 230:Drivers/STM32F1xx_HAL_Driver/Src/stm32f1xx_hal_iwdg.c **** HAL_StatusTypeDef HAL_IWDG_Refresh(IWDG_HandleTypeDef *hiwdg)
 231:Drivers/STM32F1xx_HAL_Driver/Src/stm32f1xx_hal_iwdg.c **** {
 134              		.loc 1 231 1 is_stmt 1 view -0
 135              		.cfi_startproc
 136              		@ args = 0, pretend = 0, frame = 0
 137              		@ frame_needed = 0, uses_anonymous_args = 0
 138              		@ link register save eliminated.
 232:Drivers/STM32F1xx_HAL_Driver/Src/stm32f1xx_hal_iwdg.c ****   /* Reload IWDG counter with value defined in the reload register */
 233:Drivers/STM32F1xx_HAL_Driver/Src/stm32f1xx_hal_iwdg.c ****   __HAL_IWDG_RELOAD_COUNTER(hiwdg);
 139              		.loc 1 233 3 view .LVU37
 140 0000 0368     		ldr	r3, [r0]
 141 0002 4AF6AA22 		movw	r2, #43690
 142 0006 1A60     		str	r2, [r3]
 234:Drivers/STM32F1xx_HAL_Driver/Src/stm32f1xx_hal_iwdg.c **** 
 235:Drivers/STM32F1xx_HAL_Driver/Src/stm32f1xx_hal_iwdg.c ****   /* Return function status */
 236:Drivers/STM32F1xx_HAL_Driver/Src/stm32f1xx_hal_iwdg.c ****   return HAL_OK;
 143              		.loc 1 236 3 view .LVU38
 237:Drivers/STM32F1xx_HAL_Driver/Src/stm32f1xx_hal_iwdg.c **** }
 144              		.loc 1 237 1 is_stmt 0 view .LVU39
 145 0008 0020     		movs	r0, #0
 146              	.LVL7:
 147              		.loc 1 237 1 view .LVU40
 148 000a 7047     		bx	lr
 149              		.cfi_endproc
 150              	.LFE67:
 152              		.text
 153              	.Letext0:
 154              		.file 2 "c:\\program files (x86)\\gnu tools arm embedded\\8 2019-q3-update\\arm-none-eabi\\include
 155              		.file 3 "c:\\program files (x86)\\gnu tools arm embedded\\8 2019-q3-update\\arm-none-eabi\\include
 156              		.file 4 "Drivers/CMSIS/Include/core_cm3.h"
 157              		.file 5 "Drivers/CMSIS/Device/ST/STM32F1xx/Include/system_stm32f1xx.h"
 158              		.file 6 "Drivers/CMSIS/Device/ST/STM32F1xx/Include/stm32f103xe.h"
 159              		.file 7 "c:\\program files (x86)\\gnu tools arm embedded\\8 2019-q3-update\\lib\\gcc\\arm-none-eab
 160              		.file 8 "c:\\program files (x86)\\gnu tools arm embedded\\8 2019-q3-update\\arm-none-eabi\\include
 161              		.file 9 "c:\\program files (x86)\\gnu tools arm embedded\\8 2019-q3-update\\arm-none-eabi\\include
 162              		.file 10 "c:\\program files (x86)\\gnu tools arm embedded\\8 2019-q3-update\\arm-none-eabi\\includ
 163              		.file 11 "Drivers/CMSIS/Device/ST/STM32F1xx/Include/stm32f1xx.h"
 164              		.file 12 "Drivers/STM32F1xx_HAL_Driver/Inc/stm32f1xx_hal_def.h"
ARM GAS  C:\Users\behun\AppData\Local\Temp\ccPBRhp9.s 			page 8


 165              		.file 13 "Drivers/STM32F1xx_HAL_Driver/Inc/stm32f1xx_hal_iwdg.h"
 166              		.file 14 "Drivers/STM32F1xx_HAL_Driver/Inc/stm32f1xx_hal.h"
ARM GAS  C:\Users\behun\AppData\Local\Temp\ccPBRhp9.s 			page 9

