ARM GAS  C:\Users\behun\AppData\Local\Temp\ccirKyb6.s 			page 1


   1              		.cpu cortex-m3
   2              		.eabi_attribute 20, 1
   3              		.eabi_attribute 21, 1
   4              		.eabi_attribute 23, 3
   5              		.eabi_attribute 24, 1
   6              		.eabi_attribute 25, 1
   7              		.eabi_attribute 26, 1
   8              		.eabi_attribute 30, 1
   9              		.eabi_attribute 34, 1
  10              		.eabi_attribute 18, 4
  11              		.file	"u8g2_box.c"
  12              		.text
  13              	.Ltext0:
  14              		.cfi_sections	.debug_frame
  15              		.section	.text.u8g2_DrawBox,"ax",%progbits
  16              		.align	1
  17              		.global	u8g2_DrawBox
  18              		.arch armv7-m
  19              		.syntax unified
  20              		.thumb
  21              		.thumb_func
  22              		.fpu softvfp
  24              	u8g2_DrawBox:
  25              	.LVL0:
  26              	.LFB0:
  27              		.file 1 "u8g2/csrc/u8g2_box.c"
   1:u8g2/csrc/u8g2_box.c **** /*
   2:u8g2/csrc/u8g2_box.c **** 
   3:u8g2/csrc/u8g2_box.c ****   u8g2_box.c
   4:u8g2/csrc/u8g2_box.c **** 
   5:u8g2/csrc/u8g2_box.c ****   Universal 8bit Graphics Library (https://github.com/olikraus/u8g2/)
   6:u8g2/csrc/u8g2_box.c **** 
   7:u8g2/csrc/u8g2_box.c ****   Copyright (c) 2016, olikraus@gmail.com
   8:u8g2/csrc/u8g2_box.c ****   All rights reserved.
   9:u8g2/csrc/u8g2_box.c **** 
  10:u8g2/csrc/u8g2_box.c ****   Redistribution and use in source and binary forms, with or without modification, 
  11:u8g2/csrc/u8g2_box.c ****   are permitted provided that the following conditions are met:
  12:u8g2/csrc/u8g2_box.c **** 
  13:u8g2/csrc/u8g2_box.c ****   * Redistributions of source code must retain the above copyright notice, this list 
  14:u8g2/csrc/u8g2_box.c ****     of conditions and the following disclaimer.
  15:u8g2/csrc/u8g2_box.c ****     
  16:u8g2/csrc/u8g2_box.c ****   * Redistributions in binary form must reproduce the above copyright notice, this 
  17:u8g2/csrc/u8g2_box.c ****     list of conditions and the following disclaimer in the documentation and/or other 
  18:u8g2/csrc/u8g2_box.c ****     materials provided with the distribution.
  19:u8g2/csrc/u8g2_box.c **** 
  20:u8g2/csrc/u8g2_box.c ****   THIS SOFTWARE IS PROVIDED BY THE COPYRIGHT HOLDERS AND 
  21:u8g2/csrc/u8g2_box.c ****   CONTRIBUTORS "AS IS" AND ANY EXPRESS OR IMPLIED WARRANTIES, 
  22:u8g2/csrc/u8g2_box.c ****   INCLUDING, BUT NOT LIMITED TO, THE IMPLIED WARRANTIES OF 
  23:u8g2/csrc/u8g2_box.c ****   MERCHANTABILITY AND FITNESS FOR A PARTICULAR PURPOSE ARE 
  24:u8g2/csrc/u8g2_box.c ****   DISCLAIMED. IN NO EVENT SHALL THE COPYRIGHT HOLDER OR 
  25:u8g2/csrc/u8g2_box.c ****   CONTRIBUTORS BE LIABLE FOR ANY DIRECT, INDIRECT, INCIDENTAL, 
  26:u8g2/csrc/u8g2_box.c ****   SPECIAL, EXEMPLARY, OR CONSEQUENTIAL DAMAGES (INCLUDING, BUT 
  27:u8g2/csrc/u8g2_box.c ****   NOT LIMITED TO, PROCUREMENT OF SUBSTITUTE GOODS OR SERVICES; 
  28:u8g2/csrc/u8g2_box.c ****   LOSS OF USE, DATA, OR PROFITS; OR BUSINESS INTERRUPTION) HOWEVER 
  29:u8g2/csrc/u8g2_box.c ****   CAUSED AND ON ANY THEORY OF LIABILITY, WHETHER IN CONTRACT, 
  30:u8g2/csrc/u8g2_box.c ****   STRICT LIABILITY, OR TORT (INCLUDING NEGLIGENCE OR OTHERWISE) 
  31:u8g2/csrc/u8g2_box.c ****   ARISING IN ANY WAY OUT OF THE USE OF THIS SOFTWARE, EVEN IF 
ARM GAS  C:\Users\behun\AppData\Local\Temp\ccirKyb6.s 			page 2


  32:u8g2/csrc/u8g2_box.c ****   ADVISED OF THE POSSIBILITY OF SUCH DAMAGE.  
  33:u8g2/csrc/u8g2_box.c **** 
  34:u8g2/csrc/u8g2_box.c **** */
  35:u8g2/csrc/u8g2_box.c **** 
  36:u8g2/csrc/u8g2_box.c **** #include "u8g2.h"
  37:u8g2/csrc/u8g2_box.c **** 
  38:u8g2/csrc/u8g2_box.c **** /*
  39:u8g2/csrc/u8g2_box.c ****   draw a filled box
  40:u8g2/csrc/u8g2_box.c ****   restriction: does not work for w = 0 or h = 0
  41:u8g2/csrc/u8g2_box.c **** */
  42:u8g2/csrc/u8g2_box.c **** void u8g2_DrawBox(u8g2_t *u8g2, u8g2_uint_t x, u8g2_uint_t y, u8g2_uint_t w, u8g2_uint_t h)
  43:u8g2/csrc/u8g2_box.c **** {
  28              		.loc 1 43 1 view -0
  29              		.cfi_startproc
  30              		@ args = 4, pretend = 0, frame = 0
  31              		@ frame_needed = 0, uses_anonymous_args = 0
  32              		.loc 1 43 1 is_stmt 0 view .LVU1
  33 0000 2DE9F041 		push	{r4, r5, r6, r7, r8, lr}
  34              	.LCFI0:
  35              		.cfi_def_cfa_offset 24
  36              		.cfi_offset 4, -24
  37              		.cfi_offset 5, -20
  38              		.cfi_offset 6, -16
  39              		.cfi_offset 7, -12
  40              		.cfi_offset 8, -8
  41              		.cfi_offset 14, -4
  42 0004 82B0     		sub	sp, sp, #8
  43              	.LCFI1:
  44              		.cfi_def_cfa_offset 32
  45 0006 8046     		mov	r8, r0
  46 0008 0F46     		mov	r7, r1
  47 000a 1546     		mov	r5, r2
  48 000c 1E46     		mov	r6, r3
  49 000e 9DF82040 		ldrb	r4, [sp, #32]	@ zero_extendqisi2
  44:u8g2/csrc/u8g2_box.c **** #ifdef U8G2_WITH_INTERSECTION
  45:u8g2/csrc/u8g2_box.c ****   if ( u8g2_IsIntersection(u8g2, x, y, x+w, y+h) == 0 ) 
  50              		.loc 1 45 3 is_stmt 1 view .LVU2
  51              		.loc 1 45 8 is_stmt 0 view .LVU3
  52 0012 01EB030C 		add	ip, r1, r3
  53 0016 1319     		adds	r3, r2, r4
  54              	.LVL1:
  55              		.loc 1 45 8 view .LVU4
  56 0018 DBB2     		uxtb	r3, r3
  57 001a 0093     		str	r3, [sp]
  58 001c 5FFA8CF3 		uxtb	r3, ip
  59 0020 FFF7FEFF 		bl	u8g2_IsIntersection
  60              	.LVL2:
  61              		.loc 1 45 6 view .LVU5
  62 0024 68B1     		cbz	r0, .L1
  63              	.LVL3:
  64              	.L3:
  46:u8g2/csrc/u8g2_box.c ****     return;
  47:u8g2/csrc/u8g2_box.c **** #endif /* U8G2_WITH_INTERSECTION */
  48:u8g2/csrc/u8g2_box.c ****   while( h != 0 )
  65              		.loc 1 48 8 view .LVU6
  66 0026 64B1     		cbz	r4, .L1
  49:u8g2/csrc/u8g2_box.c ****   { 
ARM GAS  C:\Users\behun\AppData\Local\Temp\ccirKyb6.s 			page 3


  50:u8g2/csrc/u8g2_box.c ****     u8g2_DrawHVLine(u8g2, x, y, w, 0);
  67              		.loc 1 50 5 is_stmt 1 view .LVU7
  68 0028 0023     		movs	r3, #0
  69 002a 0093     		str	r3, [sp]
  70 002c 3346     		mov	r3, r6
  71 002e 2A46     		mov	r2, r5
  72 0030 3946     		mov	r1, r7
  73 0032 4046     		mov	r0, r8
  74 0034 FFF7FEFF 		bl	u8g2_DrawHVLine
  75              	.LVL4:
  51:u8g2/csrc/u8g2_box.c ****     y++;    
  76              		.loc 1 51 5 view .LVU8
  77              		.loc 1 51 6 is_stmt 0 view .LVU9
  78 0038 0135     		adds	r5, r5, #1
  79              	.LVL5:
  80              		.loc 1 51 6 view .LVU10
  81 003a EDB2     		uxtb	r5, r5
  82              	.LVL6:
  52:u8g2/csrc/u8g2_box.c ****     h--;
  83              		.loc 1 52 5 is_stmt 1 view .LVU11
  84              		.loc 1 52 6 is_stmt 0 view .LVU12
  85 003c 013C     		subs	r4, r4, #1
  86              	.LVL7:
  87              		.loc 1 52 6 view .LVU13
  88 003e E4B2     		uxtb	r4, r4
  89              	.LVL8:
  90              		.loc 1 52 6 view .LVU14
  91 0040 F1E7     		b	.L3
  92              	.LVL9:
  93              	.L1:
  53:u8g2/csrc/u8g2_box.c ****   }
  54:u8g2/csrc/u8g2_box.c **** }
  94              		.loc 1 54 1 view .LVU15
  95 0042 02B0     		add	sp, sp, #8
  96              	.LCFI2:
  97              		.cfi_def_cfa_offset 24
  98              		@ sp needed
  99 0044 BDE8F081 		pop	{r4, r5, r6, r7, r8, pc}
 100              		.loc 1 54 1 view .LVU16
 101              		.cfi_endproc
 102              	.LFE0:
 104              		.section	.text.u8g2_DrawFrame,"ax",%progbits
 105              		.align	1
 106              		.global	u8g2_DrawFrame
 107              		.syntax unified
 108              		.thumb
 109              		.thumb_func
 110              		.fpu softvfp
 112              	u8g2_DrawFrame:
 113              	.LVL10:
 114              	.LFB1:
  55:u8g2/csrc/u8g2_box.c **** 
  56:u8g2/csrc/u8g2_box.c **** 
  57:u8g2/csrc/u8g2_box.c **** /*
  58:u8g2/csrc/u8g2_box.c ****   draw a frame (empty box)
  59:u8g2/csrc/u8g2_box.c ****   restriction: does not work for w = 0 or h = 0
  60:u8g2/csrc/u8g2_box.c ****   ToDo:
ARM GAS  C:\Users\behun\AppData\Local\Temp\ccirKyb6.s 			page 4


  61:u8g2/csrc/u8g2_box.c ****     pixel in the corners are drawn twice. This could be optimized.
  62:u8g2/csrc/u8g2_box.c **** */
  63:u8g2/csrc/u8g2_box.c **** void u8g2_DrawFrame(u8g2_t *u8g2, u8g2_uint_t x, u8g2_uint_t y, u8g2_uint_t w, u8g2_uint_t h)
  64:u8g2/csrc/u8g2_box.c **** {
 115              		.loc 1 64 1 is_stmt 1 view -0
 116              		.cfi_startproc
 117              		@ args = 4, pretend = 0, frame = 8
 118              		@ frame_needed = 0, uses_anonymous_args = 0
 119              		.loc 1 64 1 is_stmt 0 view .LVU18
 120 0000 2DE9F04F 		push	{r4, r5, r6, r7, r8, r9, r10, fp, lr}
 121              	.LCFI3:
 122              		.cfi_def_cfa_offset 36
 123              		.cfi_offset 4, -36
 124              		.cfi_offset 5, -32
 125              		.cfi_offset 6, -28
 126              		.cfi_offset 7, -24
 127              		.cfi_offset 8, -20
 128              		.cfi_offset 9, -16
 129              		.cfi_offset 10, -12
 130              		.cfi_offset 11, -8
 131              		.cfi_offset 14, -4
 132 0004 85B0     		sub	sp, sp, #20
 133              	.LCFI4:
 134              		.cfi_def_cfa_offset 56
 135 0006 8346     		mov	fp, r0
 136 0008 0E46     		mov	r6, r1
 137 000a 1746     		mov	r7, r2
 138 000c 9846     		mov	r8, r3
 139 000e 9DF83890 		ldrb	r9, [sp, #56]	@ zero_extendqisi2
  65:u8g2/csrc/u8g2_box.c ****   u8g2_uint_t xtmp = x;
 140              		.loc 1 65 3 is_stmt 1 view .LVU19
 141              	.LVL11:
  66:u8g2/csrc/u8g2_box.c ****   
  67:u8g2/csrc/u8g2_box.c **** #ifdef U8G2_WITH_INTERSECTION
  68:u8g2/csrc/u8g2_box.c ****   if ( u8g2_IsIntersection(u8g2, x, y, x+w, y+h) == 0 ) 
 142              		.loc 1 68 3 view .LVU20
 143              		.loc 1 68 8 is_stmt 0 view .LVU21
 144 0012 CD18     		adds	r5, r1, r3
 145 0014 EDB2     		uxtb	r5, r5
 146 0016 02EB0904 		add	r4, r2, r9
 147 001a E4B2     		uxtb	r4, r4
 148 001c 0094     		str	r4, [sp]
 149 001e 2B46     		mov	r3, r5
 150              	.LVL12:
 151              		.loc 1 68 8 view .LVU22
 152 0020 FFF7FEFF 		bl	u8g2_IsIntersection
 153              	.LVL13:
 154              		.loc 1 68 6 view .LVU23
 155 0024 10B9     		cbnz	r0, .L9
 156              	.LVL14:
 157              	.L6:
  69:u8g2/csrc/u8g2_box.c ****     return;
  70:u8g2/csrc/u8g2_box.c **** #endif /* U8G2_WITH_INTERSECTION */
  71:u8g2/csrc/u8g2_box.c ****   
  72:u8g2/csrc/u8g2_box.c ****   u8g2_DrawHVLine(u8g2, x, y, w, 0);
  73:u8g2/csrc/u8g2_box.c ****   u8g2_DrawHVLine(u8g2, x, y, h, 1);
  74:u8g2/csrc/u8g2_box.c ****   x+=w;
ARM GAS  C:\Users\behun\AppData\Local\Temp\ccirKyb6.s 			page 5


  75:u8g2/csrc/u8g2_box.c ****   x--;
  76:u8g2/csrc/u8g2_box.c ****   u8g2_DrawHVLine(u8g2, x, y, h, 1);
  77:u8g2/csrc/u8g2_box.c ****   y+=h;
  78:u8g2/csrc/u8g2_box.c ****   y--;
  79:u8g2/csrc/u8g2_box.c ****   u8g2_DrawHVLine(u8g2, xtmp, y, w, 0);
  80:u8g2/csrc/u8g2_box.c **** }
 158              		.loc 1 80 1 view .LVU24
 159 0026 05B0     		add	sp, sp, #20
 160              	.LCFI5:
 161              		.cfi_remember_state
 162              		.cfi_def_cfa_offset 36
 163              		@ sp needed
 164 0028 BDE8F08F 		pop	{r4, r5, r6, r7, r8, r9, r10, fp, pc}
 165              	.LVL15:
 166              	.L9:
 167              	.LCFI6:
 168              		.cfi_restore_state
  72:u8g2/csrc/u8g2_box.c ****   u8g2_DrawHVLine(u8g2, x, y, h, 1);
 169              		.loc 1 72 3 is_stmt 1 view .LVU25
 170 002c 4FF0000A 		mov	r10, #0
 171 0030 CDF800A0 		str	r10, [sp]
 172 0034 4346     		mov	r3, r8
 173 0036 3A46     		mov	r2, r7
 174 0038 3146     		mov	r1, r6
 175 003a CDF80CB0 		str	fp, [sp, #12]
 176 003e 5846     		mov	r0, fp
 177 0040 FFF7FEFF 		bl	u8g2_DrawHVLine
 178              	.LVL16:
  73:u8g2/csrc/u8g2_box.c ****   x+=w;
 179              		.loc 1 73 3 view .LVU26
 180 0044 4FF0010B 		mov	fp, #1
 181              	.LVL17:
  73:u8g2/csrc/u8g2_box.c ****   x+=w;
 182              		.loc 1 73 3 is_stmt 0 view .LVU27
 183 0048 CDF800B0 		str	fp, [sp]
 184 004c 4B46     		mov	r3, r9
 185 004e 3A46     		mov	r2, r7
 186 0050 3146     		mov	r1, r6
 187 0052 0398     		ldr	r0, [sp, #12]
 188 0054 FFF7FEFF 		bl	u8g2_DrawHVLine
 189              	.LVL18:
  74:u8g2/csrc/u8g2_box.c ****   x--;
 190              		.loc 1 74 3 is_stmt 1 view .LVU28
  75:u8g2/csrc/u8g2_box.c ****   u8g2_DrawHVLine(u8g2, x, y, h, 1);
 191              		.loc 1 75 3 view .LVU29
  75:u8g2/csrc/u8g2_box.c ****   u8g2_DrawHVLine(u8g2, x, y, h, 1);
 192              		.loc 1 75 4 is_stmt 0 view .LVU30
 193 0058 691E     		subs	r1, r5, #1
 194              	.LVL19:
  76:u8g2/csrc/u8g2_box.c ****   y+=h;
 195              		.loc 1 76 3 is_stmt 1 view .LVU31
 196 005a CDF800B0 		str	fp, [sp]
 197 005e 4B46     		mov	r3, r9
 198 0060 3A46     		mov	r2, r7
 199 0062 C9B2     		uxtb	r1, r1
  76:u8g2/csrc/u8g2_box.c ****   y+=h;
 200              		.loc 1 76 3 is_stmt 0 view .LVU32
ARM GAS  C:\Users\behun\AppData\Local\Temp\ccirKyb6.s 			page 6


 201 0064 DDF80CB0 		ldr	fp, [sp, #12]
 202 0068 5846     		mov	r0, fp
 203 006a FFF7FEFF 		bl	u8g2_DrawHVLine
 204              	.LVL20:
  77:u8g2/csrc/u8g2_box.c ****   y--;
 205              		.loc 1 77 3 is_stmt 1 view .LVU33
  78:u8g2/csrc/u8g2_box.c ****   u8g2_DrawHVLine(u8g2, xtmp, y, w, 0);
 206              		.loc 1 78 3 view .LVU34
  78:u8g2/csrc/u8g2_box.c ****   u8g2_DrawHVLine(u8g2, xtmp, y, w, 0);
 207              		.loc 1 78 4 is_stmt 0 view .LVU35
 208 006e 621E     		subs	r2, r4, #1
 209              	.LVL21:
  79:u8g2/csrc/u8g2_box.c **** }
 210              		.loc 1 79 3 is_stmt 1 view .LVU36
 211 0070 CDF800A0 		str	r10, [sp]
 212 0074 4346     		mov	r3, r8
 213 0076 D2B2     		uxtb	r2, r2
  79:u8g2/csrc/u8g2_box.c **** }
 214              		.loc 1 79 3 is_stmt 0 view .LVU37
 215 0078 3146     		mov	r1, r6
 216 007a 5846     		mov	r0, fp
 217 007c FFF7FEFF 		bl	u8g2_DrawHVLine
 218              	.LVL22:
  79:u8g2/csrc/u8g2_box.c **** }
 219              		.loc 1 79 3 view .LVU38
 220 0080 D1E7     		b	.L6
 221              		.cfi_endproc
 222              	.LFE1:
 224              		.section	.text.u8g2_DrawRBox,"ax",%progbits
 225              		.align	1
 226              		.global	u8g2_DrawRBox
 227              		.syntax unified
 228              		.thumb
 229              		.thumb_func
 230              		.fpu softvfp
 232              	u8g2_DrawRBox:
 233              	.LVL23:
 234              	.LFB2:
  81:u8g2/csrc/u8g2_box.c **** 
  82:u8g2/csrc/u8g2_box.c **** 
  83:u8g2/csrc/u8g2_box.c **** 
  84:u8g2/csrc/u8g2_box.c **** 
  85:u8g2/csrc/u8g2_box.c **** void u8g2_DrawRBox(u8g2_t *u8g2, u8g2_uint_t x, u8g2_uint_t y, u8g2_uint_t w, u8g2_uint_t h, u8g2_u
  86:u8g2/csrc/u8g2_box.c **** {
 235              		.loc 1 86 1 is_stmt 1 view -0
 236              		.cfi_startproc
 237              		@ args = 8, pretend = 0, frame = 16
 238              		@ frame_needed = 0, uses_anonymous_args = 0
 239              		.loc 1 86 1 is_stmt 0 view .LVU40
 240 0000 2DE9F04F 		push	{r4, r5, r6, r7, r8, r9, r10, fp, lr}
 241              	.LCFI7:
 242              		.cfi_def_cfa_offset 36
 243              		.cfi_offset 4, -36
 244              		.cfi_offset 5, -32
 245              		.cfi_offset 6, -28
 246              		.cfi_offset 7, -24
 247              		.cfi_offset 8, -20
ARM GAS  C:\Users\behun\AppData\Local\Temp\ccirKyb6.s 			page 7


 248              		.cfi_offset 9, -16
 249              		.cfi_offset 10, -12
 250              		.cfi_offset 11, -8
 251              		.cfi_offset 14, -4
 252 0004 87B0     		sub	sp, sp, #28
 253              	.LCFI8:
 254              		.cfi_def_cfa_offset 64
 255 0006 0390     		str	r0, [sp, #12]
 256 0008 8946     		mov	r9, r1
 257 000a 9346     		mov	fp, r2
 258 000c 9A46     		mov	r10, r3
 259 000e 9DF84060 		ldrb	r6, [sp, #64]	@ zero_extendqisi2
 260 0012 9DF84470 		ldrb	r7, [sp, #68]	@ zero_extendqisi2
  87:u8g2/csrc/u8g2_box.c ****   u8g2_uint_t xl, yu;
 261              		.loc 1 87 3 is_stmt 1 view .LVU41
  88:u8g2/csrc/u8g2_box.c ****   u8g2_uint_t yl, xr;
 262              		.loc 1 88 3 view .LVU42
  89:u8g2/csrc/u8g2_box.c **** 
  90:u8g2/csrc/u8g2_box.c **** #ifdef U8G2_WITH_INTERSECTION
  91:u8g2/csrc/u8g2_box.c ****   if ( u8g2_IsIntersection(u8g2, x, y, x+w, y+h) == 0 ) 
 263              		.loc 1 91 3 view .LVU43
 264              		.loc 1 91 8 is_stmt 0 view .LVU44
 265 0016 CC18     		adds	r4, r1, r3
 266 0018 E4B2     		uxtb	r4, r4
 267 001a 9519     		adds	r5, r2, r6
 268 001c EDB2     		uxtb	r5, r5
 269 001e 0095     		str	r5, [sp]
 270 0020 2346     		mov	r3, r4
 271              	.LVL24:
 272              		.loc 1 91 8 view .LVU45
 273 0022 FFF7FEFF 		bl	u8g2_IsIntersection
 274              	.LVL25:
 275              		.loc 1 91 6 view .LVU46
 276 0026 10B9     		cbnz	r0, .L14
 277              	.L10:
  92:u8g2/csrc/u8g2_box.c ****     return;
  93:u8g2/csrc/u8g2_box.c **** #endif /* U8G2_WITH_INTERSECTION */
  94:u8g2/csrc/u8g2_box.c **** 
  95:u8g2/csrc/u8g2_box.c ****   xl = x;
  96:u8g2/csrc/u8g2_box.c ****   xl += r;
  97:u8g2/csrc/u8g2_box.c ****   yu = y;
  98:u8g2/csrc/u8g2_box.c ****   yu += r;
  99:u8g2/csrc/u8g2_box.c ****  
 100:u8g2/csrc/u8g2_box.c ****   xr = x;
 101:u8g2/csrc/u8g2_box.c ****   xr += w;
 102:u8g2/csrc/u8g2_box.c ****   xr -= r;
 103:u8g2/csrc/u8g2_box.c ****   xr -= 1;
 104:u8g2/csrc/u8g2_box.c ****   
 105:u8g2/csrc/u8g2_box.c ****   yl = y;
 106:u8g2/csrc/u8g2_box.c ****   yl += h;
 107:u8g2/csrc/u8g2_box.c ****   yl -= r; 
 108:u8g2/csrc/u8g2_box.c ****   yl -= 1;
 109:u8g2/csrc/u8g2_box.c **** 
 110:u8g2/csrc/u8g2_box.c ****   u8g2_DrawDisc(u8g2, xl, yu, r, U8G2_DRAW_UPPER_LEFT);
 111:u8g2/csrc/u8g2_box.c ****   u8g2_DrawDisc(u8g2, xr, yu, r, U8G2_DRAW_UPPER_RIGHT);
 112:u8g2/csrc/u8g2_box.c ****   u8g2_DrawDisc(u8g2, xl, yl, r, U8G2_DRAW_LOWER_LEFT);
 113:u8g2/csrc/u8g2_box.c ****   u8g2_DrawDisc(u8g2, xr, yl, r, U8G2_DRAW_LOWER_RIGHT);
ARM GAS  C:\Users\behun\AppData\Local\Temp\ccirKyb6.s 			page 8


 114:u8g2/csrc/u8g2_box.c **** 
 115:u8g2/csrc/u8g2_box.c ****   {
 116:u8g2/csrc/u8g2_box.c ****     u8g2_uint_t ww, hh;
 117:u8g2/csrc/u8g2_box.c **** 
 118:u8g2/csrc/u8g2_box.c ****     ww = w;
 119:u8g2/csrc/u8g2_box.c ****     ww -= r;
 120:u8g2/csrc/u8g2_box.c ****     ww -= r;
 121:u8g2/csrc/u8g2_box.c ****     xl++;
 122:u8g2/csrc/u8g2_box.c ****     yu++;
 123:u8g2/csrc/u8g2_box.c ****     
 124:u8g2/csrc/u8g2_box.c ****     if ( ww >= 3 )
 125:u8g2/csrc/u8g2_box.c ****     {
 126:u8g2/csrc/u8g2_box.c ****       ww -= 2;
 127:u8g2/csrc/u8g2_box.c ****       u8g2_DrawBox(u8g2, xl, y, ww, r+1);
 128:u8g2/csrc/u8g2_box.c ****       u8g2_DrawBox(u8g2, xl, yl, ww, r+1);
 129:u8g2/csrc/u8g2_box.c ****     }
 130:u8g2/csrc/u8g2_box.c ****     
 131:u8g2/csrc/u8g2_box.c ****     hh = h;
 132:u8g2/csrc/u8g2_box.c ****     hh -= r;
 133:u8g2/csrc/u8g2_box.c ****     hh -= r;
 134:u8g2/csrc/u8g2_box.c ****     //h--;
 135:u8g2/csrc/u8g2_box.c ****     if ( hh >= 3 )
 136:u8g2/csrc/u8g2_box.c ****     {
 137:u8g2/csrc/u8g2_box.c ****       hh -= 2;
 138:u8g2/csrc/u8g2_box.c ****       u8g2_DrawBox(u8g2, x, yu, w, hh);
 139:u8g2/csrc/u8g2_box.c ****     }
 140:u8g2/csrc/u8g2_box.c ****   }
 141:u8g2/csrc/u8g2_box.c **** }
 278              		.loc 1 141 1 view .LVU47
 279 0028 07B0     		add	sp, sp, #28
 280              	.LCFI9:
 281              		.cfi_remember_state
 282              		.cfi_def_cfa_offset 36
 283              		@ sp needed
 284 002a BDE8F08F 		pop	{r4, r5, r6, r7, r8, r9, r10, fp, pc}
 285              	.LVL26:
 286              	.L14:
 287              	.LCFI10:
 288              		.cfi_restore_state
  95:u8g2/csrc/u8g2_box.c ****   xl += r;
 289              		.loc 1 95 3 is_stmt 1 view .LVU48
  96:u8g2/csrc/u8g2_box.c ****   yu = y;
 290              		.loc 1 96 3 view .LVU49
  96:u8g2/csrc/u8g2_box.c ****   yu = y;
 291              		.loc 1 96 6 is_stmt 0 view .LVU50
 292 002e 09EB0708 		add	r8, r9, r7
 293 0032 5FFA88F8 		uxtb	r8, r8
 294              	.LVL27:
  97:u8g2/csrc/u8g2_box.c ****   yu += r;
 295              		.loc 1 97 3 is_stmt 1 view .LVU51
  98:u8g2/csrc/u8g2_box.c ****  
 296              		.loc 1 98 3 view .LVU52
  98:u8g2/csrc/u8g2_box.c ****  
 297              		.loc 1 98 6 is_stmt 0 view .LVU53
 298 0036 0BEB0703 		add	r3, fp, r7
 299 003a DAB2     		uxtb	r2, r3
 300              	.LVL28:
ARM GAS  C:\Users\behun\AppData\Local\Temp\ccirKyb6.s 			page 9


 100:u8g2/csrc/u8g2_box.c ****   xr += w;
 301              		.loc 1 100 3 is_stmt 1 view .LVU54
 101:u8g2/csrc/u8g2_box.c ****   xr -= r;
 302              		.loc 1 101 3 view .LVU55
 102:u8g2/csrc/u8g2_box.c ****   xr -= 1;
 303              		.loc 1 102 3 view .LVU56
 102:u8g2/csrc/u8g2_box.c ****   xr -= 1;
 304              		.loc 1 102 6 is_stmt 0 view .LVU57
 305 003c E41B     		subs	r4, r4, r7
 306              	.LVL29:
 102:u8g2/csrc/u8g2_box.c ****   xr -= 1;
 307              		.loc 1 102 6 view .LVU58
 308 003e E4B2     		uxtb	r4, r4
 309              	.LVL30:
 103:u8g2/csrc/u8g2_box.c ****   
 310              		.loc 1 103 3 is_stmt 1 view .LVU59
 103:u8g2/csrc/u8g2_box.c ****   
 311              		.loc 1 103 6 is_stmt 0 view .LVU60
 312 0040 013C     		subs	r4, r4, #1
 313              	.LVL31:
 103:u8g2/csrc/u8g2_box.c ****   
 314              		.loc 1 103 6 view .LVU61
 315 0042 E4B2     		uxtb	r4, r4
 316              	.LVL32:
 105:u8g2/csrc/u8g2_box.c ****   yl += h;
 317              		.loc 1 105 3 is_stmt 1 view .LVU62
 106:u8g2/csrc/u8g2_box.c ****   yl -= r; 
 318              		.loc 1 106 3 view .LVU63
 107:u8g2/csrc/u8g2_box.c ****   yl -= 1;
 319              		.loc 1 107 3 view .LVU64
 107:u8g2/csrc/u8g2_box.c ****   yl -= 1;
 320              		.loc 1 107 6 is_stmt 0 view .LVU65
 321 0044 ED1B     		subs	r5, r5, r7
 322              	.LVL33:
 107:u8g2/csrc/u8g2_box.c ****   yl -= 1;
 323              		.loc 1 107 6 view .LVU66
 324 0046 EDB2     		uxtb	r5, r5
 325              	.LVL34:
 108:u8g2/csrc/u8g2_box.c **** 
 326              		.loc 1 108 3 is_stmt 1 view .LVU67
 108:u8g2/csrc/u8g2_box.c **** 
 327              		.loc 1 108 6 is_stmt 0 view .LVU68
 328 0048 013D     		subs	r5, r5, #1
 329              	.LVL35:
 108:u8g2/csrc/u8g2_box.c **** 
 330              		.loc 1 108 6 view .LVU69
 331 004a EDB2     		uxtb	r5, r5
 332              	.LVL36:
 110:u8g2/csrc/u8g2_box.c ****   u8g2_DrawDisc(u8g2, xr, yu, r, U8G2_DRAW_UPPER_RIGHT);
 333              		.loc 1 110 3 is_stmt 1 view .LVU70
 334 004c 0223     		movs	r3, #2
 335 004e 0093     		str	r3, [sp]
 336 0050 3B46     		mov	r3, r7
 337 0052 0492     		str	r2, [sp, #16]
 338 0054 4146     		mov	r1, r8
 339 0056 0398     		ldr	r0, [sp, #12]
 340 0058 FFF7FEFF 		bl	u8g2_DrawDisc
ARM GAS  C:\Users\behun\AppData\Local\Temp\ccirKyb6.s 			page 10


 341              	.LVL37:
 111:u8g2/csrc/u8g2_box.c ****   u8g2_DrawDisc(u8g2, xl, yl, r, U8G2_DRAW_LOWER_LEFT);
 342              		.loc 1 111 3 view .LVU71
 343 005c 0123     		movs	r3, #1
 344 005e 0093     		str	r3, [sp]
 345 0060 3B46     		mov	r3, r7
 346 0062 049A     		ldr	r2, [sp, #16]
 347 0064 2146     		mov	r1, r4
 348 0066 0398     		ldr	r0, [sp, #12]
 349 0068 FFF7FEFF 		bl	u8g2_DrawDisc
 350              	.LVL38:
 112:u8g2/csrc/u8g2_box.c ****   u8g2_DrawDisc(u8g2, xr, yl, r, U8G2_DRAW_LOWER_RIGHT);
 351              		.loc 1 112 3 view .LVU72
 352 006c 0423     		movs	r3, #4
 353 006e 0093     		str	r3, [sp]
 354 0070 3B46     		mov	r3, r7
 355 0072 0595     		str	r5, [sp, #20]
 356 0074 2A46     		mov	r2, r5
 357 0076 4146     		mov	r1, r8
 358 0078 039D     		ldr	r5, [sp, #12]
 359              	.LVL39:
 112:u8g2/csrc/u8g2_box.c ****   u8g2_DrawDisc(u8g2, xr, yl, r, U8G2_DRAW_LOWER_RIGHT);
 360              		.loc 1 112 3 is_stmt 0 view .LVU73
 361 007a 2846     		mov	r0, r5
 362 007c FFF7FEFF 		bl	u8g2_DrawDisc
 363              	.LVL40:
 113:u8g2/csrc/u8g2_box.c **** 
 364              		.loc 1 113 3 is_stmt 1 view .LVU74
 365 0080 0823     		movs	r3, #8
 366 0082 0093     		str	r3, [sp]
 367 0084 3B46     		mov	r3, r7
 368 0086 059A     		ldr	r2, [sp, #20]
 369 0088 2146     		mov	r1, r4
 370 008a 2846     		mov	r0, r5
 371 008c FFF7FEFF 		bl	u8g2_DrawDisc
 372              	.LVL41:
 373              	.LBB2:
 116:u8g2/csrc/u8g2_box.c **** 
 374              		.loc 1 116 5 view .LVU75
 118:u8g2/csrc/u8g2_box.c ****     ww -= r;
 375              		.loc 1 118 5 view .LVU76
 119:u8g2/csrc/u8g2_box.c ****     ww -= r;
 376              		.loc 1 119 5 view .LVU77
 119:u8g2/csrc/u8g2_box.c ****     ww -= r;
 377              		.loc 1 119 8 is_stmt 0 view .LVU78
 378 0090 AAEB0703 		sub	r3, r10, r7
 379 0094 DBB2     		uxtb	r3, r3
 380              	.LVL42:
 120:u8g2/csrc/u8g2_box.c ****     xl++;
 381              		.loc 1 120 5 is_stmt 1 view .LVU79
 120:u8g2/csrc/u8g2_box.c ****     xl++;
 382              		.loc 1 120 8 is_stmt 0 view .LVU80
 383 0096 DB1B     		subs	r3, r3, r7
 384              	.LVL43:
 120:u8g2/csrc/u8g2_box.c ****     xl++;
 385              		.loc 1 120 8 view .LVU81
 386 0098 DBB2     		uxtb	r3, r3
ARM GAS  C:\Users\behun\AppData\Local\Temp\ccirKyb6.s 			page 11


 387              	.LVL44:
 121:u8g2/csrc/u8g2_box.c ****     yu++;
 388              		.loc 1 121 5 is_stmt 1 view .LVU82
 121:u8g2/csrc/u8g2_box.c ****     yu++;
 389              		.loc 1 121 7 is_stmt 0 view .LVU83
 390 009a 08F10108 		add	r8, r8, #1
 391              	.LVL45:
 121:u8g2/csrc/u8g2_box.c ****     yu++;
 392              		.loc 1 121 7 view .LVU84
 393 009e 5FFA88F8 		uxtb	r8, r8
 394              	.LVL46:
 122:u8g2/csrc/u8g2_box.c ****     
 395              		.loc 1 122 5 is_stmt 1 view .LVU85
 122:u8g2/csrc/u8g2_box.c ****     
 396              		.loc 1 122 7 is_stmt 0 view .LVU86
 397 00a2 049A     		ldr	r2, [sp, #16]
 398 00a4 541C     		adds	r4, r2, #1
 399              	.LVL47:
 122:u8g2/csrc/u8g2_box.c ****     
 400              		.loc 1 122 7 view .LVU87
 401 00a6 E4B2     		uxtb	r4, r4
 402              	.LVL48:
 124:u8g2/csrc/u8g2_box.c ****     {
 403              		.loc 1 124 5 is_stmt 1 view .LVU88
 124:u8g2/csrc/u8g2_box.c ****     {
 404              		.loc 1 124 8 is_stmt 0 view .LVU89
 405 00a8 022B     		cmp	r3, #2
 406 00aa 0FD8     		bhi	.L15
 407              	.LVL49:
 408              	.L12:
 131:u8g2/csrc/u8g2_box.c ****     hh -= r;
 409              		.loc 1 131 5 is_stmt 1 view .LVU90
 132:u8g2/csrc/u8g2_box.c ****     hh -= r;
 410              		.loc 1 132 5 view .LVU91
 132:u8g2/csrc/u8g2_box.c ****     hh -= r;
 411              		.loc 1 132 8 is_stmt 0 view .LVU92
 412 00ac F61B     		subs	r6, r6, r7
 413              	.LVL50:
 132:u8g2/csrc/u8g2_box.c ****     hh -= r;
 414              		.loc 1 132 8 view .LVU93
 415 00ae F6B2     		uxtb	r6, r6
 416              	.LVL51:
 133:u8g2/csrc/u8g2_box.c ****     //h--;
 417              		.loc 1 133 5 is_stmt 1 view .LVU94
 133:u8g2/csrc/u8g2_box.c ****     //h--;
 418              		.loc 1 133 8 is_stmt 0 view .LVU95
 419 00b0 F71B     		subs	r7, r6, r7
 420              	.LVL52:
 133:u8g2/csrc/u8g2_box.c ****     //h--;
 421              		.loc 1 133 8 view .LVU96
 422 00b2 FFB2     		uxtb	r7, r7
 423              	.LVL53:
 135:u8g2/csrc/u8g2_box.c ****     {
 424              		.loc 1 135 5 is_stmt 1 view .LVU97
 135:u8g2/csrc/u8g2_box.c ****     {
 425              		.loc 1 135 8 is_stmt 0 view .LVU98
 426 00b4 022F     		cmp	r7, #2
ARM GAS  C:\Users\behun\AppData\Local\Temp\ccirKyb6.s 			page 12


 427 00b6 B7D9     		bls	.L10
 137:u8g2/csrc/u8g2_box.c ****       u8g2_DrawBox(u8g2, x, yu, w, hh);
 428              		.loc 1 137 7 is_stmt 1 view .LVU99
 137:u8g2/csrc/u8g2_box.c ****       u8g2_DrawBox(u8g2, x, yu, w, hh);
 429              		.loc 1 137 10 is_stmt 0 view .LVU100
 430 00b8 023F     		subs	r7, r7, #2
 431              	.LVL54:
 137:u8g2/csrc/u8g2_box.c ****       u8g2_DrawBox(u8g2, x, yu, w, hh);
 432              		.loc 1 137 10 view .LVU101
 433 00ba FFB2     		uxtb	r7, r7
 434              	.LVL55:
 138:u8g2/csrc/u8g2_box.c ****     }
 435              		.loc 1 138 7 is_stmt 1 view .LVU102
 436 00bc 0097     		str	r7, [sp]
 437 00be 5346     		mov	r3, r10
 438 00c0 2246     		mov	r2, r4
 439 00c2 4946     		mov	r1, r9
 440 00c4 0398     		ldr	r0, [sp, #12]
 441 00c6 FFF7FEFF 		bl	u8g2_DrawBox
 442              	.LVL56:
 443 00ca ADE7     		b	.L10
 444              	.LVL57:
 445              	.L15:
 126:u8g2/csrc/u8g2_box.c ****       u8g2_DrawBox(u8g2, xl, y, ww, r+1);
 446              		.loc 1 126 7 view .LVU103
 126:u8g2/csrc/u8g2_box.c ****       u8g2_DrawBox(u8g2, xl, y, ww, r+1);
 447              		.loc 1 126 10 is_stmt 0 view .LVU104
 448 00cc 023B     		subs	r3, r3, #2
 449              	.LVL58:
 126:u8g2/csrc/u8g2_box.c ****       u8g2_DrawBox(u8g2, xl, y, ww, r+1);
 450              		.loc 1 126 10 view .LVU105
 451 00ce DBB2     		uxtb	r3, r3
 452              	.LVL59:
 127:u8g2/csrc/u8g2_box.c ****       u8g2_DrawBox(u8g2, xl, yl, ww, r+1);
 453              		.loc 1 127 7 is_stmt 1 view .LVU106
 454 00d0 7D1C     		adds	r5, r7, #1
 455 00d2 EDB2     		uxtb	r5, r5
 456 00d4 0095     		str	r5, [sp]
 457 00d6 0493     		str	r3, [sp, #16]
 458 00d8 5A46     		mov	r2, fp
 459 00da 4146     		mov	r1, r8
 460 00dc DDF80CB0 		ldr	fp, [sp, #12]
 461 00e0 5846     		mov	r0, fp
 462 00e2 FFF7FEFF 		bl	u8g2_DrawBox
 463              	.LVL60:
 128:u8g2/csrc/u8g2_box.c ****     }
 464              		.loc 1 128 7 view .LVU107
 465 00e6 0095     		str	r5, [sp]
 466 00e8 049B     		ldr	r3, [sp, #16]
 467 00ea 059A     		ldr	r2, [sp, #20]
 468 00ec 4146     		mov	r1, r8
 469 00ee 5846     		mov	r0, fp
 470 00f0 FFF7FEFF 		bl	u8g2_DrawBox
 471              	.LVL61:
 472 00f4 DAE7     		b	.L12
 473              	.LBE2:
 474              		.cfi_endproc
ARM GAS  C:\Users\behun\AppData\Local\Temp\ccirKyb6.s 			page 13


 475              	.LFE2:
 477              		.section	.text.u8g2_DrawRFrame,"ax",%progbits
 478              		.align	1
 479              		.global	u8g2_DrawRFrame
 480              		.syntax unified
 481              		.thumb
 482              		.thumb_func
 483              		.fpu softvfp
 485              	u8g2_DrawRFrame:
 486              	.LVL62:
 487              	.LFB3:
 142:u8g2/csrc/u8g2_box.c **** 
 143:u8g2/csrc/u8g2_box.c **** 
 144:u8g2/csrc/u8g2_box.c **** void u8g2_DrawRFrame(u8g2_t *u8g2, u8g2_uint_t x, u8g2_uint_t y, u8g2_uint_t w, u8g2_uint_t h, u8g2
 145:u8g2/csrc/u8g2_box.c **** {
 488              		.loc 1 145 1 view -0
 489              		.cfi_startproc
 490              		@ args = 8, pretend = 0, frame = 8
 491              		@ frame_needed = 0, uses_anonymous_args = 0
 492              		.loc 1 145 1 is_stmt 0 view .LVU109
 493 0000 2DE9F04F 		push	{r4, r5, r6, r7, r8, r9, r10, fp, lr}
 494              	.LCFI11:
 495              		.cfi_def_cfa_offset 36
 496              		.cfi_offset 4, -36
 497              		.cfi_offset 5, -32
 498              		.cfi_offset 6, -28
 499              		.cfi_offset 7, -24
 500              		.cfi_offset 8, -20
 501              		.cfi_offset 9, -16
 502              		.cfi_offset 10, -12
 503              		.cfi_offset 11, -8
 504              		.cfi_offset 14, -4
 505 0004 85B0     		sub	sp, sp, #20
 506              	.LCFI12:
 507              		.cfi_def_cfa_offset 56
 508 0006 0290     		str	r0, [sp, #8]
 509 0008 8A46     		mov	r10, r1
 510 000a 9346     		mov	fp, r2
 511 000c 9846     		mov	r8, r3
 512 000e 9DF83890 		ldrb	r9, [sp, #56]	@ zero_extendqisi2
 513 0012 9DF83C60 		ldrb	r6, [sp, #60]	@ zero_extendqisi2
 146:u8g2/csrc/u8g2_box.c ****   u8g2_uint_t xl, yu;
 514              		.loc 1 146 3 is_stmt 1 view .LVU110
 147:u8g2/csrc/u8g2_box.c **** 
 148:u8g2/csrc/u8g2_box.c **** #ifdef U8G2_WITH_INTERSECTION
 149:u8g2/csrc/u8g2_box.c ****   if ( u8g2_IsIntersection(u8g2, x, y, x+w, y+h) == 0 ) 
 515              		.loc 1 149 3 view .LVU111
 516              		.loc 1 149 8 is_stmt 0 view .LVU112
 517 0016 CD18     		adds	r5, r1, r3
 518 0018 EDB2     		uxtb	r5, r5
 519 001a 02EB0904 		add	r4, r2, r9
 520 001e E4B2     		uxtb	r4, r4
 521 0020 0094     		str	r4, [sp]
 522 0022 2B46     		mov	r3, r5
 523              	.LVL63:
 524              		.loc 1 149 8 view .LVU113
 525 0024 FFF7FEFF 		bl	u8g2_IsIntersection
ARM GAS  C:\Users\behun\AppData\Local\Temp\ccirKyb6.s 			page 14


 526              	.LVL64:
 527              		.loc 1 149 6 view .LVU114
 528 0028 10B9     		cbnz	r0, .L20
 529              	.LVL65:
 530              	.L16:
 150:u8g2/csrc/u8g2_box.c ****     return;
 151:u8g2/csrc/u8g2_box.c **** #endif /* U8G2_WITH_INTERSECTION */
 152:u8g2/csrc/u8g2_box.c **** 
 153:u8g2/csrc/u8g2_box.c ****   xl = x;
 154:u8g2/csrc/u8g2_box.c ****   xl += r;
 155:u8g2/csrc/u8g2_box.c ****   yu = y;
 156:u8g2/csrc/u8g2_box.c ****   yu += r;
 157:u8g2/csrc/u8g2_box.c ****  
 158:u8g2/csrc/u8g2_box.c ****   {
 159:u8g2/csrc/u8g2_box.c ****     u8g2_uint_t yl, xr;
 160:u8g2/csrc/u8g2_box.c ****       
 161:u8g2/csrc/u8g2_box.c ****     xr = x;
 162:u8g2/csrc/u8g2_box.c ****     xr += w;
 163:u8g2/csrc/u8g2_box.c ****     xr -= r;
 164:u8g2/csrc/u8g2_box.c ****     xr -= 1;
 165:u8g2/csrc/u8g2_box.c ****     
 166:u8g2/csrc/u8g2_box.c ****     yl = y;
 167:u8g2/csrc/u8g2_box.c ****     yl += h;
 168:u8g2/csrc/u8g2_box.c ****     yl -= r; 
 169:u8g2/csrc/u8g2_box.c ****     yl -= 1;
 170:u8g2/csrc/u8g2_box.c **** 
 171:u8g2/csrc/u8g2_box.c ****     u8g2_DrawCircle(u8g2, xl, yu, r, U8G2_DRAW_UPPER_LEFT);
 172:u8g2/csrc/u8g2_box.c ****     u8g2_DrawCircle(u8g2, xr, yu, r, U8G2_DRAW_UPPER_RIGHT);
 173:u8g2/csrc/u8g2_box.c ****     u8g2_DrawCircle(u8g2, xl, yl, r, U8G2_DRAW_LOWER_LEFT);
 174:u8g2/csrc/u8g2_box.c ****     u8g2_DrawCircle(u8g2, xr, yl, r, U8G2_DRAW_LOWER_RIGHT);
 175:u8g2/csrc/u8g2_box.c ****   }
 176:u8g2/csrc/u8g2_box.c **** 
 177:u8g2/csrc/u8g2_box.c ****   {
 178:u8g2/csrc/u8g2_box.c ****     u8g2_uint_t ww, hh;
 179:u8g2/csrc/u8g2_box.c **** 
 180:u8g2/csrc/u8g2_box.c ****     ww = w;
 181:u8g2/csrc/u8g2_box.c ****     ww -= r;
 182:u8g2/csrc/u8g2_box.c ****     ww -= r;
 183:u8g2/csrc/u8g2_box.c ****     hh = h;
 184:u8g2/csrc/u8g2_box.c ****     hh -= r;
 185:u8g2/csrc/u8g2_box.c ****     hh -= r;
 186:u8g2/csrc/u8g2_box.c ****     
 187:u8g2/csrc/u8g2_box.c ****     xl++;
 188:u8g2/csrc/u8g2_box.c ****     yu++;
 189:u8g2/csrc/u8g2_box.c ****     
 190:u8g2/csrc/u8g2_box.c ****     if ( ww >= 3 )
 191:u8g2/csrc/u8g2_box.c ****     {
 192:u8g2/csrc/u8g2_box.c ****       ww -= 2;
 193:u8g2/csrc/u8g2_box.c ****       h--;
 194:u8g2/csrc/u8g2_box.c ****       u8g2_DrawHLine(u8g2, xl, y, ww);
 195:u8g2/csrc/u8g2_box.c ****       u8g2_DrawHLine(u8g2, xl, y+h, ww);
 196:u8g2/csrc/u8g2_box.c ****     }
 197:u8g2/csrc/u8g2_box.c ****     
 198:u8g2/csrc/u8g2_box.c ****     if ( hh >= 3 )
 199:u8g2/csrc/u8g2_box.c ****     {
 200:u8g2/csrc/u8g2_box.c ****       hh -= 2;
 201:u8g2/csrc/u8g2_box.c ****       w--;
ARM GAS  C:\Users\behun\AppData\Local\Temp\ccirKyb6.s 			page 15


 202:u8g2/csrc/u8g2_box.c ****       u8g2_DrawVLine(u8g2, x, yu, hh);
 203:u8g2/csrc/u8g2_box.c ****       u8g2_DrawVLine(u8g2, x+w, yu, hh);
 204:u8g2/csrc/u8g2_box.c ****     }
 205:u8g2/csrc/u8g2_box.c ****   }
 206:u8g2/csrc/u8g2_box.c **** }
 531              		.loc 1 206 1 view .LVU115
 532 002a 05B0     		add	sp, sp, #20
 533              	.LCFI13:
 534              		.cfi_remember_state
 535              		.cfi_def_cfa_offset 36
 536              		@ sp needed
 537 002c BDE8F08F 		pop	{r4, r5, r6, r7, r8, r9, r10, fp, pc}
 538              	.LVL66:
 539              	.L20:
 540              	.LCFI14:
 541              		.cfi_restore_state
 153:u8g2/csrc/u8g2_box.c ****   xl += r;
 542              		.loc 1 153 3 is_stmt 1 view .LVU116
 154:u8g2/csrc/u8g2_box.c ****   yu = y;
 543              		.loc 1 154 3 view .LVU117
 154:u8g2/csrc/u8g2_box.c ****   yu = y;
 544              		.loc 1 154 6 is_stmt 0 view .LVU118
 545 0030 0AEB0607 		add	r7, r10, r6
 546 0034 FFB2     		uxtb	r7, r7
 547              	.LVL67:
 155:u8g2/csrc/u8g2_box.c ****   yu += r;
 548              		.loc 1 155 3 is_stmt 1 view .LVU119
 156:u8g2/csrc/u8g2_box.c ****  
 549              		.loc 1 156 3 view .LVU120
 156:u8g2/csrc/u8g2_box.c ****  
 550              		.loc 1 156 6 is_stmt 0 view .LVU121
 551 0036 0BEB0603 		add	r3, fp, r6
 552 003a DAB2     		uxtb	r2, r3
 553              	.LVL68:
 554              	.LBB3:
 159:u8g2/csrc/u8g2_box.c ****       
 555              		.loc 1 159 5 is_stmt 1 view .LVU122
 161:u8g2/csrc/u8g2_box.c ****     xr += w;
 556              		.loc 1 161 5 view .LVU123
 162:u8g2/csrc/u8g2_box.c ****     xr -= r;
 557              		.loc 1 162 5 view .LVU124
 163:u8g2/csrc/u8g2_box.c ****     xr -= 1;
 558              		.loc 1 163 5 view .LVU125
 163:u8g2/csrc/u8g2_box.c ****     xr -= 1;
 559              		.loc 1 163 8 is_stmt 0 view .LVU126
 560 003c AD1B     		subs	r5, r5, r6
 561              	.LVL69:
 163:u8g2/csrc/u8g2_box.c ****     xr -= 1;
 562              		.loc 1 163 8 view .LVU127
 563 003e EDB2     		uxtb	r5, r5
 564              	.LVL70:
 164:u8g2/csrc/u8g2_box.c ****     
 565              		.loc 1 164 5 is_stmt 1 view .LVU128
 164:u8g2/csrc/u8g2_box.c ****     
 566              		.loc 1 164 8 is_stmt 0 view .LVU129
 567 0040 013D     		subs	r5, r5, #1
 568              	.LVL71:
ARM GAS  C:\Users\behun\AppData\Local\Temp\ccirKyb6.s 			page 16


 164:u8g2/csrc/u8g2_box.c ****     
 569              		.loc 1 164 8 view .LVU130
 570 0042 EDB2     		uxtb	r5, r5
 571              	.LVL72:
 166:u8g2/csrc/u8g2_box.c ****     yl += h;
 572              		.loc 1 166 5 is_stmt 1 view .LVU131
 167:u8g2/csrc/u8g2_box.c ****     yl -= r; 
 573              		.loc 1 167 5 view .LVU132
 168:u8g2/csrc/u8g2_box.c ****     yl -= 1;
 574              		.loc 1 168 5 view .LVU133
 168:u8g2/csrc/u8g2_box.c ****     yl -= 1;
 575              		.loc 1 168 8 is_stmt 0 view .LVU134
 576 0044 A41B     		subs	r4, r4, r6
 577              	.LVL73:
 168:u8g2/csrc/u8g2_box.c ****     yl -= 1;
 578              		.loc 1 168 8 view .LVU135
 579 0046 E4B2     		uxtb	r4, r4
 580              	.LVL74:
 169:u8g2/csrc/u8g2_box.c **** 
 581              		.loc 1 169 5 is_stmt 1 view .LVU136
 169:u8g2/csrc/u8g2_box.c **** 
 582              		.loc 1 169 8 is_stmt 0 view .LVU137
 583 0048 013C     		subs	r4, r4, #1
 584              	.LVL75:
 169:u8g2/csrc/u8g2_box.c **** 
 585              		.loc 1 169 8 view .LVU138
 586 004a E4B2     		uxtb	r4, r4
 587              	.LVL76:
 171:u8g2/csrc/u8g2_box.c ****     u8g2_DrawCircle(u8g2, xr, yu, r, U8G2_DRAW_UPPER_RIGHT);
 588              		.loc 1 171 5 is_stmt 1 view .LVU139
 589 004c 0223     		movs	r3, #2
 590 004e 0093     		str	r3, [sp]
 591 0050 3346     		mov	r3, r6
 592 0052 0392     		str	r2, [sp, #12]
 593 0054 3946     		mov	r1, r7
 594 0056 0298     		ldr	r0, [sp, #8]
 595 0058 FFF7FEFF 		bl	u8g2_DrawCircle
 596              	.LVL77:
 172:u8g2/csrc/u8g2_box.c ****     u8g2_DrawCircle(u8g2, xl, yl, r, U8G2_DRAW_LOWER_LEFT);
 597              		.loc 1 172 5 view .LVU140
 598 005c 0123     		movs	r3, #1
 599 005e 0093     		str	r3, [sp]
 600 0060 3346     		mov	r3, r6
 601 0062 039A     		ldr	r2, [sp, #12]
 602 0064 2946     		mov	r1, r5
 603 0066 0298     		ldr	r0, [sp, #8]
 604 0068 FFF7FEFF 		bl	u8g2_DrawCircle
 605              	.LVL78:
 173:u8g2/csrc/u8g2_box.c ****     u8g2_DrawCircle(u8g2, xr, yl, r, U8G2_DRAW_LOWER_RIGHT);
 606              		.loc 1 173 5 view .LVU141
 607 006c 0423     		movs	r3, #4
 608 006e 0093     		str	r3, [sp]
 609 0070 3346     		mov	r3, r6
 610 0072 2246     		mov	r2, r4
 611 0074 3946     		mov	r1, r7
 612 0076 0298     		ldr	r0, [sp, #8]
 613 0078 FFF7FEFF 		bl	u8g2_DrawCircle
ARM GAS  C:\Users\behun\AppData\Local\Temp\ccirKyb6.s 			page 17


 614              	.LVL79:
 174:u8g2/csrc/u8g2_box.c ****   }
 615              		.loc 1 174 5 view .LVU142
 616 007c 0823     		movs	r3, #8
 617 007e 0093     		str	r3, [sp]
 618 0080 3346     		mov	r3, r6
 619 0082 2246     		mov	r2, r4
 620 0084 2946     		mov	r1, r5
 621 0086 0298     		ldr	r0, [sp, #8]
 622 0088 FFF7FEFF 		bl	u8g2_DrawCircle
 623              	.LVL80:
 624              	.LBE3:
 625              	.LBB4:
 178:u8g2/csrc/u8g2_box.c **** 
 626              		.loc 1 178 5 view .LVU143
 180:u8g2/csrc/u8g2_box.c ****     ww -= r;
 627              		.loc 1 180 5 view .LVU144
 181:u8g2/csrc/u8g2_box.c ****     ww -= r;
 628              		.loc 1 181 5 view .LVU145
 181:u8g2/csrc/u8g2_box.c ****     ww -= r;
 629              		.loc 1 181 8 is_stmt 0 view .LVU146
 630 008c A8EB0605 		sub	r5, r8, r6
 631              	.LVL81:
 181:u8g2/csrc/u8g2_box.c ****     ww -= r;
 632              		.loc 1 181 8 view .LVU147
 633 0090 EDB2     		uxtb	r5, r5
 634              	.LVL82:
 182:u8g2/csrc/u8g2_box.c ****     hh = h;
 635              		.loc 1 182 5 is_stmt 1 view .LVU148
 182:u8g2/csrc/u8g2_box.c ****     hh = h;
 636              		.loc 1 182 8 is_stmt 0 view .LVU149
 637 0092 AD1B     		subs	r5, r5, r6
 638              	.LVL83:
 182:u8g2/csrc/u8g2_box.c ****     hh = h;
 639              		.loc 1 182 8 view .LVU150
 640 0094 EDB2     		uxtb	r5, r5
 641              	.LVL84:
 183:u8g2/csrc/u8g2_box.c ****     hh -= r;
 642              		.loc 1 183 5 is_stmt 1 view .LVU151
 184:u8g2/csrc/u8g2_box.c ****     hh -= r;
 643              		.loc 1 184 5 view .LVU152
 184:u8g2/csrc/u8g2_box.c ****     hh -= r;
 644              		.loc 1 184 8 is_stmt 0 view .LVU153
 645 0096 A9EB0603 		sub	r3, r9, r6
 646 009a DBB2     		uxtb	r3, r3
 647              	.LVL85:
 185:u8g2/csrc/u8g2_box.c ****     
 648              		.loc 1 185 5 is_stmt 1 view .LVU154
 185:u8g2/csrc/u8g2_box.c ****     
 649              		.loc 1 185 8 is_stmt 0 view .LVU155
 650 009c 9E1B     		subs	r6, r3, r6
 651              	.LVL86:
 185:u8g2/csrc/u8g2_box.c ****     
 652              		.loc 1 185 8 view .LVU156
 653 009e F6B2     		uxtb	r6, r6
 654              	.LVL87:
 187:u8g2/csrc/u8g2_box.c ****     yu++;
ARM GAS  C:\Users\behun\AppData\Local\Temp\ccirKyb6.s 			page 18


 655              		.loc 1 187 5 is_stmt 1 view .LVU157
 187:u8g2/csrc/u8g2_box.c ****     yu++;
 656              		.loc 1 187 7 is_stmt 0 view .LVU158
 657 00a0 0137     		adds	r7, r7, #1
 658              	.LVL88:
 187:u8g2/csrc/u8g2_box.c ****     yu++;
 659              		.loc 1 187 7 view .LVU159
 660 00a2 FFB2     		uxtb	r7, r7
 661              	.LVL89:
 188:u8g2/csrc/u8g2_box.c ****     
 662              		.loc 1 188 5 is_stmt 1 view .LVU160
 188:u8g2/csrc/u8g2_box.c ****     
 663              		.loc 1 188 7 is_stmt 0 view .LVU161
 664 00a4 039A     		ldr	r2, [sp, #12]
 665 00a6 541C     		adds	r4, r2, #1
 666              	.LVL90:
 188:u8g2/csrc/u8g2_box.c ****     
 667              		.loc 1 188 7 view .LVU162
 668 00a8 E4B2     		uxtb	r4, r4
 669              	.LVL91:
 190:u8g2/csrc/u8g2_box.c ****     {
 670              		.loc 1 190 5 is_stmt 1 view .LVU163
 190:u8g2/csrc/u8g2_box.c ****     {
 671              		.loc 1 190 8 is_stmt 0 view .LVU164
 672 00aa 022D     		cmp	r5, #2
 673 00ac 17D8     		bhi	.L21
 674              	.LVL92:
 675              	.L18:
 198:u8g2/csrc/u8g2_box.c ****     {
 676              		.loc 1 198 5 is_stmt 1 view .LVU165
 198:u8g2/csrc/u8g2_box.c ****     {
 677              		.loc 1 198 8 is_stmt 0 view .LVU166
 678 00ae 022E     		cmp	r6, #2
 679 00b0 BBD9     		bls	.L16
 200:u8g2/csrc/u8g2_box.c ****       w--;
 680              		.loc 1 200 7 is_stmt 1 view .LVU167
 200:u8g2/csrc/u8g2_box.c ****       w--;
 681              		.loc 1 200 10 is_stmt 0 view .LVU168
 682 00b2 023E     		subs	r6, r6, #2
 683              	.LVL93:
 200:u8g2/csrc/u8g2_box.c ****       w--;
 684              		.loc 1 200 10 view .LVU169
 685 00b4 F6B2     		uxtb	r6, r6
 686              	.LVL94:
 201:u8g2/csrc/u8g2_box.c ****       u8g2_DrawVLine(u8g2, x, yu, hh);
 687              		.loc 1 201 7 is_stmt 1 view .LVU170
 201:u8g2/csrc/u8g2_box.c ****       u8g2_DrawVLine(u8g2, x, yu, hh);
 688              		.loc 1 201 8 is_stmt 0 view .LVU171
 689 00b6 08F1FF38 		add	r8, r8, #-1
 690              	.LVL95:
 201:u8g2/csrc/u8g2_box.c ****       u8g2_DrawVLine(u8g2, x, yu, hh);
 691              		.loc 1 201 8 view .LVU172
 692 00ba 5FFA88F8 		uxtb	r8, r8
 693              	.LVL96:
 202:u8g2/csrc/u8g2_box.c ****       u8g2_DrawVLine(u8g2, x+w, yu, hh);
 694              		.loc 1 202 7 is_stmt 1 view .LVU173
 695 00be 3346     		mov	r3, r6
ARM GAS  C:\Users\behun\AppData\Local\Temp\ccirKyb6.s 			page 19


 696 00c0 2246     		mov	r2, r4
 697 00c2 5146     		mov	r1, r10
 698 00c4 029D     		ldr	r5, [sp, #8]
 699              	.LVL97:
 202:u8g2/csrc/u8g2_box.c ****       u8g2_DrawVLine(u8g2, x+w, yu, hh);
 700              		.loc 1 202 7 is_stmt 0 view .LVU174
 701 00c6 2846     		mov	r0, r5
 702 00c8 FFF7FEFF 		bl	u8g2_DrawVLine
 703              	.LVL98:
 203:u8g2/csrc/u8g2_box.c ****     }
 704              		.loc 1 203 7 is_stmt 1 view .LVU175
 705 00cc 0AEB0801 		add	r1, r10, r8
 706 00d0 3346     		mov	r3, r6
 707 00d2 2246     		mov	r2, r4
 708 00d4 C9B2     		uxtb	r1, r1
 709 00d6 2846     		mov	r0, r5
 710 00d8 FFF7FEFF 		bl	u8g2_DrawVLine
 711              	.LVL99:
 712 00dc A5E7     		b	.L16
 713              	.LVL100:
 714              	.L21:
 192:u8g2/csrc/u8g2_box.c ****       h--;
 715              		.loc 1 192 7 view .LVU176
 192:u8g2/csrc/u8g2_box.c ****       h--;
 716              		.loc 1 192 10 is_stmt 0 view .LVU177
 717 00de 023D     		subs	r5, r5, #2
 718              	.LVL101:
 192:u8g2/csrc/u8g2_box.c ****       h--;
 719              		.loc 1 192 10 view .LVU178
 720 00e0 EDB2     		uxtb	r5, r5
 721              	.LVL102:
 193:u8g2/csrc/u8g2_box.c ****       u8g2_DrawHLine(u8g2, xl, y, ww);
 722              		.loc 1 193 7 is_stmt 1 view .LVU179
 193:u8g2/csrc/u8g2_box.c ****       u8g2_DrawHLine(u8g2, xl, y, ww);
 723              		.loc 1 193 8 is_stmt 0 view .LVU180
 724 00e2 09F1FF39 		add	r9, r9, #-1
 725              	.LVL103:
 193:u8g2/csrc/u8g2_box.c ****       u8g2_DrawHLine(u8g2, xl, y, ww);
 726              		.loc 1 193 8 view .LVU181
 727 00e6 5FFA89F9 		uxtb	r9, r9
 728              	.LVL104:
 194:u8g2/csrc/u8g2_box.c ****       u8g2_DrawHLine(u8g2, xl, y+h, ww);
 729              		.loc 1 194 7 is_stmt 1 view .LVU182
 730 00ea 2B46     		mov	r3, r5
 731 00ec 5A46     		mov	r2, fp
 732 00ee 3946     		mov	r1, r7
 733 00f0 0298     		ldr	r0, [sp, #8]
 734 00f2 FFF7FEFF 		bl	u8g2_DrawHLine
 735              	.LVL105:
 195:u8g2/csrc/u8g2_box.c ****     }
 736              		.loc 1 195 7 view .LVU183
 737 00f6 0BEB0902 		add	r2, fp, r9
 738 00fa 2B46     		mov	r3, r5
 739 00fc D2B2     		uxtb	r2, r2
 740 00fe 3946     		mov	r1, r7
 741 0100 0298     		ldr	r0, [sp, #8]
 742 0102 FFF7FEFF 		bl	u8g2_DrawHLine
ARM GAS  C:\Users\behun\AppData\Local\Temp\ccirKyb6.s 			page 20


 743              	.LVL106:
 744 0106 D2E7     		b	.L18
 745              	.LBE4:
 746              		.cfi_endproc
 747              	.LFE3:
 749              		.text
 750              	.Letext0:
 751              		.file 2 "c:\\program files (x86)\\gnu tools arm embedded\\8 2019-q3-update\\arm-none-eabi\\include
 752              		.file 3 "c:\\program files (x86)\\gnu tools arm embedded\\8 2019-q3-update\\arm-none-eabi\\include
 753              		.file 4 "u8g2/csrc/u8x8.h"
 754              		.file 5 "u8g2/csrc/u8g2.h"
ARM GAS  C:\Users\behun\AppData\Local\Temp\ccirKyb6.s 			page 21

