ARM GAS  /var/folders/rk/zpr83dd14lx588t7kb0yv2b40000gn/T//ccOjqNH9.s 			page 1


   1              		.cpu cortex-m3
   2              		.eabi_attribute 20, 1
   3              		.eabi_attribute 21, 1
   4              		.eabi_attribute 23, 3
   5              		.eabi_attribute 24, 1
   6              		.eabi_attribute 25, 1
   7              		.eabi_attribute 26, 1
   8              		.eabi_attribute 30, 1
   9              		.eabi_attribute 34, 1
  10              		.eabi_attribute 18, 4
  11              		.file	"u8g2_circle.c"
  12              		.text
  13              	.Ltext0:
  14              		.cfi_sections	.debug_frame
  15              		.section	.text.u8g2_draw_circle_section,"ax",%progbits
  16              		.align	1
  17              		.syntax unified
  18              		.thumb
  19              		.thumb_func
  20              		.fpu softvfp
  22              	u8g2_draw_circle_section:
  23              	.LFB0:
  24              		.file 1 "u8g2/csrc/u8g2_circle.c"
   1:u8g2/csrc/u8g2_circle.c **** /*
   2:u8g2/csrc/u8g2_circle.c **** 
   3:u8g2/csrc/u8g2_circle.c ****   u8g2_box.c
   4:u8g2/csrc/u8g2_circle.c **** 
   5:u8g2/csrc/u8g2_circle.c ****   Universal 8bit Graphics Library (https://github.com/olikraus/u8g2/)
   6:u8g2/csrc/u8g2_circle.c **** 
   7:u8g2/csrc/u8g2_circle.c ****   Copyright (c) 2016, olikraus@gmail.com
   8:u8g2/csrc/u8g2_circle.c ****   All rights reserved.
   9:u8g2/csrc/u8g2_circle.c **** 
  10:u8g2/csrc/u8g2_circle.c ****   Redistribution and use in source and binary forms, with or without modification, 
  11:u8g2/csrc/u8g2_circle.c ****   are permitted provided that the following conditions are met:
  12:u8g2/csrc/u8g2_circle.c **** 
  13:u8g2/csrc/u8g2_circle.c ****   * Redistributions of source code must retain the above copyright notice, this list 
  14:u8g2/csrc/u8g2_circle.c ****     of conditions and the following disclaimer.
  15:u8g2/csrc/u8g2_circle.c ****     
  16:u8g2/csrc/u8g2_circle.c ****   * Redistributions in binary form must reproduce the above copyright notice, this 
  17:u8g2/csrc/u8g2_circle.c ****     list of conditions and the following disclaimer in the documentation and/or other 
  18:u8g2/csrc/u8g2_circle.c ****     materials provided with the distribution.
  19:u8g2/csrc/u8g2_circle.c **** 
  20:u8g2/csrc/u8g2_circle.c ****   THIS SOFTWARE IS PROVIDED BY THE COPYRIGHT HOLDERS AND 
  21:u8g2/csrc/u8g2_circle.c ****   CONTRIBUTORS "AS IS" AND ANY EXPRESS OR IMPLIED WARRANTIES, 
  22:u8g2/csrc/u8g2_circle.c ****   INCLUDING, BUT NOT LIMITED TO, THE IMPLIED WARRANTIES OF 
  23:u8g2/csrc/u8g2_circle.c ****   MERCHANTABILITY AND FITNESS FOR A PARTICULAR PURPOSE ARE 
  24:u8g2/csrc/u8g2_circle.c ****   DISCLAIMED. IN NO EVENT SHALL THE COPYRIGHT HOLDER OR 
  25:u8g2/csrc/u8g2_circle.c ****   CONTRIBUTORS BE LIABLE FOR ANY DIRECT, INDIRECT, INCIDENTAL, 
  26:u8g2/csrc/u8g2_circle.c ****   SPECIAL, EXEMPLARY, OR CONSEQUENTIAL DAMAGES (INCLUDING, BUT 
  27:u8g2/csrc/u8g2_circle.c ****   NOT LIMITED TO, PROCUREMENT OF SUBSTITUTE GOODS OR SERVICES; 
  28:u8g2/csrc/u8g2_circle.c ****   LOSS OF USE, DATA, OR PROFITS; OR BUSINESS INTERRUPTION) HOWEVER 
  29:u8g2/csrc/u8g2_circle.c ****   CAUSED AND ON ANY THEORY OF LIABILITY, WHETHER IN CONTRACT, 
  30:u8g2/csrc/u8g2_circle.c ****   STRICT LIABILITY, OR TORT (INCLUDING NEGLIGENCE OR OTHERWISE) 
  31:u8g2/csrc/u8g2_circle.c ****   ARISING IN ANY WAY OUT OF THE USE OF THIS SOFTWARE, EVEN IF 
  32:u8g2/csrc/u8g2_circle.c ****   ADVISED OF THE POSSIBILITY OF SUCH DAMAGE.  
  33:u8g2/csrc/u8g2_circle.c **** 
  34:u8g2/csrc/u8g2_circle.c **** */
ARM GAS  /var/folders/rk/zpr83dd14lx588t7kb0yv2b40000gn/T//ccOjqNH9.s 			page 2


  35:u8g2/csrc/u8g2_circle.c **** 
  36:u8g2/csrc/u8g2_circle.c **** #include "u8g2.h"
  37:u8g2/csrc/u8g2_circle.c **** 
  38:u8g2/csrc/u8g2_circle.c **** /*==============================================*/
  39:u8g2/csrc/u8g2_circle.c **** /* Circle */
  40:u8g2/csrc/u8g2_circle.c **** 
  41:u8g2/csrc/u8g2_circle.c **** static void u8g2_draw_circle_section(u8g2_t *u8g2, u8g2_uint_t x, u8g2_uint_t y, u8g2_uint_t x0, u8
  42:u8g2/csrc/u8g2_circle.c **** 
  43:u8g2/csrc/u8g2_circle.c **** static void u8g2_draw_circle_section(u8g2_t *u8g2, u8g2_uint_t x, u8g2_uint_t y, u8g2_uint_t x0, u8
  44:u8g2/csrc/u8g2_circle.c **** {
  25              		.loc 1 44 0
  26              		.cfi_startproc
  27              		@ args = 8, pretend = 0, frame = 0
  28              		@ frame_needed = 0, uses_anonymous_args = 0
  29              	.LVL0:
  30 0000 2DE9F843 		push	{r3, r4, r5, r6, r7, r8, r9, lr}
  31              	.LCFI0:
  32              		.cfi_def_cfa_offset 32
  33              		.cfi_offset 3, -32
  34              		.cfi_offset 4, -28
  35              		.cfi_offset 5, -24
  36              		.cfi_offset 6, -20
  37              		.cfi_offset 7, -16
  38              		.cfi_offset 8, -12
  39              		.cfi_offset 9, -8
  40              		.cfi_offset 14, -4
  41 0004 0746     		mov	r7, r0
  42 0006 0E46     		mov	r6, r1
  43 0008 9046     		mov	r8, r2
  44 000a 1D46     		mov	r5, r3
  45 000c 9DF82090 		ldrb	r9, [sp, #32]	@ zero_extendqisi2
  46 0010 9DF82440 		ldrb	r4, [sp, #36]	@ zero_extendqisi2
  45:u8g2/csrc/u8g2_circle.c ****     /* upper right */
  46:u8g2/csrc/u8g2_circle.c ****     if ( option & U8G2_DRAW_UPPER_RIGHT )
  47              		.loc 1 46 0
  48 0014 14F0010F 		tst	r4, #1
  49 0018 0AD1     		bne	.L7
  50              	.LVL1:
  51              	.L2:
  47:u8g2/csrc/u8g2_circle.c ****     {
  48:u8g2/csrc/u8g2_circle.c ****       u8g2_DrawPixel(u8g2, x0 + x, y0 - y);
  49:u8g2/csrc/u8g2_circle.c ****       u8g2_DrawPixel(u8g2, x0 + y, y0 - x);
  50:u8g2/csrc/u8g2_circle.c ****     }
  51:u8g2/csrc/u8g2_circle.c ****     
  52:u8g2/csrc/u8g2_circle.c ****     /* upper left */
  53:u8g2/csrc/u8g2_circle.c ****     if ( option & U8G2_DRAW_UPPER_LEFT )
  52              		.loc 1 53 0
  53 001a 14F0020F 		tst	r4, #2
  54 001e 18D1     		bne	.L8
  55              	.L3:
  54:u8g2/csrc/u8g2_circle.c ****     {
  55:u8g2/csrc/u8g2_circle.c ****       u8g2_DrawPixel(u8g2, x0 - x, y0 - y);
  56:u8g2/csrc/u8g2_circle.c ****       u8g2_DrawPixel(u8g2, x0 - y, y0 - x);
  57:u8g2/csrc/u8g2_circle.c ****     }
  58:u8g2/csrc/u8g2_circle.c ****     
  59:u8g2/csrc/u8g2_circle.c ****     /* lower right */
  60:u8g2/csrc/u8g2_circle.c ****     if ( option & U8G2_DRAW_LOWER_RIGHT )
ARM GAS  /var/folders/rk/zpr83dd14lx588t7kb0yv2b40000gn/T//ccOjqNH9.s 			page 3


  56              		.loc 1 60 0
  57 0020 14F0080F 		tst	r4, #8
  58 0024 27D1     		bne	.L9
  59              	.L4:
  61:u8g2/csrc/u8g2_circle.c ****     {
  62:u8g2/csrc/u8g2_circle.c ****       u8g2_DrawPixel(u8g2, x0 + x, y0 + y);
  63:u8g2/csrc/u8g2_circle.c ****       u8g2_DrawPixel(u8g2, x0 + y, y0 + x);
  64:u8g2/csrc/u8g2_circle.c ****     }
  65:u8g2/csrc/u8g2_circle.c ****     
  66:u8g2/csrc/u8g2_circle.c ****     /* lower left */
  67:u8g2/csrc/u8g2_circle.c ****     if ( option & U8G2_DRAW_LOWER_LEFT )
  60              		.loc 1 67 0
  61 0026 14F0040F 		tst	r4, #4
  62 002a 36D1     		bne	.L10
  63              	.L1:
  68:u8g2/csrc/u8g2_circle.c ****     {
  69:u8g2/csrc/u8g2_circle.c ****       u8g2_DrawPixel(u8g2, x0 - x, y0 + y);
  70:u8g2/csrc/u8g2_circle.c ****       u8g2_DrawPixel(u8g2, x0 - y, y0 + x);
  71:u8g2/csrc/u8g2_circle.c ****     }
  72:u8g2/csrc/u8g2_circle.c **** }
  64              		.loc 1 72 0
  65 002c BDE8F883 		pop	{r3, r4, r5, r6, r7, r8, r9, pc}
  66              	.LVL2:
  67              	.L7:
  48:u8g2/csrc/u8g2_circle.c ****       u8g2_DrawPixel(u8g2, x0 + y, y0 - x);
  68              		.loc 1 48 0
  69 0030 A9EB0202 		sub	r2, r9, r2
  70              	.LVL3:
  71 0034 5918     		adds	r1, r3, r1
  72              	.LVL4:
  73 0036 D2B2     		uxtb	r2, r2
  74 0038 C9B2     		uxtb	r1, r1
  75 003a FFF7FEFF 		bl	u8g2_DrawPixel
  76              	.LVL5:
  49:u8g2/csrc/u8g2_circle.c ****     }
  77              		.loc 1 49 0
  78 003e A9EB0602 		sub	r2, r9, r6
  79 0042 05EB0801 		add	r1, r5, r8
  80 0046 D2B2     		uxtb	r2, r2
  81 0048 C9B2     		uxtb	r1, r1
  82 004a 3846     		mov	r0, r7
  83 004c FFF7FEFF 		bl	u8g2_DrawPixel
  84              	.LVL6:
  85 0050 E3E7     		b	.L2
  86              	.L8:
  55:u8g2/csrc/u8g2_circle.c ****       u8g2_DrawPixel(u8g2, x0 - y, y0 - x);
  87              		.loc 1 55 0
  88 0052 A9EB0802 		sub	r2, r9, r8
  89 0056 A91B     		subs	r1, r5, r6
  90 0058 D2B2     		uxtb	r2, r2
  91 005a C9B2     		uxtb	r1, r1
  92 005c 3846     		mov	r0, r7
  93 005e FFF7FEFF 		bl	u8g2_DrawPixel
  94              	.LVL7:
  56:u8g2/csrc/u8g2_circle.c ****     }
  95              		.loc 1 56 0
  96 0062 A9EB0602 		sub	r2, r9, r6
ARM GAS  /var/folders/rk/zpr83dd14lx588t7kb0yv2b40000gn/T//ccOjqNH9.s 			page 4


  97 0066 A5EB0801 		sub	r1, r5, r8
  98 006a D2B2     		uxtb	r2, r2
  99 006c C9B2     		uxtb	r1, r1
 100 006e 3846     		mov	r0, r7
 101 0070 FFF7FEFF 		bl	u8g2_DrawPixel
 102              	.LVL8:
 103 0074 D4E7     		b	.L3
 104              	.L9:
  62:u8g2/csrc/u8g2_circle.c ****       u8g2_DrawPixel(u8g2, x0 + y, y0 + x);
 105              		.loc 1 62 0
 106 0076 09EB0802 		add	r2, r9, r8
 107 007a A919     		adds	r1, r5, r6
 108 007c D2B2     		uxtb	r2, r2
 109 007e C9B2     		uxtb	r1, r1
 110 0080 3846     		mov	r0, r7
 111 0082 FFF7FEFF 		bl	u8g2_DrawPixel
 112              	.LVL9:
  63:u8g2/csrc/u8g2_circle.c ****     }
 113              		.loc 1 63 0
 114 0086 06EB0902 		add	r2, r6, r9
 115 008a 05EB0801 		add	r1, r5, r8
 116 008e D2B2     		uxtb	r2, r2
 117 0090 C9B2     		uxtb	r1, r1
 118 0092 3846     		mov	r0, r7
 119 0094 FFF7FEFF 		bl	u8g2_DrawPixel
 120              	.LVL10:
 121 0098 C5E7     		b	.L4
 122              	.L10:
  69:u8g2/csrc/u8g2_circle.c ****       u8g2_DrawPixel(u8g2, x0 - y, y0 + x);
 123              		.loc 1 69 0
 124 009a 09EB0802 		add	r2, r9, r8
 125 009e A91B     		subs	r1, r5, r6
 126 00a0 D2B2     		uxtb	r2, r2
 127 00a2 C9B2     		uxtb	r1, r1
 128 00a4 3846     		mov	r0, r7
 129 00a6 FFF7FEFF 		bl	u8g2_DrawPixel
 130              	.LVL11:
  70:u8g2/csrc/u8g2_circle.c ****     }
 131              		.loc 1 70 0
 132 00aa 06EB0902 		add	r2, r6, r9
 133 00ae A5EB0801 		sub	r1, r5, r8
 134 00b2 D2B2     		uxtb	r2, r2
 135 00b4 C9B2     		uxtb	r1, r1
 136 00b6 3846     		mov	r0, r7
 137 00b8 FFF7FEFF 		bl	u8g2_DrawPixel
 138              	.LVL12:
 139              		.loc 1 72 0
 140 00bc B6E7     		b	.L1
 141              		.cfi_endproc
 142              	.LFE0:
 144              		.section	.text.u8g2_draw_circle,"ax",%progbits
 145              		.align	1
 146              		.syntax unified
 147              		.thumb
 148              		.thumb_func
 149              		.fpu softvfp
 151              	u8g2_draw_circle:
ARM GAS  /var/folders/rk/zpr83dd14lx588t7kb0yv2b40000gn/T//ccOjqNH9.s 			page 5


 152              	.LFB1:
  73:u8g2/csrc/u8g2_circle.c **** 
  74:u8g2/csrc/u8g2_circle.c **** static void u8g2_draw_circle(u8g2_t *u8g2, u8g2_uint_t x0, u8g2_uint_t y0, u8g2_uint_t rad, uint8_t
  75:u8g2/csrc/u8g2_circle.c **** {
 153              		.loc 1 75 0
 154              		.cfi_startproc
 155              		@ args = 4, pretend = 0, frame = 8
 156              		@ frame_needed = 0, uses_anonymous_args = 0
 157              	.LVL13:
 158 0000 2DE9F04F 		push	{r4, r5, r6, r7, r8, r9, r10, fp, lr}
 159              	.LCFI1:
 160              		.cfi_def_cfa_offset 36
 161              		.cfi_offset 4, -36
 162              		.cfi_offset 5, -32
 163              		.cfi_offset 6, -28
 164              		.cfi_offset 7, -24
 165              		.cfi_offset 8, -20
 166              		.cfi_offset 9, -16
 167              		.cfi_offset 10, -12
 168              		.cfi_offset 11, -8
 169              		.cfi_offset 14, -4
 170 0004 85B0     		sub	sp, sp, #20
 171              	.LCFI2:
 172              		.cfi_def_cfa_offset 56
 173 0006 0390     		str	r0, [sp, #12]
 174 0008 8946     		mov	r9, r1
 175 000a 9246     		mov	r10, r2
 176 000c 1F46     		mov	r7, r3
 177 000e 9DF838B0 		ldrb	fp, [sp, #56]	@ zero_extendqisi2
 178              	.LVL14:
  76:u8g2/csrc/u8g2_circle.c ****     u8g2_int_t f;
  77:u8g2/csrc/u8g2_circle.c ****     u8g2_int_t ddF_x;
  78:u8g2/csrc/u8g2_circle.c ****     u8g2_int_t ddF_y;
  79:u8g2/csrc/u8g2_circle.c ****     u8g2_uint_t x;
  80:u8g2/csrc/u8g2_circle.c ****     u8g2_uint_t y;
  81:u8g2/csrc/u8g2_circle.c **** 
  82:u8g2/csrc/u8g2_circle.c ****     f = 1;
  83:u8g2/csrc/u8g2_circle.c ****     f -= rad;
 179              		.loc 1 83 0
 180 0012 C3F10108 		rsb	r8, r3, #1
 181 0016 4FFA88F8 		sxtb	r8, r8
 182              	.LVL15:
  84:u8g2/csrc/u8g2_circle.c ****     ddF_x = 1;
  85:u8g2/csrc/u8g2_circle.c ****     ddF_y = 0;
  86:u8g2/csrc/u8g2_circle.c ****     ddF_y -= rad;
  87:u8g2/csrc/u8g2_circle.c ****     ddF_y *= 2;
 183              		.loc 1 87 0
 184 001a C3EBC313 		rsb	r3, r3, r3, lsl #7
 185              	.LVL16:
 186 001e 5D00     		lsls	r5, r3, #1
 187 0020 6DB2     		sxtb	r5, r5
 188              	.LVL17:
  88:u8g2/csrc/u8g2_circle.c ****     x = 0;
  89:u8g2/csrc/u8g2_circle.c ****     y = rad;
  90:u8g2/csrc/u8g2_circle.c **** 
  91:u8g2/csrc/u8g2_circle.c ****     u8g2_draw_circle_section(u8g2, x, y, x0, y0, option);
 189              		.loc 1 91 0
ARM GAS  /var/folders/rk/zpr83dd14lx588t7kb0yv2b40000gn/T//ccOjqNH9.s 			page 6


 190 0022 CDF804B0 		str	fp, [sp, #4]
 191 0026 0092     		str	r2, [sp]
 192 0028 0B46     		mov	r3, r1
 193 002a 3A46     		mov	r2, r7
 194              	.LVL18:
 195 002c 0021     		movs	r1, #0
 196              	.LVL19:
 197 002e FFF7FEFF 		bl	u8g2_draw_circle_section
 198              	.LVL20:
  88:u8g2/csrc/u8g2_circle.c ****     x = 0;
 199              		.loc 1 88 0
 200 0032 0026     		movs	r6, #0
  84:u8g2/csrc/u8g2_circle.c ****     ddF_x = 1;
 201              		.loc 1 84 0
 202 0034 0124     		movs	r4, #1
  92:u8g2/csrc/u8g2_circle.c ****     
  93:u8g2/csrc/u8g2_circle.c ****     while ( x < y )
 203              		.loc 1 93 0
 204 0036 11E0     		b	.L12
 205              	.LVL21:
 206              	.L13:
  94:u8g2/csrc/u8g2_circle.c ****     {
  95:u8g2/csrc/u8g2_circle.c ****       if (f >= 0) 
  96:u8g2/csrc/u8g2_circle.c ****       {
  97:u8g2/csrc/u8g2_circle.c ****         y--;
  98:u8g2/csrc/u8g2_circle.c ****         ddF_y += 2;
  99:u8g2/csrc/u8g2_circle.c ****         f += ddF_y;
 100:u8g2/csrc/u8g2_circle.c ****       }
 101:u8g2/csrc/u8g2_circle.c ****       x++;
 207              		.loc 1 101 0
 208 0038 0136     		adds	r6, r6, #1
 209              	.LVL22:
 210 003a F6B2     		uxtb	r6, r6
 211              	.LVL23:
 102:u8g2/csrc/u8g2_circle.c ****       ddF_x += 2;
 212              		.loc 1 102 0
 213 003c 0234     		adds	r4, r4, #2
 214              	.LVL24:
 215 003e E3B2     		uxtb	r3, r4
 216 0040 5CB2     		sxtb	r4, r3
 217              	.LVL25:
 103:u8g2/csrc/u8g2_circle.c ****       f += ddF_x;
 218              		.loc 1 103 0
 219 0042 9844     		add	r8, r8, r3
 220              	.LVL26:
 221 0044 4FFA88F8 		sxtb	r8, r8
 222              	.LVL27:
 104:u8g2/csrc/u8g2_circle.c **** 
 105:u8g2/csrc/u8g2_circle.c ****       u8g2_draw_circle_section(u8g2, x, y, x0, y0, option);    
 223              		.loc 1 105 0
 224 0048 CDF804B0 		str	fp, [sp, #4]
 225 004c CDF800A0 		str	r10, [sp]
 226 0050 4B46     		mov	r3, r9
 227 0052 3A46     		mov	r2, r7
 228 0054 3146     		mov	r1, r6
 229 0056 0398     		ldr	r0, [sp, #12]
 230 0058 FFF7FEFF 		bl	u8g2_draw_circle_section
ARM GAS  /var/folders/rk/zpr83dd14lx588t7kb0yv2b40000gn/T//ccOjqNH9.s 			page 7


 231              	.LVL28:
 232              	.L12:
  93:u8g2/csrc/u8g2_circle.c ****     {
 233              		.loc 1 93 0
 234 005c BE42     		cmp	r6, r7
 235 005e 0BD2     		bcs	.L16
  95:u8g2/csrc/u8g2_circle.c ****       {
 236              		.loc 1 95 0
 237 0060 B8F1000F 		cmp	r8, #0
 238 0064 E8DB     		blt	.L13
  97:u8g2/csrc/u8g2_circle.c ****         ddF_y += 2;
 239              		.loc 1 97 0
 240 0066 013F     		subs	r7, r7, #1
 241              	.LVL29:
 242 0068 FFB2     		uxtb	r7, r7
 243              	.LVL30:
  98:u8g2/csrc/u8g2_circle.c ****         f += ddF_y;
 244              		.loc 1 98 0
 245 006a 0235     		adds	r5, r5, #2
 246              	.LVL31:
 247 006c EBB2     		uxtb	r3, r5
 248 006e 5DB2     		sxtb	r5, r3
 249              	.LVL32:
  99:u8g2/csrc/u8g2_circle.c ****       }
 250              		.loc 1 99 0
 251 0070 9844     		add	r8, r8, r3
 252              	.LVL33:
 253 0072 4FFA88F8 		sxtb	r8, r8
 254              	.LVL34:
 255 0076 DFE7     		b	.L13
 256              	.L16:
 106:u8g2/csrc/u8g2_circle.c ****     }
 107:u8g2/csrc/u8g2_circle.c **** }
 257              		.loc 1 107 0
 258 0078 05B0     		add	sp, sp, #20
 259              	.LCFI3:
 260              		.cfi_def_cfa_offset 36
 261              		@ sp needed
 262 007a BDE8F08F 		pop	{r4, r5, r6, r7, r8, r9, r10, fp, pc}
 263              		.cfi_endproc
 264              	.LFE1:
 266              		.section	.text.u8g2_draw_ellipse_section,"ax",%progbits
 267              		.align	1
 268              		.syntax unified
 269              		.thumb
 270              		.thumb_func
 271              		.fpu softvfp
 273              	u8g2_draw_ellipse_section:
 274              	.LFB6:
 108:u8g2/csrc/u8g2_circle.c **** 
 109:u8g2/csrc/u8g2_circle.c **** void u8g2_DrawCircle(u8g2_t *u8g2, u8g2_uint_t x0, u8g2_uint_t y0, u8g2_uint_t rad, uint8_t option)
 110:u8g2/csrc/u8g2_circle.c **** {
 111:u8g2/csrc/u8g2_circle.c ****   /* check for bounding box */
 112:u8g2/csrc/u8g2_circle.c **** #ifdef U8G2_WITH_INTERSECTION
 113:u8g2/csrc/u8g2_circle.c ****   {
 114:u8g2/csrc/u8g2_circle.c ****     if ( u8g2_IsIntersection(u8g2, x0-rad, y0-rad, x0+rad+1, y0+rad+1) == 0 ) 
 115:u8g2/csrc/u8g2_circle.c ****       return;
ARM GAS  /var/folders/rk/zpr83dd14lx588t7kb0yv2b40000gn/T//ccOjqNH9.s 			page 8


 116:u8g2/csrc/u8g2_circle.c ****   }
 117:u8g2/csrc/u8g2_circle.c **** #endif /* U8G2_WITH_INTERSECTION */
 118:u8g2/csrc/u8g2_circle.c ****   
 119:u8g2/csrc/u8g2_circle.c ****   
 120:u8g2/csrc/u8g2_circle.c ****   /* draw circle */
 121:u8g2/csrc/u8g2_circle.c ****   u8g2_draw_circle(u8g2, x0, y0, rad, option);
 122:u8g2/csrc/u8g2_circle.c **** }
 123:u8g2/csrc/u8g2_circle.c **** 
 124:u8g2/csrc/u8g2_circle.c **** /*==============================================*/
 125:u8g2/csrc/u8g2_circle.c **** /* Disk */
 126:u8g2/csrc/u8g2_circle.c **** 
 127:u8g2/csrc/u8g2_circle.c **** static void u8g2_draw_disc_section(u8g2_t *u8g2, u8g2_uint_t x, u8g2_uint_t y, u8g2_uint_t x0, u8g2
 128:u8g2/csrc/u8g2_circle.c **** 
 129:u8g2/csrc/u8g2_circle.c **** static void u8g2_draw_disc_section(u8g2_t *u8g2, u8g2_uint_t x, u8g2_uint_t y, u8g2_uint_t x0, u8g2
 130:u8g2/csrc/u8g2_circle.c **** {
 131:u8g2/csrc/u8g2_circle.c ****     /* upper right */
 132:u8g2/csrc/u8g2_circle.c ****     if ( option & U8G2_DRAW_UPPER_RIGHT )
 133:u8g2/csrc/u8g2_circle.c ****     {
 134:u8g2/csrc/u8g2_circle.c ****       u8g2_DrawVLine(u8g2, x0+x, y0-y, y+1);
 135:u8g2/csrc/u8g2_circle.c ****       u8g2_DrawVLine(u8g2, x0+y, y0-x, x+1);
 136:u8g2/csrc/u8g2_circle.c ****     }
 137:u8g2/csrc/u8g2_circle.c ****     
 138:u8g2/csrc/u8g2_circle.c ****     /* upper left */
 139:u8g2/csrc/u8g2_circle.c ****     if ( option & U8G2_DRAW_UPPER_LEFT )
 140:u8g2/csrc/u8g2_circle.c ****     {
 141:u8g2/csrc/u8g2_circle.c ****       u8g2_DrawVLine(u8g2, x0-x, y0-y, y+1);
 142:u8g2/csrc/u8g2_circle.c ****       u8g2_DrawVLine(u8g2, x0-y, y0-x, x+1);
 143:u8g2/csrc/u8g2_circle.c ****     }
 144:u8g2/csrc/u8g2_circle.c ****     
 145:u8g2/csrc/u8g2_circle.c ****     /* lower right */
 146:u8g2/csrc/u8g2_circle.c ****     if ( option & U8G2_DRAW_LOWER_RIGHT )
 147:u8g2/csrc/u8g2_circle.c ****     {
 148:u8g2/csrc/u8g2_circle.c ****       u8g2_DrawVLine(u8g2, x0+x, y0, y+1);
 149:u8g2/csrc/u8g2_circle.c ****       u8g2_DrawVLine(u8g2, x0+y, y0, x+1);
 150:u8g2/csrc/u8g2_circle.c ****     }
 151:u8g2/csrc/u8g2_circle.c ****     
 152:u8g2/csrc/u8g2_circle.c ****     /* lower left */
 153:u8g2/csrc/u8g2_circle.c ****     if ( option & U8G2_DRAW_LOWER_LEFT )
 154:u8g2/csrc/u8g2_circle.c ****     {
 155:u8g2/csrc/u8g2_circle.c ****       u8g2_DrawVLine(u8g2, x0-x, y0, y+1);
 156:u8g2/csrc/u8g2_circle.c ****       u8g2_DrawVLine(u8g2, x0-y, y0, x+1);
 157:u8g2/csrc/u8g2_circle.c ****     }
 158:u8g2/csrc/u8g2_circle.c **** }
 159:u8g2/csrc/u8g2_circle.c **** 
 160:u8g2/csrc/u8g2_circle.c **** static void u8g2_draw_disc(u8g2_t *u8g2, u8g2_uint_t x0, u8g2_uint_t y0, u8g2_uint_t rad, uint8_t o
 161:u8g2/csrc/u8g2_circle.c **** {
 162:u8g2/csrc/u8g2_circle.c ****   u8g2_int_t f;
 163:u8g2/csrc/u8g2_circle.c ****   u8g2_int_t ddF_x;
 164:u8g2/csrc/u8g2_circle.c ****   u8g2_int_t ddF_y;
 165:u8g2/csrc/u8g2_circle.c ****   u8g2_uint_t x;
 166:u8g2/csrc/u8g2_circle.c ****   u8g2_uint_t y;
 167:u8g2/csrc/u8g2_circle.c **** 
 168:u8g2/csrc/u8g2_circle.c ****   f = 1;
 169:u8g2/csrc/u8g2_circle.c ****   f -= rad;
 170:u8g2/csrc/u8g2_circle.c ****   ddF_x = 1;
 171:u8g2/csrc/u8g2_circle.c ****   ddF_y = 0;
 172:u8g2/csrc/u8g2_circle.c ****   ddF_y -= rad;
ARM GAS  /var/folders/rk/zpr83dd14lx588t7kb0yv2b40000gn/T//ccOjqNH9.s 			page 9


 173:u8g2/csrc/u8g2_circle.c ****   ddF_y *= 2;
 174:u8g2/csrc/u8g2_circle.c ****   x = 0;
 175:u8g2/csrc/u8g2_circle.c ****   y = rad;
 176:u8g2/csrc/u8g2_circle.c **** 
 177:u8g2/csrc/u8g2_circle.c ****   u8g2_draw_disc_section(u8g2, x, y, x0, y0, option);
 178:u8g2/csrc/u8g2_circle.c ****   
 179:u8g2/csrc/u8g2_circle.c ****   while ( x < y )
 180:u8g2/csrc/u8g2_circle.c ****   {
 181:u8g2/csrc/u8g2_circle.c ****     if (f >= 0) 
 182:u8g2/csrc/u8g2_circle.c ****     {
 183:u8g2/csrc/u8g2_circle.c ****       y--;
 184:u8g2/csrc/u8g2_circle.c ****       ddF_y += 2;
 185:u8g2/csrc/u8g2_circle.c ****       f += ddF_y;
 186:u8g2/csrc/u8g2_circle.c ****     }
 187:u8g2/csrc/u8g2_circle.c ****     x++;
 188:u8g2/csrc/u8g2_circle.c ****     ddF_x += 2;
 189:u8g2/csrc/u8g2_circle.c ****     f += ddF_x;
 190:u8g2/csrc/u8g2_circle.c **** 
 191:u8g2/csrc/u8g2_circle.c ****     u8g2_draw_disc_section(u8g2, x, y, x0, y0, option);    
 192:u8g2/csrc/u8g2_circle.c ****   }
 193:u8g2/csrc/u8g2_circle.c **** }
 194:u8g2/csrc/u8g2_circle.c **** 
 195:u8g2/csrc/u8g2_circle.c **** void u8g2_DrawDisc(u8g2_t *u8g2, u8g2_uint_t x0, u8g2_uint_t y0, u8g2_uint_t rad, uint8_t option)
 196:u8g2/csrc/u8g2_circle.c **** {
 197:u8g2/csrc/u8g2_circle.c ****   /* check for bounding box */
 198:u8g2/csrc/u8g2_circle.c **** #ifdef U8G2_WITH_INTERSECTION
 199:u8g2/csrc/u8g2_circle.c ****   {
 200:u8g2/csrc/u8g2_circle.c ****     if ( u8g2_IsIntersection(u8g2, x0-rad, y0-rad, x0+rad+1, y0+rad+1) == 0 ) 
 201:u8g2/csrc/u8g2_circle.c ****       return;
 202:u8g2/csrc/u8g2_circle.c ****   }
 203:u8g2/csrc/u8g2_circle.c **** #endif /* U8G2_WITH_INTERSECTION */
 204:u8g2/csrc/u8g2_circle.c ****   
 205:u8g2/csrc/u8g2_circle.c ****   /* draw disc */
 206:u8g2/csrc/u8g2_circle.c ****   u8g2_draw_disc(u8g2, x0, y0, rad, option);
 207:u8g2/csrc/u8g2_circle.c **** }
 208:u8g2/csrc/u8g2_circle.c **** 
 209:u8g2/csrc/u8g2_circle.c **** /*==============================================*/
 210:u8g2/csrc/u8g2_circle.c **** /* Ellipse */
 211:u8g2/csrc/u8g2_circle.c **** 
 212:u8g2/csrc/u8g2_circle.c **** /*
 213:u8g2/csrc/u8g2_circle.c ****   Source: 
 214:u8g2/csrc/u8g2_circle.c ****     Foley, Computer Graphics, p 90
 215:u8g2/csrc/u8g2_circle.c **** */
 216:u8g2/csrc/u8g2_circle.c **** static void u8g2_draw_ellipse_section(u8g2_t *u8g2, u8g2_uint_t x, u8g2_uint_t y, u8g2_uint_t x0, u
 217:u8g2/csrc/u8g2_circle.c **** static void u8g2_draw_ellipse_section(u8g2_t *u8g2, u8g2_uint_t x, u8g2_uint_t y, u8g2_uint_t x0, u
 218:u8g2/csrc/u8g2_circle.c **** {
 275              		.loc 1 218 0
 276              		.cfi_startproc
 277              		@ args = 8, pretend = 0, frame = 0
 278              		@ frame_needed = 0, uses_anonymous_args = 0
 279              	.LVL35:
 280 0000 2DE9F843 		push	{r3, r4, r5, r6, r7, r8, r9, lr}
 281              	.LCFI4:
 282              		.cfi_def_cfa_offset 32
 283              		.cfi_offset 3, -32
 284              		.cfi_offset 4, -28
 285              		.cfi_offset 5, -24
ARM GAS  /var/folders/rk/zpr83dd14lx588t7kb0yv2b40000gn/T//ccOjqNH9.s 			page 10


 286              		.cfi_offset 6, -20
 287              		.cfi_offset 7, -16
 288              		.cfi_offset 8, -12
 289              		.cfi_offset 9, -8
 290              		.cfi_offset 14, -4
 291 0004 0746     		mov	r7, r0
 292 0006 8846     		mov	r8, r1
 293 0008 9146     		mov	r9, r2
 294 000a 1D46     		mov	r5, r3
 295 000c 9DF82060 		ldrb	r6, [sp, #32]	@ zero_extendqisi2
 296 0010 9DF82440 		ldrb	r4, [sp, #36]	@ zero_extendqisi2
 219:u8g2/csrc/u8g2_circle.c ****     /* upper right */
 220:u8g2/csrc/u8g2_circle.c ****     if ( option & U8G2_DRAW_UPPER_RIGHT )
 297              		.loc 1 220 0
 298 0014 14F0010F 		tst	r4, #1
 299 0018 0AD1     		bne	.L23
 300              	.LVL36:
 301              	.L18:
 221:u8g2/csrc/u8g2_circle.c ****     {
 222:u8g2/csrc/u8g2_circle.c ****       u8g2_DrawPixel(u8g2, x0 + x, y0 - y);
 223:u8g2/csrc/u8g2_circle.c ****     }
 224:u8g2/csrc/u8g2_circle.c ****     
 225:u8g2/csrc/u8g2_circle.c ****     /* upper left */
 226:u8g2/csrc/u8g2_circle.c ****     if ( option & U8G2_DRAW_UPPER_LEFT )
 302              		.loc 1 226 0
 303 001a 14F0020F 		tst	r4, #2
 304 001e 0ED1     		bne	.L24
 305              	.L19:
 227:u8g2/csrc/u8g2_circle.c ****     {
 228:u8g2/csrc/u8g2_circle.c ****       u8g2_DrawPixel(u8g2, x0 - x, y0 - y);
 229:u8g2/csrc/u8g2_circle.c ****     }
 230:u8g2/csrc/u8g2_circle.c ****     
 231:u8g2/csrc/u8g2_circle.c ****     /* lower right */
 232:u8g2/csrc/u8g2_circle.c ****     if ( option & U8G2_DRAW_LOWER_RIGHT )
 306              		.loc 1 232 0
 307 0020 14F0080F 		tst	r4, #8
 308 0024 15D1     		bne	.L25
 309              	.L20:
 233:u8g2/csrc/u8g2_circle.c ****     {
 234:u8g2/csrc/u8g2_circle.c ****       u8g2_DrawPixel(u8g2, x0 + x, y0 + y);
 235:u8g2/csrc/u8g2_circle.c ****     }
 236:u8g2/csrc/u8g2_circle.c ****     
 237:u8g2/csrc/u8g2_circle.c ****     /* lower left */
 238:u8g2/csrc/u8g2_circle.c ****     if ( option & U8G2_DRAW_LOWER_LEFT )
 310              		.loc 1 238 0
 311 0026 14F0040F 		tst	r4, #4
 312 002a 1CD1     		bne	.L26
 313              	.L17:
 239:u8g2/csrc/u8g2_circle.c ****     {
 240:u8g2/csrc/u8g2_circle.c ****       u8g2_DrawPixel(u8g2, x0 - x, y0 + y);
 241:u8g2/csrc/u8g2_circle.c ****     }
 242:u8g2/csrc/u8g2_circle.c **** }
 314              		.loc 1 242 0
 315 002c BDE8F883 		pop	{r3, r4, r5, r6, r7, r8, r9, pc}
 316              	.LVL37:
 317              	.L23:
 222:u8g2/csrc/u8g2_circle.c ****     }
ARM GAS  /var/folders/rk/zpr83dd14lx588t7kb0yv2b40000gn/T//ccOjqNH9.s 			page 11


 318              		.loc 1 222 0
 319 0030 B21A     		subs	r2, r6, r2
 320              	.LVL38:
 321 0032 5918     		adds	r1, r3, r1
 322              	.LVL39:
 323 0034 D2B2     		uxtb	r2, r2
 324 0036 C9B2     		uxtb	r1, r1
 325 0038 FFF7FEFF 		bl	u8g2_DrawPixel
 326              	.LVL40:
 327 003c EDE7     		b	.L18
 328              	.L24:
 228:u8g2/csrc/u8g2_circle.c ****     }
 329              		.loc 1 228 0
 330 003e A6EB0902 		sub	r2, r6, r9
 331 0042 A5EB0801 		sub	r1, r5, r8
 332 0046 D2B2     		uxtb	r2, r2
 333 0048 C9B2     		uxtb	r1, r1
 334 004a 3846     		mov	r0, r7
 335 004c FFF7FEFF 		bl	u8g2_DrawPixel
 336              	.LVL41:
 337 0050 E6E7     		b	.L19
 338              	.L25:
 234:u8g2/csrc/u8g2_circle.c ****     }
 339              		.loc 1 234 0
 340 0052 06EB0902 		add	r2, r6, r9
 341 0056 05EB0801 		add	r1, r5, r8
 342 005a D2B2     		uxtb	r2, r2
 343 005c C9B2     		uxtb	r1, r1
 344 005e 3846     		mov	r0, r7
 345 0060 FFF7FEFF 		bl	u8g2_DrawPixel
 346              	.LVL42:
 347 0064 DFE7     		b	.L20
 348              	.L26:
 240:u8g2/csrc/u8g2_circle.c ****     }
 349              		.loc 1 240 0
 350 0066 06EB0902 		add	r2, r6, r9
 351 006a A5EB0801 		sub	r1, r5, r8
 352 006e D2B2     		uxtb	r2, r2
 353 0070 C9B2     		uxtb	r1, r1
 354 0072 3846     		mov	r0, r7
 355 0074 FFF7FEFF 		bl	u8g2_DrawPixel
 356              	.LVL43:
 357              		.loc 1 242 0
 358 0078 D8E7     		b	.L17
 359              		.cfi_endproc
 360              	.LFE6:
 362              		.section	.text.u8g2_draw_ellipse,"ax",%progbits
 363              		.align	1
 364              		.syntax unified
 365              		.thumb
 366              		.thumb_func
 367              		.fpu softvfp
 369              	u8g2_draw_ellipse:
 370              	.LFB7:
 243:u8g2/csrc/u8g2_circle.c **** 
 244:u8g2/csrc/u8g2_circle.c **** static void u8g2_draw_ellipse(u8g2_t *u8g2, u8g2_uint_t x0, u8g2_uint_t y0, u8g2_uint_t rx, u8g2_ui
 245:u8g2/csrc/u8g2_circle.c **** {
ARM GAS  /var/folders/rk/zpr83dd14lx588t7kb0yv2b40000gn/T//ccOjqNH9.s 			page 12


 371              		.loc 1 245 0
 372              		.cfi_startproc
 373              		@ args = 8, pretend = 0, frame = 40
 374              		@ frame_needed = 0, uses_anonymous_args = 0
 375              	.LVL44:
 376 0000 2DE9F04F 		push	{r4, r5, r6, r7, r8, r9, r10, fp, lr}
 377              	.LCFI5:
 378              		.cfi_def_cfa_offset 36
 379              		.cfi_offset 4, -36
 380              		.cfi_offset 5, -32
 381              		.cfi_offset 6, -28
 382              		.cfi_offset 7, -24
 383              		.cfi_offset 8, -20
 384              		.cfi_offset 9, -16
 385              		.cfi_offset 10, -12
 386              		.cfi_offset 11, -8
 387              		.cfi_offset 14, -4
 388 0004 8DB0     		sub	sp, sp, #52
 389              	.LCFI6:
 390              		.cfi_def_cfa_offset 88
 391 0006 0790     		str	r0, [sp, #28]
 392 0008 0891     		str	r1, [sp, #32]
 393 000a 0992     		str	r2, [sp, #36]
 394 000c 0393     		str	r3, [sp, #12]
 395 000e 9DF85810 		ldrb	r1, [sp, #88]	@ zero_extendqisi2
 396              	.LVL45:
 397 0012 0491     		str	r1, [sp, #16]
 398 0014 9DF85C90 		ldrb	r9, [sp, #92]	@ zero_extendqisi2
 399              	.LVL46:
 246:u8g2/csrc/u8g2_circle.c ****   u8g2_uint_t x, y;
 247:u8g2/csrc/u8g2_circle.c ****   u8g2_long_t xchg, ychg;
 248:u8g2/csrc/u8g2_circle.c ****   u8g2_long_t err;
 249:u8g2/csrc/u8g2_circle.c ****   u8g2_long_t rxrx2;
 250:u8g2/csrc/u8g2_circle.c ****   u8g2_long_t ryry2;
 251:u8g2/csrc/u8g2_circle.c ****   u8g2_long_t stopx, stopy;
 252:u8g2/csrc/u8g2_circle.c ****   
 253:u8g2/csrc/u8g2_circle.c ****   rxrx2 = rx;
 254:u8g2/csrc/u8g2_circle.c ****   rxrx2 *= rx;
 400              		.loc 1 254 0
 401 0018 9BB2     		uxth	r3, r3
 402              	.LVL47:
 403 001a 0A93     		str	r3, [sp, #40]
 404 001c 03FB03F7 		mul	r7, r3, r3
 405 0020 3AB2     		sxth	r2, r7
 406              	.LVL48:
 407 0022 0692     		str	r2, [sp, #24]
 408              	.LVL49:
 255:u8g2/csrc/u8g2_circle.c ****   rxrx2 *= 2;
 409              		.loc 1 255 0
 410 0024 7F00     		lsls	r7, r7, #1
 411 0026 BFB2     		uxth	r7, r7
 412              	.LVL50:
 256:u8g2/csrc/u8g2_circle.c ****   
 257:u8g2/csrc/u8g2_circle.c ****   ryry2 = ry;
 258:u8g2/csrc/u8g2_circle.c ****   ryry2 *= ry;
 413              		.loc 1 258 0
 414 0028 89B2     		uxth	r1, r1
ARM GAS  /var/folders/rk/zpr83dd14lx588t7kb0yv2b40000gn/T//ccOjqNH9.s 			page 13


 415              	.LVL51:
 416 002a 0B91     		str	r1, [sp, #44]
 417 002c 01FB01F8 		mul	r8, r1, r1
 418 0030 0FFA88F2 		sxth	r2, r8
 419 0034 0592     		str	r2, [sp, #20]
 420              	.LVL52:
 259:u8g2/csrc/u8g2_circle.c ****   ryry2 *= 2;
 421              		.loc 1 259 0
 422 0036 4FEA4808 		lsl	r8, r8, #1
 423 003a 1FFA88F8 		uxth	r8, r8
 424              	.LVL53:
 260:u8g2/csrc/u8g2_circle.c ****   
 261:u8g2/csrc/u8g2_circle.c ****   x = rx;
 262:u8g2/csrc/u8g2_circle.c ****   y = 0;
 263:u8g2/csrc/u8g2_circle.c ****   
 264:u8g2/csrc/u8g2_circle.c ****   xchg = 1;
 265:u8g2/csrc/u8g2_circle.c ****   xchg -= rx;
 425              		.loc 1 265 0
 426 003e C3F10105 		rsb	r5, r3, #1
 427 0042 ADB2     		uxth	r5, r5
 428              	.LVL54:
 266:u8g2/csrc/u8g2_circle.c ****   xchg -= rx;
 429              		.loc 1 266 0
 430 0044 ED1A     		subs	r5, r5, r3
 431              	.LVL55:
 432 0046 ADB2     		uxth	r5, r5
 433              	.LVL56:
 267:u8g2/csrc/u8g2_circle.c ****   xchg *= ry;
 434              		.loc 1 267 0
 435 0048 05FB01F5 		mul	r5, r5, r1
 436              	.LVL57:
 437 004c ADB2     		uxth	r5, r5
 438              	.LVL58:
 268:u8g2/csrc/u8g2_circle.c ****   xchg *= ry;
 439              		.loc 1 268 0
 440 004e 05FB01F5 		mul	r5, r5, r1
 441              	.LVL59:
 442 0052 2DB2     		sxth	r5, r5
 443              	.LVL60:
 269:u8g2/csrc/u8g2_circle.c ****   
 270:u8g2/csrc/u8g2_circle.c ****   ychg = rx;
 271:u8g2/csrc/u8g2_circle.c ****   ychg *= rx;
 272:u8g2/csrc/u8g2_circle.c ****   
 273:u8g2/csrc/u8g2_circle.c ****   err = 0;
 274:u8g2/csrc/u8g2_circle.c ****   
 275:u8g2/csrc/u8g2_circle.c ****   stopx = ryry2;
 276:u8g2/csrc/u8g2_circle.c ****   stopx *= rx;
 444              		.loc 1 276 0
 445 0054 08FB03FB 		mul	fp, r8, r3
 446 0058 0FFA8BFB 		sxth	fp, fp
 447              	.LVL61:
 277:u8g2/csrc/u8g2_circle.c ****   stopy = 0;
 448              		.loc 1 277 0
 449 005c 0026     		movs	r6, #0
 273:u8g2/csrc/u8g2_circle.c ****   
 450              		.loc 1 273 0
 451 005e 3446     		mov	r4, r6
ARM GAS  /var/folders/rk/zpr83dd14lx588t7kb0yv2b40000gn/T//ccOjqNH9.s 			page 14


 262:u8g2/csrc/u8g2_circle.c ****   
 452              		.loc 1 262 0
 453 0060 B246     		mov	r10, r6
 454              	.LVL62:
 455              	.L28:
 278:u8g2/csrc/u8g2_circle.c ****   
 279:u8g2/csrc/u8g2_circle.c ****   while( stopx >= stopy )
 456              		.loc 1 279 0
 457 0062 B345     		cmp	fp, r6
 458 0064 29DB     		blt	.L35
 280:u8g2/csrc/u8g2_circle.c ****   {
 281:u8g2/csrc/u8g2_circle.c ****     u8g2_draw_ellipse_section(u8g2, x, y, x0, y0, option);
 459              		.loc 1 281 0
 460 0066 CDF80490 		str	r9, [sp, #4]
 461 006a 099B     		ldr	r3, [sp, #36]
 462 006c 0093     		str	r3, [sp]
 463 006e 089B     		ldr	r3, [sp, #32]
 464 0070 5246     		mov	r2, r10
 465 0072 0399     		ldr	r1, [sp, #12]
 466 0074 0798     		ldr	r0, [sp, #28]
 467 0076 FFF7FEFF 		bl	u8g2_draw_ellipse_section
 468              	.LVL63:
 282:u8g2/csrc/u8g2_circle.c ****     y++;
 469              		.loc 1 282 0
 470 007a 0AF1010A 		add	r10, r10, #1
 471              	.LVL64:
 472 007e 5FFA8AFA 		uxtb	r10, r10
 473              	.LVL65:
 283:u8g2/csrc/u8g2_circle.c ****     stopy += rxrx2;
 474              		.loc 1 283 0
 475 0082 3E44     		add	r6, r6, r7
 476              	.LVL66:
 477 0084 36B2     		sxth	r6, r6
 478              	.LVL67:
 284:u8g2/csrc/u8g2_circle.c ****     err += ychg;
 479              		.loc 1 284 0
 480 0086 BDF81820 		ldrh	r2, [sp, #24]
 481 008a 1444     		add	r4, r4, r2
 482              	.LVL68:
 483 008c A3B2     		uxth	r3, r4
 484 008e 1CB2     		sxth	r4, r3
 485              	.LVL69:
 285:u8g2/csrc/u8g2_circle.c ****     ychg += rxrx2;
 486              		.loc 1 285 0
 487 0090 3A44     		add	r2, r2, r7
 488 0092 12B2     		sxth	r2, r2
 489 0094 0692     		str	r2, [sp, #24]
 490              	.LVL70:
 286:u8g2/csrc/u8g2_circle.c ****     if ( 2*err+xchg > 0 )
 491              		.loc 1 286 0
 492 0096 05EB4402 		add	r2, r5, r4, lsl #1
 493 009a 002A     		cmp	r2, #0
 494 009c E1DD     		ble	.L28
 287:u8g2/csrc/u8g2_circle.c ****     {
 288:u8g2/csrc/u8g2_circle.c ****       x--;
 495              		.loc 1 288 0
 496 009e 039A     		ldr	r2, [sp, #12]
ARM GAS  /var/folders/rk/zpr83dd14lx588t7kb0yv2b40000gn/T//ccOjqNH9.s 			page 15


 497 00a0 013A     		subs	r2, r2, #1
 498 00a2 D2B2     		uxtb	r2, r2
 499 00a4 0392     		str	r2, [sp, #12]
 500              	.LVL71:
 289:u8g2/csrc/u8g2_circle.c ****       stopx -= ryry2;
 501              		.loc 1 289 0
 502 00a6 ABEB080B 		sub	fp, fp, r8
 503              	.LVL72:
 504 00aa 0FFA8BFB 		sxth	fp, fp
 505              	.LVL73:
 290:u8g2/csrc/u8g2_circle.c ****       err += xchg;
 506              		.loc 1 290 0
 507 00ae ADB2     		uxth	r5, r5
 508 00b0 5C19     		adds	r4, r3, r5
 509              	.LVL74:
 510 00b2 24B2     		sxth	r4, r4
 511              	.LVL75:
 291:u8g2/csrc/u8g2_circle.c ****       xchg += ryry2;      
 512              		.loc 1 291 0
 513 00b4 4544     		add	r5, r5, r8
 514              	.LVL76:
 515 00b6 2DB2     		sxth	r5, r5
 516              	.LVL77:
 517 00b8 D3E7     		b	.L28
 518              	.L35:
 519              	.LVL78:
 292:u8g2/csrc/u8g2_circle.c ****     }
 293:u8g2/csrc/u8g2_circle.c ****   }
 294:u8g2/csrc/u8g2_circle.c **** 
 295:u8g2/csrc/u8g2_circle.c ****   x = 0;
 296:u8g2/csrc/u8g2_circle.c ****   y = ry;
 297:u8g2/csrc/u8g2_circle.c ****   
 298:u8g2/csrc/u8g2_circle.c ****   xchg = ry;
 299:u8g2/csrc/u8g2_circle.c ****   xchg *= ry;
 300:u8g2/csrc/u8g2_circle.c ****   
 301:u8g2/csrc/u8g2_circle.c ****   ychg = 1;
 302:u8g2/csrc/u8g2_circle.c ****   ychg -= ry;
 520              		.loc 1 302 0
 521 00ba 0B9B     		ldr	r3, [sp, #44]
 522 00bc C3F10105 		rsb	r5, r3, #1
 523 00c0 ADB2     		uxth	r5, r5
 524              	.LVL79:
 303:u8g2/csrc/u8g2_circle.c ****   ychg -= ry;
 525              		.loc 1 303 0
 526 00c2 ED1A     		subs	r5, r5, r3
 527              	.LVL80:
 528 00c4 ADB2     		uxth	r5, r5
 529              	.LVL81:
 304:u8g2/csrc/u8g2_circle.c ****   ychg *= rx;
 530              		.loc 1 304 0
 531 00c6 0A9A     		ldr	r2, [sp, #40]
 532 00c8 05FB02F5 		mul	r5, r5, r2
 533              	.LVL82:
 534 00cc ADB2     		uxth	r5, r5
 535              	.LVL83:
 305:u8g2/csrc/u8g2_circle.c ****   ychg *= rx;
 536              		.loc 1 305 0
ARM GAS  /var/folders/rk/zpr83dd14lx588t7kb0yv2b40000gn/T//ccOjqNH9.s 			page 16


 537 00ce 05FB02F5 		mul	r5, r5, r2
 538              	.LVL84:
 539 00d2 2DB2     		sxth	r5, r5
 540              	.LVL85:
 306:u8g2/csrc/u8g2_circle.c ****   
 307:u8g2/csrc/u8g2_circle.c ****   err = 0;
 308:u8g2/csrc/u8g2_circle.c ****   
 309:u8g2/csrc/u8g2_circle.c ****   stopx = 0;
 310:u8g2/csrc/u8g2_circle.c **** 
 311:u8g2/csrc/u8g2_circle.c ****   stopy = rxrx2;
 312:u8g2/csrc/u8g2_circle.c ****   stopy *= ry;
 541              		.loc 1 312 0
 542 00d4 03FB07FA 		mul	r10, r3, r7
 543 00d8 0FFA8AFA 		sxth	r10, r10
 544              	.LVL86:
 309:u8g2/csrc/u8g2_circle.c **** 
 545              		.loc 1 309 0
 546 00dc 0026     		movs	r6, #0
 307:u8g2/csrc/u8g2_circle.c ****   
 547              		.loc 1 307 0
 548 00de 3446     		mov	r4, r6
 295:u8g2/csrc/u8g2_circle.c ****   y = ry;
 549              		.loc 1 295 0
 550 00e0 B346     		mov	fp, r6
 551              	.LVL87:
 552              	.L31:
 313:u8g2/csrc/u8g2_circle.c ****   
 314:u8g2/csrc/u8g2_circle.c **** 
 315:u8g2/csrc/u8g2_circle.c ****   while( stopx <= stopy )
 553              		.loc 1 315 0
 554 00e2 5645     		cmp	r6, r10
 555 00e4 29DC     		bgt	.L36
 316:u8g2/csrc/u8g2_circle.c ****   {
 317:u8g2/csrc/u8g2_circle.c ****     u8g2_draw_ellipse_section(u8g2, x, y, x0, y0, option);
 556              		.loc 1 317 0
 557 00e6 CDF80490 		str	r9, [sp, #4]
 558 00ea 099B     		ldr	r3, [sp, #36]
 559 00ec 0093     		str	r3, [sp]
 560 00ee 089B     		ldr	r3, [sp, #32]
 561 00f0 049A     		ldr	r2, [sp, #16]
 562 00f2 5946     		mov	r1, fp
 563 00f4 0798     		ldr	r0, [sp, #28]
 564 00f6 FFF7FEFF 		bl	u8g2_draw_ellipse_section
 565              	.LVL88:
 318:u8g2/csrc/u8g2_circle.c ****     x++;
 566              		.loc 1 318 0
 567 00fa 0BF1010B 		add	fp, fp, #1
 568              	.LVL89:
 569 00fe 5FFA8BFB 		uxtb	fp, fp
 570              	.LVL90:
 319:u8g2/csrc/u8g2_circle.c ****     stopx += ryry2;
 571              		.loc 1 319 0
 572 0102 4644     		add	r6, r6, r8
 573              	.LVL91:
 574 0104 36B2     		sxth	r6, r6
 575              	.LVL92:
 320:u8g2/csrc/u8g2_circle.c ****     err += xchg;
ARM GAS  /var/folders/rk/zpr83dd14lx588t7kb0yv2b40000gn/T//ccOjqNH9.s 			page 17


 576              		.loc 1 320 0
 577 0106 BDF81420 		ldrh	r2, [sp, #20]
 578 010a 1444     		add	r4, r4, r2
 579              	.LVL93:
 580 010c A3B2     		uxth	r3, r4
 581 010e 1CB2     		sxth	r4, r3
 582              	.LVL94:
 321:u8g2/csrc/u8g2_circle.c ****     xchg += ryry2;
 583              		.loc 1 321 0
 584 0110 4244     		add	r2, r2, r8
 585 0112 12B2     		sxth	r2, r2
 586 0114 0592     		str	r2, [sp, #20]
 587              	.LVL95:
 322:u8g2/csrc/u8g2_circle.c ****     if ( 2*err+ychg > 0 )
 588              		.loc 1 322 0
 589 0116 05EB4402 		add	r2, r5, r4, lsl #1
 590 011a 002A     		cmp	r2, #0
 591 011c E1DD     		ble	.L31
 323:u8g2/csrc/u8g2_circle.c ****     {
 324:u8g2/csrc/u8g2_circle.c ****       y--;
 592              		.loc 1 324 0
 593 011e 049A     		ldr	r2, [sp, #16]
 594 0120 013A     		subs	r2, r2, #1
 595 0122 D2B2     		uxtb	r2, r2
 596 0124 0492     		str	r2, [sp, #16]
 597              	.LVL96:
 325:u8g2/csrc/u8g2_circle.c ****       stopy -= rxrx2;
 598              		.loc 1 325 0
 599 0126 AAEB070A 		sub	r10, r10, r7
 600              	.LVL97:
 601 012a 0FFA8AFA 		sxth	r10, r10
 602              	.LVL98:
 326:u8g2/csrc/u8g2_circle.c ****       err += ychg;
 603              		.loc 1 326 0
 604 012e ADB2     		uxth	r5, r5
 605 0130 5C19     		adds	r4, r3, r5
 606              	.LVL99:
 607 0132 24B2     		sxth	r4, r4
 608              	.LVL100:
 327:u8g2/csrc/u8g2_circle.c ****       ychg += rxrx2;
 609              		.loc 1 327 0
 610 0134 3D44     		add	r5, r5, r7
 611              	.LVL101:
 612 0136 2DB2     		sxth	r5, r5
 613              	.LVL102:
 614 0138 D3E7     		b	.L31
 615              	.L36:
 328:u8g2/csrc/u8g2_circle.c ****     }
 329:u8g2/csrc/u8g2_circle.c ****   }
 330:u8g2/csrc/u8g2_circle.c ****   
 331:u8g2/csrc/u8g2_circle.c **** }
 616              		.loc 1 331 0
 617 013a 0DB0     		add	sp, sp, #52
 618              	.LCFI7:
 619              		.cfi_def_cfa_offset 36
 620              		@ sp needed
 621 013c BDE8F08F 		pop	{r4, r5, r6, r7, r8, r9, r10, fp, pc}
ARM GAS  /var/folders/rk/zpr83dd14lx588t7kb0yv2b40000gn/T//ccOjqNH9.s 			page 18


 622              		.cfi_endproc
 623              	.LFE7:
 625              		.section	.text.u8g2_draw_disc_section,"ax",%progbits
 626              		.align	1
 627              		.syntax unified
 628              		.thumb
 629              		.thumb_func
 630              		.fpu softvfp
 632              	u8g2_draw_disc_section:
 633              	.LFB3:
 130:u8g2/csrc/u8g2_circle.c ****     /* upper right */
 634              		.loc 1 130 0
 635              		.cfi_startproc
 636              		@ args = 8, pretend = 0, frame = 0
 637              		@ frame_needed = 0, uses_anonymous_args = 0
 638              	.LVL103:
 639 0000 2DE9F843 		push	{r3, r4, r5, r6, r7, r8, r9, lr}
 640              	.LCFI8:
 641              		.cfi_def_cfa_offset 32
 642              		.cfi_offset 3, -32
 643              		.cfi_offset 4, -28
 644              		.cfi_offset 5, -24
 645              		.cfi_offset 6, -20
 646              		.cfi_offset 7, -16
 647              		.cfi_offset 8, -12
 648              		.cfi_offset 9, -8
 649              		.cfi_offset 14, -4
 650 0004 8046     		mov	r8, r0
 651 0006 0C46     		mov	r4, r1
 652 0008 1746     		mov	r7, r2
 653 000a 1E46     		mov	r6, r3
 654 000c 9DF82090 		ldrb	r9, [sp, #32]	@ zero_extendqisi2
 655 0010 9DF82450 		ldrb	r5, [sp, #36]	@ zero_extendqisi2
 132:u8g2/csrc/u8g2_circle.c ****     {
 656              		.loc 1 132 0
 657 0014 15F0010F 		tst	r5, #1
 658 0018 0AD1     		bne	.L43
 659              	.LVL104:
 660              	.L38:
 139:u8g2/csrc/u8g2_circle.c ****     {
 661              		.loc 1 139 0
 662 001a 15F0020F 		tst	r5, #2
 663 001e 1BD1     		bne	.L44
 664              	.L39:
 146:u8g2/csrc/u8g2_circle.c ****     {
 665              		.loc 1 146 0
 666 0020 15F0080F 		tst	r5, #8
 667 0024 2DD1     		bne	.L45
 668              	.L40:
 153:u8g2/csrc/u8g2_circle.c ****     {
 669              		.loc 1 153 0
 670 0026 15F0040F 		tst	r5, #4
 671 002a 3BD1     		bne	.L46
 672              	.L37:
 158:u8g2/csrc/u8g2_circle.c **** 
 673              		.loc 1 158 0
 674 002c BDE8F883 		pop	{r3, r4, r5, r6, r7, r8, r9, pc}
ARM GAS  /var/folders/rk/zpr83dd14lx588t7kb0yv2b40000gn/T//ccOjqNH9.s 			page 19


 675              	.LVL105:
 676              	.L43:
 134:u8g2/csrc/u8g2_circle.c ****       u8g2_DrawVLine(u8g2, x0+y, y0-x, x+1);
 677              		.loc 1 134 0
 678 0030 531C     		adds	r3, r2, #1
 679              	.LVL106:
 680 0032 A9EB0202 		sub	r2, r9, r2
 681              	.LVL107:
 682 0036 7118     		adds	r1, r6, r1
 683              	.LVL108:
 684 0038 DBB2     		uxtb	r3, r3
 685 003a D2B2     		uxtb	r2, r2
 686 003c C9B2     		uxtb	r1, r1
 687 003e FFF7FEFF 		bl	u8g2_DrawVLine
 688              	.LVL109:
 135:u8g2/csrc/u8g2_circle.c ****     }
 689              		.loc 1 135 0
 690 0042 631C     		adds	r3, r4, #1
 691 0044 A9EB0402 		sub	r2, r9, r4
 692 0048 F119     		adds	r1, r6, r7
 693 004a DBB2     		uxtb	r3, r3
 694 004c D2B2     		uxtb	r2, r2
 695 004e C9B2     		uxtb	r1, r1
 696 0050 4046     		mov	r0, r8
 697 0052 FFF7FEFF 		bl	u8g2_DrawVLine
 698              	.LVL110:
 699 0056 E0E7     		b	.L38
 700              	.L44:
 141:u8g2/csrc/u8g2_circle.c ****       u8g2_DrawVLine(u8g2, x0-y, y0-x, x+1);
 701              		.loc 1 141 0
 702 0058 7B1C     		adds	r3, r7, #1
 703 005a A9EB0702 		sub	r2, r9, r7
 704 005e 311B     		subs	r1, r6, r4
 705 0060 DBB2     		uxtb	r3, r3
 706 0062 D2B2     		uxtb	r2, r2
 707 0064 C9B2     		uxtb	r1, r1
 708 0066 4046     		mov	r0, r8
 709 0068 FFF7FEFF 		bl	u8g2_DrawVLine
 710              	.LVL111:
 142:u8g2/csrc/u8g2_circle.c ****     }
 711              		.loc 1 142 0
 712 006c 631C     		adds	r3, r4, #1
 713 006e A9EB0402 		sub	r2, r9, r4
 714 0072 F11B     		subs	r1, r6, r7
 715 0074 DBB2     		uxtb	r3, r3
 716 0076 D2B2     		uxtb	r2, r2
 717 0078 C9B2     		uxtb	r1, r1
 718 007a 4046     		mov	r0, r8
 719 007c FFF7FEFF 		bl	u8g2_DrawVLine
 720              	.LVL112:
 721 0080 CEE7     		b	.L39
 722              	.L45:
 148:u8g2/csrc/u8g2_circle.c ****       u8g2_DrawVLine(u8g2, x0+y, y0, x+1);
 723              		.loc 1 148 0
 724 0082 7B1C     		adds	r3, r7, #1
 725 0084 3119     		adds	r1, r6, r4
 726 0086 DBB2     		uxtb	r3, r3
ARM GAS  /var/folders/rk/zpr83dd14lx588t7kb0yv2b40000gn/T//ccOjqNH9.s 			page 20


 727 0088 4A46     		mov	r2, r9
 728 008a C9B2     		uxtb	r1, r1
 729 008c 4046     		mov	r0, r8
 730 008e FFF7FEFF 		bl	u8g2_DrawVLine
 731              	.LVL113:
 149:u8g2/csrc/u8g2_circle.c ****     }
 732              		.loc 1 149 0
 733 0092 631C     		adds	r3, r4, #1
 734 0094 F119     		adds	r1, r6, r7
 735 0096 DBB2     		uxtb	r3, r3
 736 0098 4A46     		mov	r2, r9
 737 009a C9B2     		uxtb	r1, r1
 738 009c 4046     		mov	r0, r8
 739 009e FFF7FEFF 		bl	u8g2_DrawVLine
 740              	.LVL114:
 741 00a2 C0E7     		b	.L40
 742              	.L46:
 155:u8g2/csrc/u8g2_circle.c ****       u8g2_DrawVLine(u8g2, x0-y, y0, x+1);
 743              		.loc 1 155 0
 744 00a4 7B1C     		adds	r3, r7, #1
 745 00a6 311B     		subs	r1, r6, r4
 746 00a8 DBB2     		uxtb	r3, r3
 747 00aa 4A46     		mov	r2, r9
 748 00ac C9B2     		uxtb	r1, r1
 749 00ae 4046     		mov	r0, r8
 750 00b0 FFF7FEFF 		bl	u8g2_DrawVLine
 751              	.LVL115:
 156:u8g2/csrc/u8g2_circle.c ****     }
 752              		.loc 1 156 0
 753 00b4 631C     		adds	r3, r4, #1
 754 00b6 F11B     		subs	r1, r6, r7
 755 00b8 DBB2     		uxtb	r3, r3
 756 00ba 4A46     		mov	r2, r9
 757 00bc C9B2     		uxtb	r1, r1
 758 00be 4046     		mov	r0, r8
 759 00c0 FFF7FEFF 		bl	u8g2_DrawVLine
 760              	.LVL116:
 158:u8g2/csrc/u8g2_circle.c **** 
 761              		.loc 1 158 0
 762 00c4 B2E7     		b	.L37
 763              		.cfi_endproc
 764              	.LFE3:
 766              		.section	.text.u8g2_draw_disc,"ax",%progbits
 767              		.align	1
 768              		.syntax unified
 769              		.thumb
 770              		.thumb_func
 771              		.fpu softvfp
 773              	u8g2_draw_disc:
 774              	.LFB4:
 161:u8g2/csrc/u8g2_circle.c ****   u8g2_int_t f;
 775              		.loc 1 161 0
 776              		.cfi_startproc
 777              		@ args = 4, pretend = 0, frame = 8
 778              		@ frame_needed = 0, uses_anonymous_args = 0
 779              	.LVL117:
 780 0000 2DE9F04F 		push	{r4, r5, r6, r7, r8, r9, r10, fp, lr}
ARM GAS  /var/folders/rk/zpr83dd14lx588t7kb0yv2b40000gn/T//ccOjqNH9.s 			page 21


 781              	.LCFI9:
 782              		.cfi_def_cfa_offset 36
 783              		.cfi_offset 4, -36
 784              		.cfi_offset 5, -32
 785              		.cfi_offset 6, -28
 786              		.cfi_offset 7, -24
 787              		.cfi_offset 8, -20
 788              		.cfi_offset 9, -16
 789              		.cfi_offset 10, -12
 790              		.cfi_offset 11, -8
 791              		.cfi_offset 14, -4
 792 0004 85B0     		sub	sp, sp, #20
 793              	.LCFI10:
 794              		.cfi_def_cfa_offset 56
 795 0006 0390     		str	r0, [sp, #12]
 796 0008 8946     		mov	r9, r1
 797 000a 9246     		mov	r10, r2
 798 000c 1F46     		mov	r7, r3
 799 000e 9DF838B0 		ldrb	fp, [sp, #56]	@ zero_extendqisi2
 800              	.LVL118:
 169:u8g2/csrc/u8g2_circle.c ****   ddF_x = 1;
 801              		.loc 1 169 0
 802 0012 C3F10108 		rsb	r8, r3, #1
 803 0016 4FFA88F8 		sxtb	r8, r8
 804              	.LVL119:
 173:u8g2/csrc/u8g2_circle.c ****   x = 0;
 805              		.loc 1 173 0
 806 001a C3EBC313 		rsb	r3, r3, r3, lsl #7
 807              	.LVL120:
 808 001e 5D00     		lsls	r5, r3, #1
 809 0020 6DB2     		sxtb	r5, r5
 810              	.LVL121:
 177:u8g2/csrc/u8g2_circle.c ****   
 811              		.loc 1 177 0
 812 0022 CDF804B0 		str	fp, [sp, #4]
 813 0026 0092     		str	r2, [sp]
 814 0028 0B46     		mov	r3, r1
 815 002a 3A46     		mov	r2, r7
 816              	.LVL122:
 817 002c 0021     		movs	r1, #0
 818              	.LVL123:
 819 002e FFF7FEFF 		bl	u8g2_draw_disc_section
 820              	.LVL124:
 174:u8g2/csrc/u8g2_circle.c ****   y = rad;
 821              		.loc 1 174 0
 822 0032 0026     		movs	r6, #0
 170:u8g2/csrc/u8g2_circle.c ****   ddF_y = 0;
 823              		.loc 1 170 0
 824 0034 0124     		movs	r4, #1
 179:u8g2/csrc/u8g2_circle.c ****   {
 825              		.loc 1 179 0
 826 0036 11E0     		b	.L48
 827              	.LVL125:
 828              	.L49:
 187:u8g2/csrc/u8g2_circle.c ****     ddF_x += 2;
 829              		.loc 1 187 0
 830 0038 0136     		adds	r6, r6, #1
ARM GAS  /var/folders/rk/zpr83dd14lx588t7kb0yv2b40000gn/T//ccOjqNH9.s 			page 22


 831              	.LVL126:
 832 003a F6B2     		uxtb	r6, r6
 833              	.LVL127:
 188:u8g2/csrc/u8g2_circle.c ****     f += ddF_x;
 834              		.loc 1 188 0
 835 003c 0234     		adds	r4, r4, #2
 836              	.LVL128:
 837 003e E3B2     		uxtb	r3, r4
 838 0040 5CB2     		sxtb	r4, r3
 839              	.LVL129:
 189:u8g2/csrc/u8g2_circle.c **** 
 840              		.loc 1 189 0
 841 0042 9844     		add	r8, r8, r3
 842              	.LVL130:
 843 0044 4FFA88F8 		sxtb	r8, r8
 844              	.LVL131:
 191:u8g2/csrc/u8g2_circle.c ****   }
 845              		.loc 1 191 0
 846 0048 CDF804B0 		str	fp, [sp, #4]
 847 004c CDF800A0 		str	r10, [sp]
 848 0050 4B46     		mov	r3, r9
 849 0052 3A46     		mov	r2, r7
 850 0054 3146     		mov	r1, r6
 851 0056 0398     		ldr	r0, [sp, #12]
 852 0058 FFF7FEFF 		bl	u8g2_draw_disc_section
 853              	.LVL132:
 854              	.L48:
 179:u8g2/csrc/u8g2_circle.c ****   {
 855              		.loc 1 179 0
 856 005c BE42     		cmp	r6, r7
 857 005e 0BD2     		bcs	.L52
 181:u8g2/csrc/u8g2_circle.c ****     {
 858              		.loc 1 181 0
 859 0060 B8F1000F 		cmp	r8, #0
 860 0064 E8DB     		blt	.L49
 183:u8g2/csrc/u8g2_circle.c ****       ddF_y += 2;
 861              		.loc 1 183 0
 862 0066 013F     		subs	r7, r7, #1
 863              	.LVL133:
 864 0068 FFB2     		uxtb	r7, r7
 865              	.LVL134:
 184:u8g2/csrc/u8g2_circle.c ****       f += ddF_y;
 866              		.loc 1 184 0
 867 006a 0235     		adds	r5, r5, #2
 868              	.LVL135:
 869 006c EBB2     		uxtb	r3, r5
 870 006e 5DB2     		sxtb	r5, r3
 871              	.LVL136:
 185:u8g2/csrc/u8g2_circle.c ****     }
 872              		.loc 1 185 0
 873 0070 9844     		add	r8, r8, r3
 874              	.LVL137:
 875 0072 4FFA88F8 		sxtb	r8, r8
 876              	.LVL138:
 877 0076 DFE7     		b	.L49
 878              	.L52:
 193:u8g2/csrc/u8g2_circle.c **** 
ARM GAS  /var/folders/rk/zpr83dd14lx588t7kb0yv2b40000gn/T//ccOjqNH9.s 			page 23


 879              		.loc 1 193 0
 880 0078 05B0     		add	sp, sp, #20
 881              	.LCFI11:
 882              		.cfi_def_cfa_offset 36
 883              		@ sp needed
 884 007a BDE8F08F 		pop	{r4, r5, r6, r7, r8, r9, r10, fp, pc}
 885              		.cfi_endproc
 886              	.LFE4:
 888              		.section	.text.u8g2_draw_filled_ellipse_section,"ax",%progbits
 889              		.align	1
 890              		.syntax unified
 891              		.thumb
 892              		.thumb_func
 893              		.fpu softvfp
 895              	u8g2_draw_filled_ellipse_section:
 896              	.LFB9:
 332:u8g2/csrc/u8g2_circle.c **** 
 333:u8g2/csrc/u8g2_circle.c **** void u8g2_DrawEllipse(u8g2_t *u8g2, u8g2_uint_t x0, u8g2_uint_t y0, u8g2_uint_t rx, u8g2_uint_t ry,
 334:u8g2/csrc/u8g2_circle.c **** {
 335:u8g2/csrc/u8g2_circle.c ****   /* check for bounding box */
 336:u8g2/csrc/u8g2_circle.c **** #ifdef U8G2_WITH_INTERSECTION
 337:u8g2/csrc/u8g2_circle.c ****   {
 338:u8g2/csrc/u8g2_circle.c ****     if ( u8g2_IsIntersection(u8g2, x0-rx, y0-ry, x0+rx+1, y0+ry+1) == 0 ) 
 339:u8g2/csrc/u8g2_circle.c ****       return;
 340:u8g2/csrc/u8g2_circle.c ****   }
 341:u8g2/csrc/u8g2_circle.c **** #endif /* U8G2_WITH_INTERSECTION */
 342:u8g2/csrc/u8g2_circle.c ****   
 343:u8g2/csrc/u8g2_circle.c ****   u8g2_draw_ellipse(u8g2, x0, y0, rx, ry, option);
 344:u8g2/csrc/u8g2_circle.c **** }
 345:u8g2/csrc/u8g2_circle.c **** 
 346:u8g2/csrc/u8g2_circle.c **** /*==============================================*/
 347:u8g2/csrc/u8g2_circle.c **** /* Filled Ellipse */
 348:u8g2/csrc/u8g2_circle.c **** 
 349:u8g2/csrc/u8g2_circle.c **** static void u8g2_draw_filled_ellipse_section(u8g2_t *u8g2, u8g2_uint_t x, u8g2_uint_t y, u8g2_uint_
 350:u8g2/csrc/u8g2_circle.c **** static void u8g2_draw_filled_ellipse_section(u8g2_t *u8g2, u8g2_uint_t x, u8g2_uint_t y, u8g2_uint_
 351:u8g2/csrc/u8g2_circle.c **** {
 897              		.loc 1 351 0
 898              		.cfi_startproc
 899              		@ args = 8, pretend = 0, frame = 0
 900              		@ frame_needed = 0, uses_anonymous_args = 0
 901              	.LVL139:
 902 0000 2DE9F843 		push	{r3, r4, r5, r6, r7, r8, r9, lr}
 903              	.LCFI12:
 904              		.cfi_def_cfa_offset 32
 905              		.cfi_offset 3, -32
 906              		.cfi_offset 4, -28
 907              		.cfi_offset 5, -24
 908              		.cfi_offset 6, -20
 909              		.cfi_offset 7, -16
 910              		.cfi_offset 8, -12
 911              		.cfi_offset 9, -8
 912              		.cfi_offset 14, -4
 913 0004 0746     		mov	r7, r0
 914 0006 8946     		mov	r9, r1
 915 0008 1546     		mov	r5, r2
 916 000a 1E46     		mov	r6, r3
 917 000c 9DF82080 		ldrb	r8, [sp, #32]	@ zero_extendqisi2
ARM GAS  /var/folders/rk/zpr83dd14lx588t7kb0yv2b40000gn/T//ccOjqNH9.s 			page 24


 918 0010 9DF82440 		ldrb	r4, [sp, #36]	@ zero_extendqisi2
 352:u8g2/csrc/u8g2_circle.c ****     /* upper right */
 353:u8g2/csrc/u8g2_circle.c ****     if ( option & U8G2_DRAW_UPPER_RIGHT )
 919              		.loc 1 353 0
 920 0014 14F0010F 		tst	r4, #1
 921 0018 0AD1     		bne	.L59
 922              	.LVL140:
 923              	.L54:
 354:u8g2/csrc/u8g2_circle.c ****     {
 355:u8g2/csrc/u8g2_circle.c ****       u8g2_DrawVLine(u8g2, x0+x, y0-y, y+1);
 356:u8g2/csrc/u8g2_circle.c ****     }
 357:u8g2/csrc/u8g2_circle.c ****     
 358:u8g2/csrc/u8g2_circle.c ****     /* upper left */
 359:u8g2/csrc/u8g2_circle.c ****     if ( option & U8G2_DRAW_UPPER_LEFT )
 924              		.loc 1 359 0
 925 001a 14F0020F 		tst	r4, #2
 926 001e 11D1     		bne	.L60
 927              	.L55:
 360:u8g2/csrc/u8g2_circle.c ****     {
 361:u8g2/csrc/u8g2_circle.c ****       u8g2_DrawVLine(u8g2, x0-x, y0-y, y+1);
 362:u8g2/csrc/u8g2_circle.c ****     }
 363:u8g2/csrc/u8g2_circle.c ****     
 364:u8g2/csrc/u8g2_circle.c ****     /* lower right */
 365:u8g2/csrc/u8g2_circle.c ****     if ( option & U8G2_DRAW_LOWER_RIGHT )
 928              		.loc 1 365 0
 929 0020 14F0080F 		tst	r4, #8
 930 0024 1AD1     		bne	.L61
 931              	.L56:
 366:u8g2/csrc/u8g2_circle.c ****     {
 367:u8g2/csrc/u8g2_circle.c ****       u8g2_DrawVLine(u8g2, x0+x, y0, y+1);
 368:u8g2/csrc/u8g2_circle.c ****     }
 369:u8g2/csrc/u8g2_circle.c ****     
 370:u8g2/csrc/u8g2_circle.c ****     /* lower left */
 371:u8g2/csrc/u8g2_circle.c ****     if ( option & U8G2_DRAW_LOWER_LEFT )
 932              		.loc 1 371 0
 933 0026 14F0040F 		tst	r4, #4
 934 002a 21D1     		bne	.L62
 935              	.L53:
 372:u8g2/csrc/u8g2_circle.c ****     {
 373:u8g2/csrc/u8g2_circle.c ****       u8g2_DrawVLine(u8g2, x0-x, y0, y+1);
 374:u8g2/csrc/u8g2_circle.c ****     }
 375:u8g2/csrc/u8g2_circle.c **** }
 936              		.loc 1 375 0
 937 002c BDE8F883 		pop	{r3, r4, r5, r6, r7, r8, r9, pc}
 938              	.LVL141:
 939              	.L59:
 355:u8g2/csrc/u8g2_circle.c ****     }
 940              		.loc 1 355 0
 941 0030 531C     		adds	r3, r2, #1
 942              	.LVL142:
 943 0032 A8EB0202 		sub	r2, r8, r2
 944              	.LVL143:
 945 0036 7118     		adds	r1, r6, r1
 946              	.LVL144:
 947 0038 DBB2     		uxtb	r3, r3
 948 003a D2B2     		uxtb	r2, r2
 949 003c C9B2     		uxtb	r1, r1
ARM GAS  /var/folders/rk/zpr83dd14lx588t7kb0yv2b40000gn/T//ccOjqNH9.s 			page 25


 950 003e FFF7FEFF 		bl	u8g2_DrawVLine
 951              	.LVL145:
 952 0042 EAE7     		b	.L54
 953              	.L60:
 361:u8g2/csrc/u8g2_circle.c ****     }
 954              		.loc 1 361 0
 955 0044 6B1C     		adds	r3, r5, #1
 956 0046 A8EB0502 		sub	r2, r8, r5
 957 004a A6EB0901 		sub	r1, r6, r9
 958 004e DBB2     		uxtb	r3, r3
 959 0050 D2B2     		uxtb	r2, r2
 960 0052 C9B2     		uxtb	r1, r1
 961 0054 3846     		mov	r0, r7
 962 0056 FFF7FEFF 		bl	u8g2_DrawVLine
 963              	.LVL146:
 964 005a E1E7     		b	.L55
 965              	.L61:
 367:u8g2/csrc/u8g2_circle.c ****     }
 966              		.loc 1 367 0
 967 005c 6B1C     		adds	r3, r5, #1
 968 005e 06EB0901 		add	r1, r6, r9
 969 0062 DBB2     		uxtb	r3, r3
 970 0064 4246     		mov	r2, r8
 971 0066 C9B2     		uxtb	r1, r1
 972 0068 3846     		mov	r0, r7
 973 006a FFF7FEFF 		bl	u8g2_DrawVLine
 974              	.LVL147:
 975 006e DAE7     		b	.L56
 976              	.L62:
 373:u8g2/csrc/u8g2_circle.c ****     }
 977              		.loc 1 373 0
 978 0070 6B1C     		adds	r3, r5, #1
 979 0072 A6EB0901 		sub	r1, r6, r9
 980 0076 DBB2     		uxtb	r3, r3
 981 0078 4246     		mov	r2, r8
 982 007a C9B2     		uxtb	r1, r1
 983 007c 3846     		mov	r0, r7
 984 007e FFF7FEFF 		bl	u8g2_DrawVLine
 985              	.LVL148:
 986              		.loc 1 375 0
 987 0082 D3E7     		b	.L53
 988              		.cfi_endproc
 989              	.LFE9:
 991              		.section	.text.u8g2_draw_filled_ellipse,"ax",%progbits
 992              		.align	1
 993              		.syntax unified
 994              		.thumb
 995              		.thumb_func
 996              		.fpu softvfp
 998              	u8g2_draw_filled_ellipse:
 999              	.LFB10:
 376:u8g2/csrc/u8g2_circle.c **** 
 377:u8g2/csrc/u8g2_circle.c **** static void u8g2_draw_filled_ellipse(u8g2_t *u8g2, u8g2_uint_t x0, u8g2_uint_t y0, u8g2_uint_t rx, 
 378:u8g2/csrc/u8g2_circle.c **** {
 1000              		.loc 1 378 0
 1001              		.cfi_startproc
 1002              		@ args = 8, pretend = 0, frame = 40
ARM GAS  /var/folders/rk/zpr83dd14lx588t7kb0yv2b40000gn/T//ccOjqNH9.s 			page 26


 1003              		@ frame_needed = 0, uses_anonymous_args = 0
 1004              	.LVL149:
 1005 0000 2DE9F04F 		push	{r4, r5, r6, r7, r8, r9, r10, fp, lr}
 1006              	.LCFI13:
 1007              		.cfi_def_cfa_offset 36
 1008              		.cfi_offset 4, -36
 1009              		.cfi_offset 5, -32
 1010              		.cfi_offset 6, -28
 1011              		.cfi_offset 7, -24
 1012              		.cfi_offset 8, -20
 1013              		.cfi_offset 9, -16
 1014              		.cfi_offset 10, -12
 1015              		.cfi_offset 11, -8
 1016              		.cfi_offset 14, -4
 1017 0004 8DB0     		sub	sp, sp, #52
 1018              	.LCFI14:
 1019              		.cfi_def_cfa_offset 88
 1020 0006 0790     		str	r0, [sp, #28]
 1021 0008 0891     		str	r1, [sp, #32]
 1022 000a 0992     		str	r2, [sp, #36]
 1023 000c 0393     		str	r3, [sp, #12]
 1024 000e 9DF85810 		ldrb	r1, [sp, #88]	@ zero_extendqisi2
 1025              	.LVL150:
 1026 0012 0491     		str	r1, [sp, #16]
 1027 0014 9DF85C90 		ldrb	r9, [sp, #92]	@ zero_extendqisi2
 1028              	.LVL151:
 379:u8g2/csrc/u8g2_circle.c ****   u8g2_uint_t x, y;
 380:u8g2/csrc/u8g2_circle.c ****   u8g2_long_t xchg, ychg;
 381:u8g2/csrc/u8g2_circle.c ****   u8g2_long_t err;
 382:u8g2/csrc/u8g2_circle.c ****   u8g2_long_t rxrx2;
 383:u8g2/csrc/u8g2_circle.c ****   u8g2_long_t ryry2;
 384:u8g2/csrc/u8g2_circle.c ****   u8g2_long_t stopx, stopy;
 385:u8g2/csrc/u8g2_circle.c ****   
 386:u8g2/csrc/u8g2_circle.c ****   rxrx2 = rx;
 387:u8g2/csrc/u8g2_circle.c ****   rxrx2 *= rx;
 1029              		.loc 1 387 0
 1030 0018 9BB2     		uxth	r3, r3
 1031              	.LVL152:
 1032 001a 0A93     		str	r3, [sp, #40]
 1033 001c 03FB03F7 		mul	r7, r3, r3
 1034 0020 3AB2     		sxth	r2, r7
 1035              	.LVL153:
 1036 0022 0692     		str	r2, [sp, #24]
 1037              	.LVL154:
 388:u8g2/csrc/u8g2_circle.c ****   rxrx2 *= 2;
 1038              		.loc 1 388 0
 1039 0024 7F00     		lsls	r7, r7, #1
 1040 0026 BFB2     		uxth	r7, r7
 1041              	.LVL155:
 389:u8g2/csrc/u8g2_circle.c ****   
 390:u8g2/csrc/u8g2_circle.c ****   ryry2 = ry;
 391:u8g2/csrc/u8g2_circle.c ****   ryry2 *= ry;
 1042              		.loc 1 391 0
 1043 0028 89B2     		uxth	r1, r1
 1044              	.LVL156:
 1045 002a 0B91     		str	r1, [sp, #44]
 1046 002c 01FB01F8 		mul	r8, r1, r1
ARM GAS  /var/folders/rk/zpr83dd14lx588t7kb0yv2b40000gn/T//ccOjqNH9.s 			page 27


 1047 0030 0FFA88F2 		sxth	r2, r8
 1048 0034 0592     		str	r2, [sp, #20]
 1049              	.LVL157:
 392:u8g2/csrc/u8g2_circle.c ****   ryry2 *= 2;
 1050              		.loc 1 392 0
 1051 0036 4FEA4808 		lsl	r8, r8, #1
 1052 003a 1FFA88F8 		uxth	r8, r8
 1053              	.LVL158:
 393:u8g2/csrc/u8g2_circle.c ****   
 394:u8g2/csrc/u8g2_circle.c ****   x = rx;
 395:u8g2/csrc/u8g2_circle.c ****   y = 0;
 396:u8g2/csrc/u8g2_circle.c ****   
 397:u8g2/csrc/u8g2_circle.c ****   xchg = 1;
 398:u8g2/csrc/u8g2_circle.c ****   xchg -= rx;
 1054              		.loc 1 398 0
 1055 003e C3F10105 		rsb	r5, r3, #1
 1056 0042 ADB2     		uxth	r5, r5
 1057              	.LVL159:
 399:u8g2/csrc/u8g2_circle.c ****   xchg -= rx;
 1058              		.loc 1 399 0
 1059 0044 ED1A     		subs	r5, r5, r3
 1060              	.LVL160:
 1061 0046 ADB2     		uxth	r5, r5
 1062              	.LVL161:
 400:u8g2/csrc/u8g2_circle.c ****   xchg *= ry;
 1063              		.loc 1 400 0
 1064 0048 05FB01F5 		mul	r5, r5, r1
 1065              	.LVL162:
 1066 004c ADB2     		uxth	r5, r5
 1067              	.LVL163:
 401:u8g2/csrc/u8g2_circle.c ****   xchg *= ry;
 1068              		.loc 1 401 0
 1069 004e 05FB01F5 		mul	r5, r5, r1
 1070              	.LVL164:
 1071 0052 2DB2     		sxth	r5, r5
 1072              	.LVL165:
 402:u8g2/csrc/u8g2_circle.c ****   
 403:u8g2/csrc/u8g2_circle.c ****   ychg = rx;
 404:u8g2/csrc/u8g2_circle.c ****   ychg *= rx;
 405:u8g2/csrc/u8g2_circle.c ****   
 406:u8g2/csrc/u8g2_circle.c ****   err = 0;
 407:u8g2/csrc/u8g2_circle.c ****   
 408:u8g2/csrc/u8g2_circle.c ****   stopx = ryry2;
 409:u8g2/csrc/u8g2_circle.c ****   stopx *= rx;
 1073              		.loc 1 409 0
 1074 0054 08FB03FB 		mul	fp, r8, r3
 1075 0058 0FFA8BFB 		sxth	fp, fp
 1076              	.LVL166:
 410:u8g2/csrc/u8g2_circle.c ****   stopy = 0;
 1077              		.loc 1 410 0
 1078 005c 0026     		movs	r6, #0
 406:u8g2/csrc/u8g2_circle.c ****   
 1079              		.loc 1 406 0
 1080 005e 3446     		mov	r4, r6
 395:u8g2/csrc/u8g2_circle.c ****   
 1081              		.loc 1 395 0
 1082 0060 B246     		mov	r10, r6
ARM GAS  /var/folders/rk/zpr83dd14lx588t7kb0yv2b40000gn/T//ccOjqNH9.s 			page 28


 1083              	.LVL167:
 1084              	.L64:
 411:u8g2/csrc/u8g2_circle.c ****   
 412:u8g2/csrc/u8g2_circle.c ****   while( stopx >= stopy )
 1085              		.loc 1 412 0
 1086 0062 B345     		cmp	fp, r6
 1087 0064 29DB     		blt	.L71
 413:u8g2/csrc/u8g2_circle.c ****   {
 414:u8g2/csrc/u8g2_circle.c ****     u8g2_draw_filled_ellipse_section(u8g2, x, y, x0, y0, option);
 1088              		.loc 1 414 0
 1089 0066 CDF80490 		str	r9, [sp, #4]
 1090 006a 099B     		ldr	r3, [sp, #36]
 1091 006c 0093     		str	r3, [sp]
 1092 006e 089B     		ldr	r3, [sp, #32]
 1093 0070 5246     		mov	r2, r10
 1094 0072 0399     		ldr	r1, [sp, #12]
 1095 0074 0798     		ldr	r0, [sp, #28]
 1096 0076 FFF7FEFF 		bl	u8g2_draw_filled_ellipse_section
 1097              	.LVL168:
 415:u8g2/csrc/u8g2_circle.c ****     y++;
 1098              		.loc 1 415 0
 1099 007a 0AF1010A 		add	r10, r10, #1
 1100              	.LVL169:
 1101 007e 5FFA8AFA 		uxtb	r10, r10
 1102              	.LVL170:
 416:u8g2/csrc/u8g2_circle.c ****     stopy += rxrx2;
 1103              		.loc 1 416 0
 1104 0082 3E44     		add	r6, r6, r7
 1105              	.LVL171:
 1106 0084 36B2     		sxth	r6, r6
 1107              	.LVL172:
 417:u8g2/csrc/u8g2_circle.c ****     err += ychg;
 1108              		.loc 1 417 0
 1109 0086 BDF81820 		ldrh	r2, [sp, #24]
 1110 008a 1444     		add	r4, r4, r2
 1111              	.LVL173:
 1112 008c A3B2     		uxth	r3, r4
 1113 008e 1CB2     		sxth	r4, r3
 1114              	.LVL174:
 418:u8g2/csrc/u8g2_circle.c ****     ychg += rxrx2;
 1115              		.loc 1 418 0
 1116 0090 3A44     		add	r2, r2, r7
 1117 0092 12B2     		sxth	r2, r2
 1118 0094 0692     		str	r2, [sp, #24]
 1119              	.LVL175:
 419:u8g2/csrc/u8g2_circle.c ****     if ( 2*err+xchg > 0 )
 1120              		.loc 1 419 0
 1121 0096 05EB4402 		add	r2, r5, r4, lsl #1
 1122 009a 002A     		cmp	r2, #0
 1123 009c E1DD     		ble	.L64
 420:u8g2/csrc/u8g2_circle.c ****     {
 421:u8g2/csrc/u8g2_circle.c ****       x--;
 1124              		.loc 1 421 0
 1125 009e 039A     		ldr	r2, [sp, #12]
 1126 00a0 013A     		subs	r2, r2, #1
 1127 00a2 D2B2     		uxtb	r2, r2
 1128 00a4 0392     		str	r2, [sp, #12]
ARM GAS  /var/folders/rk/zpr83dd14lx588t7kb0yv2b40000gn/T//ccOjqNH9.s 			page 29


 1129              	.LVL176:
 422:u8g2/csrc/u8g2_circle.c ****       stopx -= ryry2;
 1130              		.loc 1 422 0
 1131 00a6 ABEB080B 		sub	fp, fp, r8
 1132              	.LVL177:
 1133 00aa 0FFA8BFB 		sxth	fp, fp
 1134              	.LVL178:
 423:u8g2/csrc/u8g2_circle.c ****       err += xchg;
 1135              		.loc 1 423 0
 1136 00ae ADB2     		uxth	r5, r5
 1137 00b0 5C19     		adds	r4, r3, r5
 1138              	.LVL179:
 1139 00b2 24B2     		sxth	r4, r4
 1140              	.LVL180:
 424:u8g2/csrc/u8g2_circle.c ****       xchg += ryry2;      
 1141              		.loc 1 424 0
 1142 00b4 4544     		add	r5, r5, r8
 1143              	.LVL181:
 1144 00b6 2DB2     		sxth	r5, r5
 1145              	.LVL182:
 1146 00b8 D3E7     		b	.L64
 1147              	.L71:
 1148              	.LVL183:
 425:u8g2/csrc/u8g2_circle.c ****     }
 426:u8g2/csrc/u8g2_circle.c ****   }
 427:u8g2/csrc/u8g2_circle.c **** 
 428:u8g2/csrc/u8g2_circle.c ****   x = 0;
 429:u8g2/csrc/u8g2_circle.c ****   y = ry;
 430:u8g2/csrc/u8g2_circle.c ****   
 431:u8g2/csrc/u8g2_circle.c ****   xchg = ry;
 432:u8g2/csrc/u8g2_circle.c ****   xchg *= ry;
 433:u8g2/csrc/u8g2_circle.c ****   
 434:u8g2/csrc/u8g2_circle.c ****   ychg = 1;
 435:u8g2/csrc/u8g2_circle.c ****   ychg -= ry;
 1149              		.loc 1 435 0
 1150 00ba 0B9B     		ldr	r3, [sp, #44]
 1151 00bc C3F10105 		rsb	r5, r3, #1
 1152 00c0 ADB2     		uxth	r5, r5
 1153              	.LVL184:
 436:u8g2/csrc/u8g2_circle.c ****   ychg -= ry;
 1154              		.loc 1 436 0
 1155 00c2 ED1A     		subs	r5, r5, r3
 1156              	.LVL185:
 1157 00c4 ADB2     		uxth	r5, r5
 1158              	.LVL186:
 437:u8g2/csrc/u8g2_circle.c ****   ychg *= rx;
 1159              		.loc 1 437 0
 1160 00c6 0A9A     		ldr	r2, [sp, #40]
 1161 00c8 05FB02F5 		mul	r5, r5, r2
 1162              	.LVL187:
 1163 00cc ADB2     		uxth	r5, r5
 1164              	.LVL188:
 438:u8g2/csrc/u8g2_circle.c ****   ychg *= rx;
 1165              		.loc 1 438 0
 1166 00ce 05FB02F5 		mul	r5, r5, r2
 1167              	.LVL189:
 1168 00d2 2DB2     		sxth	r5, r5
ARM GAS  /var/folders/rk/zpr83dd14lx588t7kb0yv2b40000gn/T//ccOjqNH9.s 			page 30


 1169              	.LVL190:
 439:u8g2/csrc/u8g2_circle.c ****   
 440:u8g2/csrc/u8g2_circle.c ****   err = 0;
 441:u8g2/csrc/u8g2_circle.c ****   
 442:u8g2/csrc/u8g2_circle.c ****   stopx = 0;
 443:u8g2/csrc/u8g2_circle.c **** 
 444:u8g2/csrc/u8g2_circle.c ****   stopy = rxrx2;
 445:u8g2/csrc/u8g2_circle.c ****   stopy *= ry;
 1170              		.loc 1 445 0
 1171 00d4 03FB07FA 		mul	r10, r3, r7
 1172 00d8 0FFA8AFA 		sxth	r10, r10
 1173              	.LVL191:
 442:u8g2/csrc/u8g2_circle.c **** 
 1174              		.loc 1 442 0
 1175 00dc 0026     		movs	r6, #0
 440:u8g2/csrc/u8g2_circle.c ****   
 1176              		.loc 1 440 0
 1177 00de 3446     		mov	r4, r6
 428:u8g2/csrc/u8g2_circle.c ****   y = ry;
 1178              		.loc 1 428 0
 1179 00e0 B346     		mov	fp, r6
 1180              	.LVL192:
 1181              	.L67:
 446:u8g2/csrc/u8g2_circle.c ****   
 447:u8g2/csrc/u8g2_circle.c **** 
 448:u8g2/csrc/u8g2_circle.c ****   while( stopx <= stopy )
 1182              		.loc 1 448 0
 1183 00e2 5645     		cmp	r6, r10
 1184 00e4 29DC     		bgt	.L72
 449:u8g2/csrc/u8g2_circle.c ****   {
 450:u8g2/csrc/u8g2_circle.c ****     u8g2_draw_filled_ellipse_section(u8g2, x, y, x0, y0, option);
 1185              		.loc 1 450 0
 1186 00e6 CDF80490 		str	r9, [sp, #4]
 1187 00ea 099B     		ldr	r3, [sp, #36]
 1188 00ec 0093     		str	r3, [sp]
 1189 00ee 089B     		ldr	r3, [sp, #32]
 1190 00f0 049A     		ldr	r2, [sp, #16]
 1191 00f2 5946     		mov	r1, fp
 1192 00f4 0798     		ldr	r0, [sp, #28]
 1193 00f6 FFF7FEFF 		bl	u8g2_draw_filled_ellipse_section
 1194              	.LVL193:
 451:u8g2/csrc/u8g2_circle.c ****     x++;
 1195              		.loc 1 451 0
 1196 00fa 0BF1010B 		add	fp, fp, #1
 1197              	.LVL194:
 1198 00fe 5FFA8BFB 		uxtb	fp, fp
 1199              	.LVL195:
 452:u8g2/csrc/u8g2_circle.c ****     stopx += ryry2;
 1200              		.loc 1 452 0
 1201 0102 4644     		add	r6, r6, r8
 1202              	.LVL196:
 1203 0104 36B2     		sxth	r6, r6
 1204              	.LVL197:
 453:u8g2/csrc/u8g2_circle.c ****     err += xchg;
 1205              		.loc 1 453 0
 1206 0106 BDF81420 		ldrh	r2, [sp, #20]
 1207 010a 1444     		add	r4, r4, r2
ARM GAS  /var/folders/rk/zpr83dd14lx588t7kb0yv2b40000gn/T//ccOjqNH9.s 			page 31


 1208              	.LVL198:
 1209 010c A3B2     		uxth	r3, r4
 1210 010e 1CB2     		sxth	r4, r3
 1211              	.LVL199:
 454:u8g2/csrc/u8g2_circle.c ****     xchg += ryry2;
 1212              		.loc 1 454 0
 1213 0110 4244     		add	r2, r2, r8
 1214 0112 12B2     		sxth	r2, r2
 1215 0114 0592     		str	r2, [sp, #20]
 1216              	.LVL200:
 455:u8g2/csrc/u8g2_circle.c ****     if ( 2*err+ychg > 0 )
 1217              		.loc 1 455 0
 1218 0116 05EB4402 		add	r2, r5, r4, lsl #1
 1219 011a 002A     		cmp	r2, #0
 1220 011c E1DD     		ble	.L67
 456:u8g2/csrc/u8g2_circle.c ****     {
 457:u8g2/csrc/u8g2_circle.c ****       y--;
 1221              		.loc 1 457 0
 1222 011e 049A     		ldr	r2, [sp, #16]
 1223 0120 013A     		subs	r2, r2, #1
 1224 0122 D2B2     		uxtb	r2, r2
 1225 0124 0492     		str	r2, [sp, #16]
 1226              	.LVL201:
 458:u8g2/csrc/u8g2_circle.c ****       stopy -= rxrx2;
 1227              		.loc 1 458 0
 1228 0126 AAEB070A 		sub	r10, r10, r7
 1229              	.LVL202:
 1230 012a 0FFA8AFA 		sxth	r10, r10
 1231              	.LVL203:
 459:u8g2/csrc/u8g2_circle.c ****       err += ychg;
 1232              		.loc 1 459 0
 1233 012e ADB2     		uxth	r5, r5
 1234 0130 5C19     		adds	r4, r3, r5
 1235              	.LVL204:
 1236 0132 24B2     		sxth	r4, r4
 1237              	.LVL205:
 460:u8g2/csrc/u8g2_circle.c ****       ychg += rxrx2;
 1238              		.loc 1 460 0
 1239 0134 3D44     		add	r5, r5, r7
 1240              	.LVL206:
 1241 0136 2DB2     		sxth	r5, r5
 1242              	.LVL207:
 1243 0138 D3E7     		b	.L67
 1244              	.L72:
 461:u8g2/csrc/u8g2_circle.c ****     }
 462:u8g2/csrc/u8g2_circle.c ****   }
 463:u8g2/csrc/u8g2_circle.c ****   
 464:u8g2/csrc/u8g2_circle.c **** }
 1245              		.loc 1 464 0
 1246 013a 0DB0     		add	sp, sp, #52
 1247              	.LCFI15:
 1248              		.cfi_def_cfa_offset 36
 1249              		@ sp needed
 1250 013c BDE8F08F 		pop	{r4, r5, r6, r7, r8, r9, r10, fp, pc}
 1251              		.cfi_endproc
 1252              	.LFE10:
 1254              		.section	.text.u8g2_DrawCircle,"ax",%progbits
ARM GAS  /var/folders/rk/zpr83dd14lx588t7kb0yv2b40000gn/T//ccOjqNH9.s 			page 32


 1255              		.align	1
 1256              		.global	u8g2_DrawCircle
 1257              		.syntax unified
 1258              		.thumb
 1259              		.thumb_func
 1260              		.fpu softvfp
 1262              	u8g2_DrawCircle:
 1263              	.LFB2:
 110:u8g2/csrc/u8g2_circle.c ****   /* check for bounding box */
 1264              		.loc 1 110 0
 1265              		.cfi_startproc
 1266              		@ args = 4, pretend = 0, frame = 0
 1267              		@ frame_needed = 0, uses_anonymous_args = 0
 1268              	.LVL208:
 1269 0000 2DE9F041 		push	{r4, r5, r6, r7, r8, lr}
 1270              	.LCFI16:
 1271              		.cfi_def_cfa_offset 24
 1272              		.cfi_offset 4, -24
 1273              		.cfi_offset 5, -20
 1274              		.cfi_offset 6, -16
 1275              		.cfi_offset 7, -12
 1276              		.cfi_offset 8, -8
 1277              		.cfi_offset 14, -4
 1278 0004 82B0     		sub	sp, sp, #8
 1279              	.LCFI17:
 1280              		.cfi_def_cfa_offset 32
 1281 0006 8046     		mov	r8, r0
 1282 0008 0E46     		mov	r6, r1
 1283 000a 1746     		mov	r7, r2
 1284 000c 1D46     		mov	r5, r3
 114:u8g2/csrc/u8g2_circle.c ****       return;
 1285              		.loc 1 114 0
 1286 000e CB18     		adds	r3, r1, r3
 1287              	.LVL209:
 1288 0010 DBB2     		uxtb	r3, r3
 1289 0012 AC18     		adds	r4, r5, r2
 1290 0014 E4B2     		uxtb	r4, r4
 1291 0016 0133     		adds	r3, r3, #1
 1292 0018 521B     		subs	r2, r2, r5
 1293              	.LVL210:
 1294 001a 491B     		subs	r1, r1, r5
 1295              	.LVL211:
 1296 001c 0134     		adds	r4, r4, #1
 1297 001e E4B2     		uxtb	r4, r4
 1298 0020 0094     		str	r4, [sp]
 1299 0022 DBB2     		uxtb	r3, r3
 1300 0024 D2B2     		uxtb	r2, r2
 1301 0026 C9B2     		uxtb	r1, r1
 1302 0028 FFF7FEFF 		bl	u8g2_IsIntersection
 1303              	.LVL212:
 1304 002c 10B9     		cbnz	r0, .L76
 1305              	.L73:
 122:u8g2/csrc/u8g2_circle.c **** 
 1306              		.loc 1 122 0
 1307 002e 02B0     		add	sp, sp, #8
 1308              	.LCFI18:
 1309              		.cfi_remember_state
ARM GAS  /var/folders/rk/zpr83dd14lx588t7kb0yv2b40000gn/T//ccOjqNH9.s 			page 33


 1310              		.cfi_def_cfa_offset 24
 1311              		@ sp needed
 1312 0030 BDE8F081 		pop	{r4, r5, r6, r7, r8, pc}
 1313              	.LVL213:
 1314              	.L76:
 1315              	.LCFI19:
 1316              		.cfi_restore_state
 121:u8g2/csrc/u8g2_circle.c **** }
 1317              		.loc 1 121 0
 1318 0034 9DF82030 		ldrb	r3, [sp, #32]	@ zero_extendqisi2
 1319 0038 0093     		str	r3, [sp]
 1320 003a 2B46     		mov	r3, r5
 1321 003c 3A46     		mov	r2, r7
 1322 003e 3146     		mov	r1, r6
 1323 0040 4046     		mov	r0, r8
 1324 0042 FFF7FEFF 		bl	u8g2_draw_circle
 1325              	.LVL214:
 1326 0046 F2E7     		b	.L73
 1327              		.cfi_endproc
 1328              	.LFE2:
 1330              		.section	.text.u8g2_DrawDisc,"ax",%progbits
 1331              		.align	1
 1332              		.global	u8g2_DrawDisc
 1333              		.syntax unified
 1334              		.thumb
 1335              		.thumb_func
 1336              		.fpu softvfp
 1338              	u8g2_DrawDisc:
 1339              	.LFB5:
 196:u8g2/csrc/u8g2_circle.c ****   /* check for bounding box */
 1340              		.loc 1 196 0
 1341              		.cfi_startproc
 1342              		@ args = 4, pretend = 0, frame = 0
 1343              		@ frame_needed = 0, uses_anonymous_args = 0
 1344              	.LVL215:
 1345 0000 2DE9F041 		push	{r4, r5, r6, r7, r8, lr}
 1346              	.LCFI20:
 1347              		.cfi_def_cfa_offset 24
 1348              		.cfi_offset 4, -24
 1349              		.cfi_offset 5, -20
 1350              		.cfi_offset 6, -16
 1351              		.cfi_offset 7, -12
 1352              		.cfi_offset 8, -8
 1353              		.cfi_offset 14, -4
 1354 0004 82B0     		sub	sp, sp, #8
 1355              	.LCFI21:
 1356              		.cfi_def_cfa_offset 32
 1357 0006 8046     		mov	r8, r0
 1358 0008 0E46     		mov	r6, r1
 1359 000a 1746     		mov	r7, r2
 1360 000c 1D46     		mov	r5, r3
 200:u8g2/csrc/u8g2_circle.c ****       return;
 1361              		.loc 1 200 0
 1362 000e CB18     		adds	r3, r1, r3
 1363              	.LVL216:
 1364 0010 DBB2     		uxtb	r3, r3
 1365 0012 AC18     		adds	r4, r5, r2
ARM GAS  /var/folders/rk/zpr83dd14lx588t7kb0yv2b40000gn/T//ccOjqNH9.s 			page 34


 1366 0014 E4B2     		uxtb	r4, r4
 1367 0016 0133     		adds	r3, r3, #1
 1368 0018 521B     		subs	r2, r2, r5
 1369              	.LVL217:
 1370 001a 491B     		subs	r1, r1, r5
 1371              	.LVL218:
 1372 001c 0134     		adds	r4, r4, #1
 1373 001e E4B2     		uxtb	r4, r4
 1374 0020 0094     		str	r4, [sp]
 1375 0022 DBB2     		uxtb	r3, r3
 1376 0024 D2B2     		uxtb	r2, r2
 1377 0026 C9B2     		uxtb	r1, r1
 1378 0028 FFF7FEFF 		bl	u8g2_IsIntersection
 1379              	.LVL219:
 1380 002c 10B9     		cbnz	r0, .L80
 1381              	.L77:
 207:u8g2/csrc/u8g2_circle.c **** 
 1382              		.loc 1 207 0
 1383 002e 02B0     		add	sp, sp, #8
 1384              	.LCFI22:
 1385              		.cfi_remember_state
 1386              		.cfi_def_cfa_offset 24
 1387              		@ sp needed
 1388 0030 BDE8F081 		pop	{r4, r5, r6, r7, r8, pc}
 1389              	.LVL220:
 1390              	.L80:
 1391              	.LCFI23:
 1392              		.cfi_restore_state
 206:u8g2/csrc/u8g2_circle.c **** }
 1393              		.loc 1 206 0
 1394 0034 9DF82030 		ldrb	r3, [sp, #32]	@ zero_extendqisi2
 1395 0038 0093     		str	r3, [sp]
 1396 003a 2B46     		mov	r3, r5
 1397 003c 3A46     		mov	r2, r7
 1398 003e 3146     		mov	r1, r6
 1399 0040 4046     		mov	r0, r8
 1400 0042 FFF7FEFF 		bl	u8g2_draw_disc
 1401              	.LVL221:
 1402 0046 F2E7     		b	.L77
 1403              		.cfi_endproc
 1404              	.LFE5:
 1406              		.section	.text.u8g2_DrawEllipse,"ax",%progbits
 1407              		.align	1
 1408              		.global	u8g2_DrawEllipse
 1409              		.syntax unified
 1410              		.thumb
 1411              		.thumb_func
 1412              		.fpu softvfp
 1414              	u8g2_DrawEllipse:
 1415              	.LFB8:
 334:u8g2/csrc/u8g2_circle.c ****   /* check for bounding box */
 1416              		.loc 1 334 0
 1417              		.cfi_startproc
 1418              		@ args = 8, pretend = 0, frame = 0
 1419              		@ frame_needed = 0, uses_anonymous_args = 0
 1420              	.LVL222:
 1421 0000 2DE9F043 		push	{r4, r5, r6, r7, r8, r9, lr}
ARM GAS  /var/folders/rk/zpr83dd14lx588t7kb0yv2b40000gn/T//ccOjqNH9.s 			page 35


 1422              	.LCFI24:
 1423              		.cfi_def_cfa_offset 28
 1424              		.cfi_offset 4, -28
 1425              		.cfi_offset 5, -24
 1426              		.cfi_offset 6, -20
 1427              		.cfi_offset 7, -16
 1428              		.cfi_offset 8, -12
 1429              		.cfi_offset 9, -8
 1430              		.cfi_offset 14, -4
 1431 0004 83B0     		sub	sp, sp, #12
 1432              	.LCFI25:
 1433              		.cfi_def_cfa_offset 40
 1434 0006 8146     		mov	r9, r0
 1435 0008 0D46     		mov	r5, r1
 1436 000a 1646     		mov	r6, r2
 1437 000c 1F46     		mov	r7, r3
 1438 000e 9DF82880 		ldrb	r8, [sp, #40]	@ zero_extendqisi2
 338:u8g2/csrc/u8g2_circle.c ****       return;
 1439              		.loc 1 338 0
 1440 0012 CB18     		adds	r3, r1, r3
 1441              	.LVL223:
 1442 0014 DBB2     		uxtb	r3, r3
 1443 0016 02EB0804 		add	r4, r2, r8
 1444 001a E4B2     		uxtb	r4, r4
 1445 001c 0133     		adds	r3, r3, #1
 1446 001e A2EB0802 		sub	r2, r2, r8
 1447              	.LVL224:
 1448 0022 C91B     		subs	r1, r1, r7
 1449              	.LVL225:
 1450 0024 0134     		adds	r4, r4, #1
 1451 0026 E4B2     		uxtb	r4, r4
 1452 0028 0094     		str	r4, [sp]
 1453 002a DBB2     		uxtb	r3, r3
 1454 002c D2B2     		uxtb	r2, r2
 1455 002e C9B2     		uxtb	r1, r1
 1456 0030 FFF7FEFF 		bl	u8g2_IsIntersection
 1457              	.LVL226:
 1458 0034 10B9     		cbnz	r0, .L84
 1459              	.L81:
 344:u8g2/csrc/u8g2_circle.c **** 
 1460              		.loc 1 344 0
 1461 0036 03B0     		add	sp, sp, #12
 1462              	.LCFI26:
 1463              		.cfi_remember_state
 1464              		.cfi_def_cfa_offset 28
 1465              		@ sp needed
 1466 0038 BDE8F083 		pop	{r4, r5, r6, r7, r8, r9, pc}
 1467              	.LVL227:
 1468              	.L84:
 1469              	.LCFI27:
 1470              		.cfi_restore_state
 343:u8g2/csrc/u8g2_circle.c **** }
 1471              		.loc 1 343 0
 1472 003c 9DF82C30 		ldrb	r3, [sp, #44]	@ zero_extendqisi2
 1473 0040 0193     		str	r3, [sp, #4]
 1474 0042 CDF80080 		str	r8, [sp]
 1475 0046 3B46     		mov	r3, r7
ARM GAS  /var/folders/rk/zpr83dd14lx588t7kb0yv2b40000gn/T//ccOjqNH9.s 			page 36


 1476 0048 3246     		mov	r2, r6
 1477 004a 2946     		mov	r1, r5
 1478 004c 4846     		mov	r0, r9
 1479 004e FFF7FEFF 		bl	u8g2_draw_ellipse
 1480              	.LVL228:
 1481 0052 F0E7     		b	.L81
 1482              		.cfi_endproc
 1483              	.LFE8:
 1485              		.section	.text.u8g2_DrawFilledEllipse,"ax",%progbits
 1486              		.align	1
 1487              		.global	u8g2_DrawFilledEllipse
 1488              		.syntax unified
 1489              		.thumb
 1490              		.thumb_func
 1491              		.fpu softvfp
 1493              	u8g2_DrawFilledEllipse:
 1494              	.LFB11:
 465:u8g2/csrc/u8g2_circle.c **** 
 466:u8g2/csrc/u8g2_circle.c **** void u8g2_DrawFilledEllipse(u8g2_t *u8g2, u8g2_uint_t x0, u8g2_uint_t y0, u8g2_uint_t rx, u8g2_uint
 467:u8g2/csrc/u8g2_circle.c **** {
 1495              		.loc 1 467 0
 1496              		.cfi_startproc
 1497              		@ args = 8, pretend = 0, frame = 0
 1498              		@ frame_needed = 0, uses_anonymous_args = 0
 1499              	.LVL229:
 1500 0000 2DE9F043 		push	{r4, r5, r6, r7, r8, r9, lr}
 1501              	.LCFI28:
 1502              		.cfi_def_cfa_offset 28
 1503              		.cfi_offset 4, -28
 1504              		.cfi_offset 5, -24
 1505              		.cfi_offset 6, -20
 1506              		.cfi_offset 7, -16
 1507              		.cfi_offset 8, -12
 1508              		.cfi_offset 9, -8
 1509              		.cfi_offset 14, -4
 1510 0004 83B0     		sub	sp, sp, #12
 1511              	.LCFI29:
 1512              		.cfi_def_cfa_offset 40
 1513 0006 8146     		mov	r9, r0
 1514 0008 0D46     		mov	r5, r1
 1515 000a 1646     		mov	r6, r2
 1516 000c 1F46     		mov	r7, r3
 1517 000e 9DF82880 		ldrb	r8, [sp, #40]	@ zero_extendqisi2
 468:u8g2/csrc/u8g2_circle.c ****   /* check for bounding box */
 469:u8g2/csrc/u8g2_circle.c **** #ifdef U8G2_WITH_INTERSECTION
 470:u8g2/csrc/u8g2_circle.c ****   {
 471:u8g2/csrc/u8g2_circle.c ****     if ( u8g2_IsIntersection(u8g2, x0-rx, y0-ry, x0+rx+1, y0+ry+1) == 0 ) 
 1518              		.loc 1 471 0
 1519 0012 CB18     		adds	r3, r1, r3
 1520              	.LVL230:
 1521 0014 DBB2     		uxtb	r3, r3
 1522 0016 02EB0804 		add	r4, r2, r8
 1523 001a E4B2     		uxtb	r4, r4
 1524 001c 0133     		adds	r3, r3, #1
 1525 001e A2EB0802 		sub	r2, r2, r8
 1526              	.LVL231:
 1527 0022 C91B     		subs	r1, r1, r7
ARM GAS  /var/folders/rk/zpr83dd14lx588t7kb0yv2b40000gn/T//ccOjqNH9.s 			page 37


 1528              	.LVL232:
 1529 0024 0134     		adds	r4, r4, #1
 1530 0026 E4B2     		uxtb	r4, r4
 1531 0028 0094     		str	r4, [sp]
 1532 002a DBB2     		uxtb	r3, r3
 1533 002c D2B2     		uxtb	r2, r2
 1534 002e C9B2     		uxtb	r1, r1
 1535 0030 FFF7FEFF 		bl	u8g2_IsIntersection
 1536              	.LVL233:
 1537 0034 10B9     		cbnz	r0, .L88
 1538              	.L85:
 472:u8g2/csrc/u8g2_circle.c ****       return;
 473:u8g2/csrc/u8g2_circle.c ****   }
 474:u8g2/csrc/u8g2_circle.c **** #endif /* U8G2_WITH_INTERSECTION */
 475:u8g2/csrc/u8g2_circle.c ****   
 476:u8g2/csrc/u8g2_circle.c ****   u8g2_draw_filled_ellipse(u8g2, x0, y0, rx, ry, option);
 477:u8g2/csrc/u8g2_circle.c **** }
 1539              		.loc 1 477 0
 1540 0036 03B0     		add	sp, sp, #12
 1541              	.LCFI30:
 1542              		.cfi_remember_state
 1543              		.cfi_def_cfa_offset 28
 1544              		@ sp needed
 1545 0038 BDE8F083 		pop	{r4, r5, r6, r7, r8, r9, pc}
 1546              	.LVL234:
 1547              	.L88:
 1548              	.LCFI31:
 1549              		.cfi_restore_state
 476:u8g2/csrc/u8g2_circle.c **** }
 1550              		.loc 1 476 0
 1551 003c 9DF82C30 		ldrb	r3, [sp, #44]	@ zero_extendqisi2
 1552 0040 0193     		str	r3, [sp, #4]
 1553 0042 CDF80080 		str	r8, [sp]
 1554 0046 3B46     		mov	r3, r7
 1555 0048 3246     		mov	r2, r6
 1556 004a 2946     		mov	r1, r5
 1557 004c 4846     		mov	r0, r9
 1558 004e FFF7FEFF 		bl	u8g2_draw_filled_ellipse
 1559              	.LVL235:
 1560 0052 F0E7     		b	.L85
 1561              		.cfi_endproc
 1562              	.LFE11:
 1564              		.text
 1565              	.Letext0:
 1566              		.file 2 "/usr/local/gcc_arm/gcc-arm-none-eabi-7-2017-q4-major/arm-none-eabi/include/machine/_defau
 1567              		.file 3 "/usr/local/gcc_arm/gcc-arm-none-eabi-7-2017-q4-major/arm-none-eabi/include/sys/_stdint.h"
 1568              		.file 4 "u8g2/csrc/u8x8.h"
 1569              		.file 5 "u8g2/csrc/u8g2.h"
ARM GAS  /var/folders/rk/zpr83dd14lx588t7kb0yv2b40000gn/T//ccOjqNH9.s 			page 38

