ARM GAS  C:\Users\behun\AppData\Local\Temp\ccJYdqSA.s 			page 1


   1              		.cpu cortex-m3
   2              		.eabi_attribute 20, 1
   3              		.eabi_attribute 21, 1
   4              		.eabi_attribute 23, 3
   5              		.eabi_attribute 24, 1
   6              		.eabi_attribute 25, 1
   7              		.eabi_attribute 26, 1
   8              		.eabi_attribute 30, 1
   9              		.eabi_attribute 34, 1
  10              		.eabi_attribute 18, 4
  11              		.file	"u8g2_buffer.c"
  12              		.text
  13              	.Ltext0:
  14              		.cfi_sections	.debug_frame
  15              		.section	.text.u8g2_send_tile_row,"ax",%progbits
  16              		.align	1
  17              		.arch armv7-m
  18              		.syntax unified
  19              		.thumb
  20              		.thumb_func
  21              		.fpu softvfp
  23              	u8g2_send_tile_row:
  24              	.LVL0:
  25              	.LFB1:
  26              		.file 1 "u8g2/csrc/u8g2_buffer.c"
   1:u8g2/csrc/u8g2_buffer.c **** /* 
   2:u8g2/csrc/u8g2_buffer.c **** 
   3:u8g2/csrc/u8g2_buffer.c ****   u8g2_buffer.c 
   4:u8g2/csrc/u8g2_buffer.c **** 
   5:u8g2/csrc/u8g2_buffer.c ****   Universal 8bit Graphics Library (https://github.com/olikraus/u8g2/)
   6:u8g2/csrc/u8g2_buffer.c **** 
   7:u8g2/csrc/u8g2_buffer.c ****   Copyright (c) 2016, olikraus@gmail.com
   8:u8g2/csrc/u8g2_buffer.c ****   All rights reserved.
   9:u8g2/csrc/u8g2_buffer.c **** 
  10:u8g2/csrc/u8g2_buffer.c ****   Redistribution and use in source and binary forms, with or without modification, 
  11:u8g2/csrc/u8g2_buffer.c ****   are permitted provided that the following conditions are met:
  12:u8g2/csrc/u8g2_buffer.c **** 
  13:u8g2/csrc/u8g2_buffer.c ****   * Redistributions of source code must retain the above copyright notice, this list 
  14:u8g2/csrc/u8g2_buffer.c ****     of conditions and the following disclaimer.
  15:u8g2/csrc/u8g2_buffer.c ****     
  16:u8g2/csrc/u8g2_buffer.c ****   * Redistributions in binary form must reproduce the above copyright notice, this 
  17:u8g2/csrc/u8g2_buffer.c ****     list of conditions and the following disclaimer in the documentation and/or other 
  18:u8g2/csrc/u8g2_buffer.c ****     materials provided with the distribution.
  19:u8g2/csrc/u8g2_buffer.c **** 
  20:u8g2/csrc/u8g2_buffer.c ****   THIS SOFTWARE IS PROVIDED BY THE COPYRIGHT HOLDERS AND 
  21:u8g2/csrc/u8g2_buffer.c ****   CONTRIBUTORS "AS IS" AND ANY EXPRESS OR IMPLIED WARRANTIES, 
  22:u8g2/csrc/u8g2_buffer.c ****   INCLUDING, BUT NOT LIMITED TO, THE IMPLIED WARRANTIES OF 
  23:u8g2/csrc/u8g2_buffer.c ****   MERCHANTABILITY AND FITNESS FOR A PARTICULAR PURPOSE ARE 
  24:u8g2/csrc/u8g2_buffer.c ****   DISCLAIMED. IN NO EVENT SHALL THE COPYRIGHT HOLDER OR 
  25:u8g2/csrc/u8g2_buffer.c ****   CONTRIBUTORS BE LIABLE FOR ANY DIRECT, INDIRECT, INCIDENTAL, 
  26:u8g2/csrc/u8g2_buffer.c ****   SPECIAL, EXEMPLARY, OR CONSEQUENTIAL DAMAGES (INCLUDING, BUT 
  27:u8g2/csrc/u8g2_buffer.c ****   NOT LIMITED TO, PROCUREMENT OF SUBSTITUTE GOODS OR SERVICES; 
  28:u8g2/csrc/u8g2_buffer.c ****   LOSS OF USE, DATA, OR PROFITS; OR BUSINESS INTERRUPTION) HOWEVER 
  29:u8g2/csrc/u8g2_buffer.c ****   CAUSED AND ON ANY THEORY OF LIABILITY, WHETHER IN CONTRACT, 
  30:u8g2/csrc/u8g2_buffer.c ****   STRICT LIABILITY, OR TORT (INCLUDING NEGLIGENCE OR OTHERWISE) 
  31:u8g2/csrc/u8g2_buffer.c ****   ARISING IN ANY WAY OUT OF THE USE OF THIS SOFTWARE, EVEN IF 
  32:u8g2/csrc/u8g2_buffer.c ****   ADVISED OF THE POSSIBILITY OF SUCH DAMAGE.  
ARM GAS  C:\Users\behun\AppData\Local\Temp\ccJYdqSA.s 			page 2


  33:u8g2/csrc/u8g2_buffer.c **** 
  34:u8g2/csrc/u8g2_buffer.c **** */
  35:u8g2/csrc/u8g2_buffer.c **** 
  36:u8g2/csrc/u8g2_buffer.c **** #include "u8g2.h"
  37:u8g2/csrc/u8g2_buffer.c **** #include <string.h>
  38:u8g2/csrc/u8g2_buffer.c **** 
  39:u8g2/csrc/u8g2_buffer.c **** /*============================================*/
  40:u8g2/csrc/u8g2_buffer.c **** void u8g2_ClearBuffer(u8g2_t *u8g2)
  41:u8g2/csrc/u8g2_buffer.c **** {
  42:u8g2/csrc/u8g2_buffer.c ****   size_t cnt;
  43:u8g2/csrc/u8g2_buffer.c ****   cnt = u8g2_GetU8x8(u8g2)->display_info->tile_width;
  44:u8g2/csrc/u8g2_buffer.c ****   cnt *= u8g2->tile_buf_height;
  45:u8g2/csrc/u8g2_buffer.c ****   cnt *= 8;
  46:u8g2/csrc/u8g2_buffer.c ****   memset(u8g2->tile_buf_ptr, 0, cnt);
  47:u8g2/csrc/u8g2_buffer.c **** }
  48:u8g2/csrc/u8g2_buffer.c **** 
  49:u8g2/csrc/u8g2_buffer.c **** /*============================================*/
  50:u8g2/csrc/u8g2_buffer.c **** 
  51:u8g2/csrc/u8g2_buffer.c **** static void u8g2_send_tile_row(u8g2_t *u8g2, uint8_t src_tile_row, uint8_t dest_tile_row)
  52:u8g2/csrc/u8g2_buffer.c **** {
  27              		.loc 1 52 1 view -0
  28              		.cfi_startproc
  29              		@ args = 0, pretend = 0, frame = 0
  30              		@ frame_needed = 0, uses_anonymous_args = 0
  31              		.loc 1 52 1 is_stmt 0 view .LVU1
  32 0000 10B5     		push	{r4, lr}
  33              	.LCFI0:
  34              		.cfi_def_cfa_offset 8
  35              		.cfi_offset 4, -8
  36              		.cfi_offset 14, -4
  37 0002 82B0     		sub	sp, sp, #8
  38              	.LCFI1:
  39              		.cfi_def_cfa_offset 16
  53:u8g2/csrc/u8g2_buffer.c ****   uint8_t *ptr;
  40              		.loc 1 53 3 is_stmt 1 view .LVU2
  54:u8g2/csrc/u8g2_buffer.c ****   uint16_t offset;
  41              		.loc 1 54 3 view .LVU3
  55:u8g2/csrc/u8g2_buffer.c ****   uint8_t w;
  42              		.loc 1 55 3 view .LVU4
  56:u8g2/csrc/u8g2_buffer.c ****   
  57:u8g2/csrc/u8g2_buffer.c ****   w = u8g2_GetU8x8(u8g2)->display_info->tile_width;
  43              		.loc 1 57 3 view .LVU5
  44              		.loc 1 57 25 is_stmt 0 view .LVU6
  45 0004 0368     		ldr	r3, [r0]
  46              		.loc 1 57 5 view .LVU7
  47 0006 1B7C     		ldrb	r3, [r3, #16]	@ zero_extendqisi2
  48              	.LVL1:
  58:u8g2/csrc/u8g2_buffer.c ****   offset = src_tile_row;
  49              		.loc 1 58 3 is_stmt 1 view .LVU8
  59:u8g2/csrc/u8g2_buffer.c ****   ptr = u8g2->tile_buf_ptr;
  50              		.loc 1 59 3 view .LVU9
  51              		.loc 1 59 7 is_stmt 0 view .LVU10
  52 0008 446B     		ldr	r4, [r0, #52]
  53              	.LVL2:
  60:u8g2/csrc/u8g2_buffer.c ****   offset *= w;
  54              		.loc 1 60 3 is_stmt 1 view .LVU11
  55              		.loc 1 60 10 is_stmt 0 view .LVU12
ARM GAS  C:\Users\behun\AppData\Local\Temp\ccJYdqSA.s 			page 3


  56 000a 03FB01F1 		mul	r1, r3, r1
  57              	.LVL3:
  61:u8g2/csrc/u8g2_buffer.c ****   offset *= 8;
  58              		.loc 1 61 3 is_stmt 1 view .LVU13
  59              		.loc 1 61 10 is_stmt 0 view .LVU14
  60 000e C900     		lsls	r1, r1, #3
  61              	.LVL4:
  62              		.loc 1 61 10 view .LVU15
  63 0010 89B2     		uxth	r1, r1
  64              	.LVL5:
  62:u8g2/csrc/u8g2_buffer.c ****   ptr += offset;
  65              		.loc 1 62 3 is_stmt 1 view .LVU16
  66              		.loc 1 62 7 is_stmt 0 view .LVU17
  67 0012 2144     		add	r1, r1, r4
  68              	.LVL6:
  63:u8g2/csrc/u8g2_buffer.c ****   u8x8_DrawTile(u8g2_GetU8x8(u8g2), 0, dest_tile_row, w, ptr);
  69              		.loc 1 63 3 is_stmt 1 view .LVU18
  70 0014 0091     		str	r1, [sp]
  71 0016 0021     		movs	r1, #0
  72              	.LVL7:
  73              		.loc 1 63 3 is_stmt 0 view .LVU19
  74 0018 FFF7FEFF 		bl	u8x8_DrawTile
  75              	.LVL8:
  64:u8g2/csrc/u8g2_buffer.c **** }
  76              		.loc 1 64 1 view .LVU20
  77 001c 02B0     		add	sp, sp, #8
  78              	.LCFI2:
  79              		.cfi_def_cfa_offset 8
  80              		@ sp needed
  81 001e 10BD     		pop	{r4, pc}
  82              		.cfi_endproc
  83              	.LFE1:
  85              		.section	.text.u8g2_send_buffer,"ax",%progbits
  86              		.align	1
  87              		.syntax unified
  88              		.thumb
  89              		.thumb_func
  90              		.fpu softvfp
  92              	u8g2_send_buffer:
  93              	.LVL9:
  94              	.LFB2:
  65:u8g2/csrc/u8g2_buffer.c **** 
  66:u8g2/csrc/u8g2_buffer.c **** /* 
  67:u8g2/csrc/u8g2_buffer.c ****   write the buffer to the display RAM. 
  68:u8g2/csrc/u8g2_buffer.c ****   For most displays, this will make the content visible to the user.
  69:u8g2/csrc/u8g2_buffer.c ****   Some displays (like the SSD1606) require a u8x8_RefreshDisplay()
  70:u8g2/csrc/u8g2_buffer.c **** */
  71:u8g2/csrc/u8g2_buffer.c **** static void u8g2_send_buffer(u8g2_t *u8g2) U8X8_NOINLINE;
  72:u8g2/csrc/u8g2_buffer.c **** static void u8g2_send_buffer(u8g2_t *u8g2)
  73:u8g2/csrc/u8g2_buffer.c **** {
  95              		.loc 1 73 1 is_stmt 1 view -0
  96              		.cfi_startproc
  97              		@ args = 0, pretend = 0, frame = 0
  98              		@ frame_needed = 0, uses_anonymous_args = 0
  99              		.loc 1 73 1 is_stmt 0 view .LVU22
 100 0000 2DE9F041 		push	{r4, r5, r6, r7, r8, lr}
 101              	.LCFI3:
ARM GAS  C:\Users\behun\AppData\Local\Temp\ccJYdqSA.s 			page 4


 102              		.cfi_def_cfa_offset 24
 103              		.cfi_offset 4, -24
 104              		.cfi_offset 5, -20
 105              		.cfi_offset 6, -16
 106              		.cfi_offset 7, -12
 107              		.cfi_offset 8, -8
 108              		.cfi_offset 14, -4
 109 0004 0646     		mov	r6, r0
  74:u8g2/csrc/u8g2_buffer.c ****   uint8_t src_row;
 110              		.loc 1 74 3 is_stmt 1 view .LVU23
  75:u8g2/csrc/u8g2_buffer.c ****   uint8_t src_max;
 111              		.loc 1 75 3 view .LVU24
  76:u8g2/csrc/u8g2_buffer.c ****   uint8_t dest_row;
 112              		.loc 1 76 3 view .LVU25
  77:u8g2/csrc/u8g2_buffer.c ****   uint8_t dest_max;
 113              		.loc 1 77 3 view .LVU26
  78:u8g2/csrc/u8g2_buffer.c **** 
  79:u8g2/csrc/u8g2_buffer.c ****   src_row = 0;
 114              		.loc 1 79 3 view .LVU27
 115              	.LVL10:
  80:u8g2/csrc/u8g2_buffer.c ****   src_max = u8g2->tile_buf_height;
 116              		.loc 1 80 3 view .LVU28
 117              		.loc 1 80 11 is_stmt 0 view .LVU29
 118 0006 90F83870 		ldrb	r7, [r0, #56]	@ zero_extendqisi2
 119              	.LVL11:
  81:u8g2/csrc/u8g2_buffer.c ****   dest_row = u8g2->tile_curr_row;
 120              		.loc 1 81 3 is_stmt 1 view .LVU30
 121              		.loc 1 81 12 is_stmt 0 view .LVU31
 122 000a 90F83950 		ldrb	r5, [r0, #57]	@ zero_extendqisi2
 123              	.LVL12:
  82:u8g2/csrc/u8g2_buffer.c ****   dest_max = u8g2_GetU8x8(u8g2)->display_info->tile_height;
 124              		.loc 1 82 3 is_stmt 1 view .LVU32
 125              		.loc 1 82 32 is_stmt 0 view .LVU33
 126 000e 0368     		ldr	r3, [r0]
 127              		.loc 1 82 12 view .LVU34
 128 0010 93F81180 		ldrb	r8, [r3, #17]	@ zero_extendqisi2
 129              	.LVL13:
  79:u8g2/csrc/u8g2_buffer.c ****   src_max = u8g2->tile_buf_height;
 130              		.loc 1 79 11 view .LVU35
 131 0014 0024     		movs	r4, #0
 132              	.LVL14:
 133              	.L5:
  83:u8g2/csrc/u8g2_buffer.c ****   
  84:u8g2/csrc/u8g2_buffer.c ****   do
 134              		.loc 1 84 3 is_stmt 1 discriminator 2 view .LVU36
  85:u8g2/csrc/u8g2_buffer.c ****   {
  86:u8g2/csrc/u8g2_buffer.c ****     u8g2_send_tile_row(u8g2, src_row, dest_row);
 135              		.loc 1 86 5 discriminator 2 view .LVU37
 136 0016 2A46     		mov	r2, r5
 137 0018 2146     		mov	r1, r4
 138 001a 3046     		mov	r0, r6
 139 001c FFF7FEFF 		bl	u8g2_send_tile_row
 140              	.LVL15:
  87:u8g2/csrc/u8g2_buffer.c ****     src_row++;
 141              		.loc 1 87 5 discriminator 2 view .LVU38
 142              		.loc 1 87 12 is_stmt 0 discriminator 2 view .LVU39
 143 0020 0134     		adds	r4, r4, #1
ARM GAS  C:\Users\behun\AppData\Local\Temp\ccJYdqSA.s 			page 5


 144              	.LVL16:
 145              		.loc 1 87 12 discriminator 2 view .LVU40
 146 0022 E4B2     		uxtb	r4, r4
 147              	.LVL17:
  88:u8g2/csrc/u8g2_buffer.c ****     dest_row++;
 148              		.loc 1 88 5 is_stmt 1 discriminator 2 view .LVU41
 149              		.loc 1 88 13 is_stmt 0 discriminator 2 view .LVU42
 150 0024 0135     		adds	r5, r5, #1
 151              	.LVL18:
 152              		.loc 1 88 13 discriminator 2 view .LVU43
 153 0026 EDB2     		uxtb	r5, r5
 154              	.LVL19:
  89:u8g2/csrc/u8g2_buffer.c ****   } while( src_row < src_max && dest_row < dest_max );
 155              		.loc 1 89 3 discriminator 2 view .LVU44
 156 0028 A742     		cmp	r7, r4
 157 002a 01D9     		bls	.L3
 158              		.loc 1 89 30 discriminator 1 view .LVU45
 159 002c A845     		cmp	r8, r5
 160 002e F2D8     		bhi	.L5
 161              	.L3:
  90:u8g2/csrc/u8g2_buffer.c **** }
 162              		.loc 1 90 1 view .LVU46
 163 0030 BDE8F081 		pop	{r4, r5, r6, r7, r8, pc}
 164              		.loc 1 90 1 view .LVU47
 165              		.cfi_endproc
 166              	.LFE2:
 168              		.section	.text.u8g2_ClearBuffer,"ax",%progbits
 169              		.align	1
 170              		.global	u8g2_ClearBuffer
 171              		.syntax unified
 172              		.thumb
 173              		.thumb_func
 174              		.fpu softvfp
 176              	u8g2_ClearBuffer:
 177              	.LVL20:
 178              	.LFB0:
  41:u8g2/csrc/u8g2_buffer.c ****   size_t cnt;
 179              		.loc 1 41 1 is_stmt 1 view -0
 180              		.cfi_startproc
 181              		@ args = 0, pretend = 0, frame = 0
 182              		@ frame_needed = 0, uses_anonymous_args = 0
  41:u8g2/csrc/u8g2_buffer.c ****   size_t cnt;
 183              		.loc 1 41 1 is_stmt 0 view .LVU49
 184 0000 08B5     		push	{r3, lr}
 185              	.LCFI4:
 186              		.cfi_def_cfa_offset 8
 187              		.cfi_offset 3, -8
 188              		.cfi_offset 14, -4
  42:u8g2/csrc/u8g2_buffer.c ****   cnt = u8g2_GetU8x8(u8g2)->display_info->tile_width;
 189              		.loc 1 42 3 is_stmt 1 view .LVU50
  43:u8g2/csrc/u8g2_buffer.c ****   cnt *= u8g2->tile_buf_height;
 190              		.loc 1 43 3 view .LVU51
  43:u8g2/csrc/u8g2_buffer.c ****   cnt *= u8g2->tile_buf_height;
 191              		.loc 1 43 27 is_stmt 0 view .LVU52
 192 0002 0368     		ldr	r3, [r0]
  43:u8g2/csrc/u8g2_buffer.c ****   cnt *= u8g2->tile_buf_height;
 193              		.loc 1 43 41 view .LVU53
ARM GAS  C:\Users\behun\AppData\Local\Temp\ccJYdqSA.s 			page 6


 194 0004 1A7C     		ldrb	r2, [r3, #16]	@ zero_extendqisi2
 195              	.LVL21:
  44:u8g2/csrc/u8g2_buffer.c ****   cnt *= 8;
 196              		.loc 1 44 3 is_stmt 1 view .LVU54
  44:u8g2/csrc/u8g2_buffer.c ****   cnt *= 8;
 197              		.loc 1 44 14 is_stmt 0 view .LVU55
 198 0006 90F83830 		ldrb	r3, [r0, #56]	@ zero_extendqisi2
  44:u8g2/csrc/u8g2_buffer.c ****   cnt *= 8;
 199              		.loc 1 44 7 view .LVU56
 200 000a 02FB03F2 		mul	r2, r2, r3
 201              	.LVL22:
  45:u8g2/csrc/u8g2_buffer.c ****   memset(u8g2->tile_buf_ptr, 0, cnt);
 202              		.loc 1 45 3 is_stmt 1 view .LVU57
  46:u8g2/csrc/u8g2_buffer.c **** }
 203              		.loc 1 46 3 view .LVU58
 204 000e D200     		lsls	r2, r2, #3
 205              	.LVL23:
  46:u8g2/csrc/u8g2_buffer.c **** }
 206              		.loc 1 46 3 is_stmt 0 view .LVU59
 207 0010 0021     		movs	r1, #0
 208 0012 406B     		ldr	r0, [r0, #52]
 209              	.LVL24:
  46:u8g2/csrc/u8g2_buffer.c **** }
 210              		.loc 1 46 3 view .LVU60
 211 0014 FFF7FEFF 		bl	memset
 212              	.LVL25:
  47:u8g2/csrc/u8g2_buffer.c **** 
 213              		.loc 1 47 1 view .LVU61
 214 0018 08BD     		pop	{r3, pc}
 215              		.cfi_endproc
 216              	.LFE0:
 218              		.section	.text.u8g2_SendBuffer,"ax",%progbits
 219              		.align	1
 220              		.global	u8g2_SendBuffer
 221              		.syntax unified
 222              		.thumb
 223              		.thumb_func
 224              		.fpu softvfp
 226              	u8g2_SendBuffer:
 227              	.LVL26:
 228              	.LFB3:
  91:u8g2/csrc/u8g2_buffer.c **** 
  92:u8g2/csrc/u8g2_buffer.c **** /* same as u8g2_send_buffer but also send the DISPLAY_REFRESH message (used by SSD1606) */
  93:u8g2/csrc/u8g2_buffer.c **** void u8g2_SendBuffer(u8g2_t *u8g2)
  94:u8g2/csrc/u8g2_buffer.c **** {
 229              		.loc 1 94 1 is_stmt 1 view -0
 230              		.cfi_startproc
 231              		@ args = 0, pretend = 0, frame = 0
 232              		@ frame_needed = 0, uses_anonymous_args = 0
 233              		.loc 1 94 1 is_stmt 0 view .LVU63
 234 0000 10B5     		push	{r4, lr}
 235              	.LCFI5:
 236              		.cfi_def_cfa_offset 8
 237              		.cfi_offset 4, -8
 238              		.cfi_offset 14, -4
 239 0002 0446     		mov	r4, r0
  95:u8g2/csrc/u8g2_buffer.c ****   u8g2_send_buffer(u8g2);
ARM GAS  C:\Users\behun\AppData\Local\Temp\ccJYdqSA.s 			page 7


 240              		.loc 1 95 3 is_stmt 1 view .LVU64
 241 0004 FFF7FEFF 		bl	u8g2_send_buffer
 242              	.LVL27:
  96:u8g2/csrc/u8g2_buffer.c ****   u8x8_RefreshDisplay( u8g2_GetU8x8(u8g2) );  
 243              		.loc 1 96 3 view .LVU65
 244 0008 2046     		mov	r0, r4
 245 000a FFF7FEFF 		bl	u8x8_RefreshDisplay
 246              	.LVL28:
  97:u8g2/csrc/u8g2_buffer.c **** }
 247              		.loc 1 97 1 is_stmt 0 view .LVU66
 248 000e 10BD     		pop	{r4, pc}
 249              		.loc 1 97 1 view .LVU67
 250              		.cfi_endproc
 251              	.LFE3:
 253              		.section	.text.u8g2_SetBufferCurrTileRow,"ax",%progbits
 254              		.align	1
 255              		.global	u8g2_SetBufferCurrTileRow
 256              		.syntax unified
 257              		.thumb
 258              		.thumb_func
 259              		.fpu softvfp
 261              	u8g2_SetBufferCurrTileRow:
 262              	.LVL29:
 263              	.LFB4:
  98:u8g2/csrc/u8g2_buffer.c **** 
  99:u8g2/csrc/u8g2_buffer.c **** /*============================================*/
 100:u8g2/csrc/u8g2_buffer.c **** void u8g2_SetBufferCurrTileRow(u8g2_t *u8g2, uint8_t row)
 101:u8g2/csrc/u8g2_buffer.c **** {
 264              		.loc 1 101 1 is_stmt 1 view -0
 265              		.cfi_startproc
 266              		@ args = 0, pretend = 0, frame = 0
 267              		@ frame_needed = 0, uses_anonymous_args = 0
 268              		.loc 1 101 1 is_stmt 0 view .LVU69
 269 0000 08B5     		push	{r3, lr}
 270              	.LCFI6:
 271              		.cfi_def_cfa_offset 8
 272              		.cfi_offset 3, -8
 273              		.cfi_offset 14, -4
 102:u8g2/csrc/u8g2_buffer.c ****   u8g2->tile_curr_row = row;
 274              		.loc 1 102 3 is_stmt 1 view .LVU70
 275              		.loc 1 102 23 is_stmt 0 view .LVU71
 276 0002 80F83910 		strb	r1, [r0, #57]
 103:u8g2/csrc/u8g2_buffer.c ****   u8g2->cb->update(u8g2);
 277              		.loc 1 103 3 is_stmt 1 view .LVU72
 278              		.loc 1 103 7 is_stmt 0 view .LVU73
 279 0006 036B     		ldr	r3, [r0, #48]
 280              		.loc 1 103 11 view .LVU74
 281 0008 1B68     		ldr	r3, [r3]
 282              		.loc 1 103 3 view .LVU75
 283 000a 9847     		blx	r3
 284              	.LVL30:
 104:u8g2/csrc/u8g2_buffer.c **** }
 285              		.loc 1 104 1 view .LVU76
 286 000c 08BD     		pop	{r3, pc}
 287              		.cfi_endproc
 288              	.LFE4:
 290              		.section	.text.u8g2_FirstPage,"ax",%progbits
ARM GAS  C:\Users\behun\AppData\Local\Temp\ccJYdqSA.s 			page 8


 291              		.align	1
 292              		.global	u8g2_FirstPage
 293              		.syntax unified
 294              		.thumb
 295              		.thumb_func
 296              		.fpu softvfp
 298              	u8g2_FirstPage:
 299              	.LVL31:
 300              	.LFB5:
 105:u8g2/csrc/u8g2_buffer.c **** 
 106:u8g2/csrc/u8g2_buffer.c **** void u8g2_FirstPage(u8g2_t *u8g2)
 107:u8g2/csrc/u8g2_buffer.c **** {
 301              		.loc 1 107 1 is_stmt 1 view -0
 302              		.cfi_startproc
 303              		@ args = 0, pretend = 0, frame = 0
 304              		@ frame_needed = 0, uses_anonymous_args = 0
 305              		.loc 1 107 1 is_stmt 0 view .LVU78
 306 0000 10B5     		push	{r4, lr}
 307              	.LCFI7:
 308              		.cfi_def_cfa_offset 8
 309              		.cfi_offset 4, -8
 310              		.cfi_offset 14, -4
 311 0002 0446     		mov	r4, r0
 108:u8g2/csrc/u8g2_buffer.c ****   if ( u8g2->is_auto_page_clear )
 312              		.loc 1 108 3 is_stmt 1 view .LVU79
 313              		.loc 1 108 12 is_stmt 0 view .LVU80
 314 0004 90F87E30 		ldrb	r3, [r0, #126]	@ zero_extendqisi2
 315              		.loc 1 108 6 view .LVU81
 316 0008 23B9     		cbnz	r3, .L16
 317              	.LVL32:
 318              	.L14:
 109:u8g2/csrc/u8g2_buffer.c ****   {
 110:u8g2/csrc/u8g2_buffer.c ****     u8g2_ClearBuffer(u8g2);
 111:u8g2/csrc/u8g2_buffer.c ****   }
 112:u8g2/csrc/u8g2_buffer.c ****   u8g2_SetBufferCurrTileRow(u8g2, 0);
 319              		.loc 1 112 3 is_stmt 1 view .LVU82
 320 000a 0021     		movs	r1, #0
 321 000c 2046     		mov	r0, r4
 322 000e FFF7FEFF 		bl	u8g2_SetBufferCurrTileRow
 323              	.LVL33:
 113:u8g2/csrc/u8g2_buffer.c **** }
 324              		.loc 1 113 1 is_stmt 0 view .LVU83
 325 0012 10BD     		pop	{r4, pc}
 326              	.LVL34:
 327              	.L16:
 110:u8g2/csrc/u8g2_buffer.c ****   }
 328              		.loc 1 110 5 is_stmt 1 view .LVU84
 329 0014 FFF7FEFF 		bl	u8g2_ClearBuffer
 330              	.LVL35:
 110:u8g2/csrc/u8g2_buffer.c ****   }
 331              		.loc 1 110 5 is_stmt 0 view .LVU85
 332 0018 F7E7     		b	.L14
 333              		.cfi_endproc
 334              	.LFE5:
 336              		.section	.text.u8g2_NextPage,"ax",%progbits
 337              		.align	1
 338              		.global	u8g2_NextPage
ARM GAS  C:\Users\behun\AppData\Local\Temp\ccJYdqSA.s 			page 9


 339              		.syntax unified
 340              		.thumb
 341              		.thumb_func
 342              		.fpu softvfp
 344              	u8g2_NextPage:
 345              	.LVL36:
 346              	.LFB6:
 114:u8g2/csrc/u8g2_buffer.c **** 
 115:u8g2/csrc/u8g2_buffer.c **** uint8_t u8g2_NextPage(u8g2_t *u8g2)
 116:u8g2/csrc/u8g2_buffer.c **** {
 347              		.loc 1 116 1 is_stmt 1 view -0
 348              		.cfi_startproc
 349              		@ args = 0, pretend = 0, frame = 0
 350              		@ frame_needed = 0, uses_anonymous_args = 0
 351              		.loc 1 116 1 is_stmt 0 view .LVU87
 352 0000 38B5     		push	{r3, r4, r5, lr}
 353              	.LCFI8:
 354              		.cfi_def_cfa_offset 16
 355              		.cfi_offset 3, -16
 356              		.cfi_offset 4, -12
 357              		.cfi_offset 5, -8
 358              		.cfi_offset 14, -4
 359 0002 0546     		mov	r5, r0
 117:u8g2/csrc/u8g2_buffer.c ****   uint8_t row;
 360              		.loc 1 117 3 is_stmt 1 view .LVU88
 118:u8g2/csrc/u8g2_buffer.c ****   u8g2_send_buffer(u8g2);
 361              		.loc 1 118 3 view .LVU89
 362 0004 FFF7FEFF 		bl	u8g2_send_buffer
 363              	.LVL37:
 119:u8g2/csrc/u8g2_buffer.c ****   row = u8g2->tile_curr_row;
 364              		.loc 1 119 3 view .LVU90
 365              		.loc 1 119 7 is_stmt 0 view .LVU91
 366 0008 95F83930 		ldrb	r3, [r5, #57]	@ zero_extendqisi2
 367              	.LVL38:
 120:u8g2/csrc/u8g2_buffer.c ****   row += u8g2->tile_buf_height;
 368              		.loc 1 120 3 is_stmt 1 view .LVU92
 369              		.loc 1 120 14 is_stmt 0 view .LVU93
 370 000c 95F83840 		ldrb	r4, [r5, #56]	@ zero_extendqisi2
 371              		.loc 1 120 7 view .LVU94
 372 0010 1C44     		add	r4, r4, r3
 373 0012 E4B2     		uxtb	r4, r4
 374              	.LVL39:
 121:u8g2/csrc/u8g2_buffer.c ****   if ( row >= u8g2_GetU8x8(u8g2)->display_info->tile_height )
 375              		.loc 1 121 3 is_stmt 1 view .LVU95
 376              		.loc 1 121 33 is_stmt 0 view .LVU96
 377 0014 2B68     		ldr	r3, [r5]
 378              		.loc 1 121 47 view .LVU97
 379 0016 5B7C     		ldrb	r3, [r3, #17]	@ zero_extendqisi2
 380              		.loc 1 121 6 view .LVU98
 381 0018 A342     		cmp	r3, r4
 382 001a 08D9     		bls	.L22
 122:u8g2/csrc/u8g2_buffer.c ****   {
 123:u8g2/csrc/u8g2_buffer.c ****     u8x8_RefreshDisplay( u8g2_GetU8x8(u8g2) );
 124:u8g2/csrc/u8g2_buffer.c ****     return 0;
 125:u8g2/csrc/u8g2_buffer.c ****   }
 126:u8g2/csrc/u8g2_buffer.c ****   if ( u8g2->is_auto_page_clear )
 383              		.loc 1 126 3 is_stmt 1 view .LVU99
ARM GAS  C:\Users\behun\AppData\Local\Temp\ccJYdqSA.s 			page 10


 384              		.loc 1 126 12 is_stmt 0 view .LVU100
 385 001c 95F87E30 		ldrb	r3, [r5, #126]	@ zero_extendqisi2
 386              		.loc 1 126 6 view .LVU101
 387 0020 53B9     		cbnz	r3, .L23
 388              	.L20:
 127:u8g2/csrc/u8g2_buffer.c ****   {
 128:u8g2/csrc/u8g2_buffer.c ****     u8g2_ClearBuffer(u8g2);
 129:u8g2/csrc/u8g2_buffer.c ****   }
 130:u8g2/csrc/u8g2_buffer.c ****   u8g2_SetBufferCurrTileRow(u8g2, row);
 389              		.loc 1 130 3 is_stmt 1 view .LVU102
 390 0022 2146     		mov	r1, r4
 391 0024 2846     		mov	r0, r5
 392 0026 FFF7FEFF 		bl	u8g2_SetBufferCurrTileRow
 393              	.LVL40:
 131:u8g2/csrc/u8g2_buffer.c ****   return 1;
 394              		.loc 1 131 3 view .LVU103
 395              		.loc 1 131 10 is_stmt 0 view .LVU104
 396 002a 0120     		movs	r0, #1
 397              	.L19:
 132:u8g2/csrc/u8g2_buffer.c **** }
 398              		.loc 1 132 1 view .LVU105
 399 002c 38BD     		pop	{r3, r4, r5, pc}
 400              	.LVL41:
 401              	.L22:
 123:u8g2/csrc/u8g2_buffer.c ****     return 0;
 402              		.loc 1 123 5 is_stmt 1 view .LVU106
 403 002e 2846     		mov	r0, r5
 404 0030 FFF7FEFF 		bl	u8x8_RefreshDisplay
 405              	.LVL42:
 124:u8g2/csrc/u8g2_buffer.c ****   }
 406              		.loc 1 124 5 view .LVU107
 124:u8g2/csrc/u8g2_buffer.c ****   }
 407              		.loc 1 124 12 is_stmt 0 view .LVU108
 408 0034 0020     		movs	r0, #0
 409 0036 F9E7     		b	.L19
 410              	.L23:
 128:u8g2/csrc/u8g2_buffer.c ****   }
 411              		.loc 1 128 5 is_stmt 1 view .LVU109
 412 0038 2846     		mov	r0, r5
 413 003a FFF7FEFF 		bl	u8g2_ClearBuffer
 414              	.LVL43:
 415 003e F0E7     		b	.L20
 416              		.cfi_endproc
 417              	.LFE6:
 419              		.text
 420              	.Letext0:
 421              		.file 2 "c:\\program files (x86)\\gnu tools arm embedded\\8 2019-q3-update\\arm-none-eabi\\include
 422              		.file 3 "c:\\program files (x86)\\gnu tools arm embedded\\8 2019-q3-update\\arm-none-eabi\\include
 423              		.file 4 "c:\\program files (x86)\\gnu tools arm embedded\\8 2019-q3-update\\lib\\gcc\\arm-none-eab
 424              		.file 5 "u8g2/csrc/u8x8.h"
 425              		.file 6 "u8g2/csrc/u8g2.h"
 426              		.file 7 "c:\\program files (x86)\\gnu tools arm embedded\\8 2019-q3-update\\arm-none-eabi\\include
 427              		.file 8 "c:\\program files (x86)\\gnu tools arm embedded\\8 2019-q3-update\\arm-none-eabi\\include
 428              		.file 9 "c:\\program files (x86)\\gnu tools arm embedded\\8 2019-q3-update\\arm-none-eabi\\include
 429              		.file 10 "<built-in>"
ARM GAS  C:\Users\behun\AppData\Local\Temp\ccJYdqSA.s 			page 11


DEFINED SYMBOLS
                            *ABS*:00000000 u8g2_buffer.c
C:\Users\behun\AppData\Local\Temp\ccJYdqSA.s:16     .text.u8g2_send_tile_row:00000000 $t
C:\Users\behun\AppData\Local\Temp\ccJYdqSA.s:23     .text.u8g2_send_tile_row:00000000 u8g2_send_tile_row
C:\Users\behun\AppData\Local\Temp\ccJYdqSA.s:86     .text.u8g2_send_buffer:00000000 $t
C:\Users\behun\AppData\Local\Temp\ccJYdqSA.s:92     .text.u8g2_send_buffer:00000000 u8g2_send_buffer
C:\Users\behun\AppData\Local\Temp\ccJYdqSA.s:169    .text.u8g2_ClearBuffer:00000000 $t
C:\Users\behun\AppData\Local\Temp\ccJYdqSA.s:176    .text.u8g2_ClearBuffer:00000000 u8g2_ClearBuffer
C:\Users\behun\AppData\Local\Temp\ccJYdqSA.s:219    .text.u8g2_SendBuffer:00000000 $t
C:\Users\behun\AppData\Local\Temp\ccJYdqSA.s:226    .text.u8g2_SendBuffer:00000000 u8g2_SendBuffer
C:\Users\behun\AppData\Local\Temp\ccJYdqSA.s:254    .text.u8g2_SetBufferCurrTileRow:00000000 $t
C:\Users\behun\AppData\Local\Temp\ccJYdqSA.s:261    .text.u8g2_SetBufferCurrTileRow:00000000 u8g2_SetBufferCurrTileRow
C:\Users\behun\AppData\Local\Temp\ccJYdqSA.s:291    .text.u8g2_FirstPage:00000000 $t
C:\Users\behun\AppData\Local\Temp\ccJYdqSA.s:298    .text.u8g2_FirstPage:00000000 u8g2_FirstPage
C:\Users\behun\AppData\Local\Temp\ccJYdqSA.s:337    .text.u8g2_NextPage:00000000 $t
C:\Users\behun\AppData\Local\Temp\ccJYdqSA.s:344    .text.u8g2_NextPage:00000000 u8g2_NextPage

UNDEFINED SYMBOLS
u8x8_DrawTile
memset
u8x8_RefreshDisplay
