ARM GAS  C:\Users\behun\AppData\Local\Temp\cc3fxkM4.s 			page 1


   1              		.cpu cortex-m3
   2              		.eabi_attribute 20, 1
   3              		.eabi_attribute 21, 1
   4              		.eabi_attribute 23, 3
   5              		.eabi_attribute 24, 1
   6              		.eabi_attribute 25, 1
   7              		.eabi_attribute 26, 1
   8              		.eabi_attribute 30, 1
   9              		.eabi_attribute 34, 1
  10              		.eabi_attribute 18, 4
  11              		.file	"u8g2_polygon.c"
  12              		.text
  13              	.Ltext0:
  14              		.cfi_sections	.debug_frame
  15              		.section	.text.pge_Next,"ax",%progbits
  16              		.align	1
  17              		.arch armv7-m
  18              		.syntax unified
  19              		.thumb
  20              		.thumb_func
  21              		.fpu softvfp
  23              	pge_Next:
  24              	.LVL0:
  25              	.LFB0:
  26              		.file 1 "u8g2/csrc/u8g2_polygon.c"
   1:u8g2/csrc/u8g2_polygon.c **** /*
   2:u8g2/csrc/u8g2_polygon.c **** 
   3:u8g2/csrc/u8g2_polygon.c ****   u8g22_polygon.c
   4:u8g2/csrc/u8g2_polygon.c **** 
   5:u8g2/csrc/u8g2_polygon.c **** */	
   6:u8g2/csrc/u8g2_polygon.c **** 
   7:u8g2/csrc/u8g2_polygon.c **** 
   8:u8g2/csrc/u8g2_polygon.c **** #include "u8g2.h"
   9:u8g2/csrc/u8g2_polygon.c **** 
  10:u8g2/csrc/u8g2_polygon.c **** 
  11:u8g2/csrc/u8g2_polygon.c **** 
  12:u8g2/csrc/u8g2_polygon.c **** 
  13:u8g2/csrc/u8g2_polygon.c **** /*===========================================*/
  14:u8g2/csrc/u8g2_polygon.c **** /* local definitions */
  15:u8g2/csrc/u8g2_polygon.c **** 
  16:u8g2/csrc/u8g2_polygon.c **** typedef int16_t pg_word_t;
  17:u8g2/csrc/u8g2_polygon.c **** 
  18:u8g2/csrc/u8g2_polygon.c **** 
  19:u8g2/csrc/u8g2_polygon.c **** struct pg_point_struct
  20:u8g2/csrc/u8g2_polygon.c **** {
  21:u8g2/csrc/u8g2_polygon.c ****   pg_word_t x;
  22:u8g2/csrc/u8g2_polygon.c ****   pg_word_t y;
  23:u8g2/csrc/u8g2_polygon.c **** };
  24:u8g2/csrc/u8g2_polygon.c **** 
  25:u8g2/csrc/u8g2_polygon.c **** typedef struct _pg_struct pg_struct;	/* forward declaration */
  26:u8g2/csrc/u8g2_polygon.c **** 
  27:u8g2/csrc/u8g2_polygon.c **** struct pg_edge_struct
  28:u8g2/csrc/u8g2_polygon.c **** {
  29:u8g2/csrc/u8g2_polygon.c ****   pg_word_t x_direction;	/* 1, if x2 is greater than x1, -1 otherwise */
  30:u8g2/csrc/u8g2_polygon.c ****   pg_word_t height;
  31:u8g2/csrc/u8g2_polygon.c ****   pg_word_t current_x_offset;
  32:u8g2/csrc/u8g2_polygon.c ****   pg_word_t error_offset;
ARM GAS  C:\Users\behun\AppData\Local\Temp\cc3fxkM4.s 			page 2


  33:u8g2/csrc/u8g2_polygon.c ****   
  34:u8g2/csrc/u8g2_polygon.c ****   /* --- line loop --- */
  35:u8g2/csrc/u8g2_polygon.c ****   pg_word_t current_y;
  36:u8g2/csrc/u8g2_polygon.c ****   pg_word_t max_y;
  37:u8g2/csrc/u8g2_polygon.c ****   pg_word_t current_x;
  38:u8g2/csrc/u8g2_polygon.c ****   pg_word_t error;
  39:u8g2/csrc/u8g2_polygon.c **** 
  40:u8g2/csrc/u8g2_polygon.c ****   /* --- outer loop --- */
  41:u8g2/csrc/u8g2_polygon.c ****   uint8_t (*next_idx_fn)(pg_struct *pg, uint8_t i);
  42:u8g2/csrc/u8g2_polygon.c ****   uint8_t curr_idx;
  43:u8g2/csrc/u8g2_polygon.c **** };
  44:u8g2/csrc/u8g2_polygon.c **** 
  45:u8g2/csrc/u8g2_polygon.c **** /* maximum number of points in the polygon */
  46:u8g2/csrc/u8g2_polygon.c **** /* can be redefined, but highest possible value is 254 */
  47:u8g2/csrc/u8g2_polygon.c **** #define PG_MAX_POINTS 6
  48:u8g2/csrc/u8g2_polygon.c **** 
  49:u8g2/csrc/u8g2_polygon.c **** /* index numbers for the pge structures below */
  50:u8g2/csrc/u8g2_polygon.c **** #define PG_LEFT 0
  51:u8g2/csrc/u8g2_polygon.c **** #define PG_RIGHT 1
  52:u8g2/csrc/u8g2_polygon.c **** 
  53:u8g2/csrc/u8g2_polygon.c **** 
  54:u8g2/csrc/u8g2_polygon.c **** struct _pg_struct
  55:u8g2/csrc/u8g2_polygon.c **** {
  56:u8g2/csrc/u8g2_polygon.c ****   struct pg_point_struct list[PG_MAX_POINTS];
  57:u8g2/csrc/u8g2_polygon.c ****   uint8_t cnt;
  58:u8g2/csrc/u8g2_polygon.c ****   uint8_t is_min_y_not_flat;
  59:u8g2/csrc/u8g2_polygon.c ****   pg_word_t total_scan_line_cnt;
  60:u8g2/csrc/u8g2_polygon.c ****   struct pg_edge_struct pge[2];	/* left and right line draw structures */
  61:u8g2/csrc/u8g2_polygon.c **** };
  62:u8g2/csrc/u8g2_polygon.c **** 
  63:u8g2/csrc/u8g2_polygon.c **** 
  64:u8g2/csrc/u8g2_polygon.c **** /*===========================================*/
  65:u8g2/csrc/u8g2_polygon.c **** /* procedures, which should not be inlined (save as much flash ROM as possible */
  66:u8g2/csrc/u8g2_polygon.c **** 
  67:u8g2/csrc/u8g2_polygon.c **** #define PG_NOINLINE U8G2_NOINLINE
  68:u8g2/csrc/u8g2_polygon.c **** 
  69:u8g2/csrc/u8g2_polygon.c **** static uint8_t pge_Next(struct pg_edge_struct *pge) PG_NOINLINE;
  70:u8g2/csrc/u8g2_polygon.c **** static uint8_t pg_inc(pg_struct *pg, uint8_t i) PG_NOINLINE;
  71:u8g2/csrc/u8g2_polygon.c **** static uint8_t pg_dec(pg_struct *pg, uint8_t i) PG_NOINLINE;
  72:u8g2/csrc/u8g2_polygon.c **** static void pg_expand_min_y(pg_struct *pg, pg_word_t min_y, uint8_t pge_idx) PG_NOINLINE;
  73:u8g2/csrc/u8g2_polygon.c **** static void pg_line_init(pg_struct * const pg, uint8_t pge_index) PG_NOINLINE;
  74:u8g2/csrc/u8g2_polygon.c **** 
  75:u8g2/csrc/u8g2_polygon.c **** /*===========================================*/
  76:u8g2/csrc/u8g2_polygon.c **** /* line draw algorithm */
  77:u8g2/csrc/u8g2_polygon.c **** 
  78:u8g2/csrc/u8g2_polygon.c **** static uint8_t pge_Next(struct pg_edge_struct *pge)
  79:u8g2/csrc/u8g2_polygon.c **** {
  27              		.loc 1 79 1 view -0
  28              		.cfi_startproc
  29              		@ args = 0, pretend = 0, frame = 0
  30              		@ frame_needed = 0, uses_anonymous_args = 0
  31              		@ link register save eliminated.
  80:u8g2/csrc/u8g2_polygon.c ****   if ( pge->current_y >= pge->max_y )
  32              		.loc 1 80 3 view .LVU1
  33              		.loc 1 80 11 is_stmt 0 view .LVU2
  34 0000 B0F90810 		ldrsh	r1, [r0, #8]
  35              		.loc 1 80 29 view .LVU3
ARM GAS  C:\Users\behun\AppData\Local\Temp\cc3fxkM4.s 			page 3


  36 0004 B0F90A30 		ldrsh	r3, [r0, #10]
  37              		.loc 1 80 6 view .LVU4
  38 0008 9942     		cmp	r1, r3
  39 000a 18DA     		bge	.L4
  79:u8g2/csrc/u8g2_polygon.c ****   if ( pge->current_y >= pge->max_y )
  40              		.loc 1 79 1 view .LVU5
  41 000c 10B4     		push	{r4}
  42              	.LCFI0:
  43              		.cfi_def_cfa_offset 4
  44              		.cfi_offset 4, -4
  81:u8g2/csrc/u8g2_polygon.c ****     return 0;
  82:u8g2/csrc/u8g2_polygon.c ****   
  83:u8g2/csrc/u8g2_polygon.c ****   pge->current_x += pge->current_x_offset;
  45              		.loc 1 83 3 is_stmt 1 view .LVU6
  46              		.loc 1 83 24 is_stmt 0 view .LVU7
  47 000e 8288     		ldrh	r2, [r0, #4]
  48              		.loc 1 83 18 view .LVU8
  49 0010 8389     		ldrh	r3, [r0, #12]
  50 0012 1A44     		add	r2, r2, r3
  51 0014 92B2     		uxth	r2, r2
  52 0016 8281     		strh	r2, [r0, #12]	@ movhi
  84:u8g2/csrc/u8g2_polygon.c ****   pge->error += pge->error_offset;
  53              		.loc 1 84 3 is_stmt 1 view .LVU9
  54              		.loc 1 84 20 is_stmt 0 view .LVU10
  55 0018 C388     		ldrh	r3, [r0, #6]
  56              		.loc 1 84 14 view .LVU11
  57 001a C489     		ldrh	r4, [r0, #14]
  58 001c 2344     		add	r3, r3, r4
  59 001e 9BB2     		uxth	r3, r3
  60 0020 1CB2     		sxth	r4, r3
  61 0022 C481     		strh	r4, [r0, #14]	@ movhi
  85:u8g2/csrc/u8g2_polygon.c ****   if ( pge->error > 0 )
  62              		.loc 1 85 3 is_stmt 1 view .LVU12
  63              		.loc 1 85 6 is_stmt 0 view .LVU13
  64 0024 002C     		cmp	r4, #0
  65 0026 05DD     		ble	.L3
  86:u8g2/csrc/u8g2_polygon.c ****   {
  87:u8g2/csrc/u8g2_polygon.c ****     pge->current_x += pge->x_direction;
  66              		.loc 1 87 5 is_stmt 1 view .LVU14
  67              		.loc 1 87 26 is_stmt 0 view .LVU15
  68 0028 0488     		ldrh	r4, [r0]
  69              		.loc 1 87 20 view .LVU16
  70 002a 2244     		add	r2, r2, r4
  71 002c 8281     		strh	r2, [r0, #12]	@ movhi
  88:u8g2/csrc/u8g2_polygon.c ****     pge->error -= pge->height;
  72              		.loc 1 88 5 is_stmt 1 view .LVU17
  73              		.loc 1 88 22 is_stmt 0 view .LVU18
  74 002e 4288     		ldrh	r2, [r0, #2]
  75              		.loc 1 88 16 view .LVU19
  76 0030 9B1A     		subs	r3, r3, r2
  77 0032 C381     		strh	r3, [r0, #14]	@ movhi
  78              	.L3:
  89:u8g2/csrc/u8g2_polygon.c ****   }  
  90:u8g2/csrc/u8g2_polygon.c ****   
  91:u8g2/csrc/u8g2_polygon.c ****   pge->current_y++;
  79              		.loc 1 91 3 is_stmt 1 view .LVU20
  80              		.loc 1 91 17 is_stmt 0 view .LVU21
ARM GAS  C:\Users\behun\AppData\Local\Temp\cc3fxkM4.s 			page 4


  81 0034 0131     		adds	r1, r1, #1
  82 0036 0181     		strh	r1, [r0, #8]	@ movhi
  92:u8g2/csrc/u8g2_polygon.c ****   return 1;
  83              		.loc 1 92 3 is_stmt 1 view .LVU22
  84              		.loc 1 92 10 is_stmt 0 view .LVU23
  85 0038 0120     		movs	r0, #1
  86              	.LVL1:
  93:u8g2/csrc/u8g2_polygon.c **** }
  87              		.loc 1 93 1 view .LVU24
  88 003a 10BC     		pop	{r4}
  89              	.LCFI1:
  90              		.cfi_restore 4
  91              		.cfi_def_cfa_offset 0
  92 003c 7047     		bx	lr
  93              	.LVL2:
  94              	.L4:
  81:u8g2/csrc/u8g2_polygon.c ****   
  95              		.loc 1 81 12 view .LVU25
  96 003e 0020     		movs	r0, #0
  97              	.LVL3:
  98              		.loc 1 93 1 view .LVU26
  99 0040 7047     		bx	lr
 100              		.cfi_endproc
 101              	.LFE0:
 103              		.section	.text.pge_Init,"ax",%progbits
 104              		.align	1
 105              		.syntax unified
 106              		.thumb
 107              		.thumb_func
 108              		.fpu softvfp
 110              	pge_Init:
 111              	.LVL4:
 112              	.LFB1:
  94:u8g2/csrc/u8g2_polygon.c **** 
  95:u8g2/csrc/u8g2_polygon.c **** /* assumes y2 > y1 */
  96:u8g2/csrc/u8g2_polygon.c **** static void pge_Init(struct pg_edge_struct *pge, pg_word_t x1, pg_word_t y1, pg_word_t x2, pg_word_
  97:u8g2/csrc/u8g2_polygon.c **** {
 113              		.loc 1 97 1 is_stmt 1 view -0
 114              		.cfi_startproc
 115              		@ args = 4, pretend = 0, frame = 0
 116              		@ frame_needed = 0, uses_anonymous_args = 0
 117              		@ link register save eliminated.
 118              		.loc 1 97 1 is_stmt 0 view .LVU28
 119 0000 F0B4     		push	{r4, r5, r6, r7}
 120              	.LCFI2:
 121              		.cfi_def_cfa_offset 16
 122              		.cfi_offset 4, -16
 123              		.cfi_offset 5, -12
 124              		.cfi_offset 6, -8
 125              		.cfi_offset 7, -4
 126 0002 BDF91070 		ldrsh	r7, [sp, #16]
  98:u8g2/csrc/u8g2_polygon.c ****   pg_word_t dx = x2 - x1;
 127              		.loc 1 98 3 is_stmt 1 view .LVU29
 128              		.loc 1 98 21 is_stmt 0 view .LVU30
 129 0006 9BB2     		uxth	r3, r3
 130              		.loc 1 98 21 view .LVU31
 131 0008 8DB2     		uxth	r5, r1
ARM GAS  C:\Users\behun\AppData\Local\Temp\cc3fxkM4.s 			page 5


 132 000a 5C1B     		subs	r4, r3, r5
 133              		.loc 1 98 13 view .LVU32
 134 000c 24B2     		sxth	r4, r4
 135              	.LVL5:
  99:u8g2/csrc/u8g2_polygon.c ****   pg_word_t width;
 136              		.loc 1 99 3 is_stmt 1 view .LVU33
 100:u8g2/csrc/u8g2_polygon.c **** 
 101:u8g2/csrc/u8g2_polygon.c ****   pge->height = y2 - y1;
 137              		.loc 1 101 3 view .LVU34
 138              		.loc 1 101 20 is_stmt 0 view .LVU35
 139 000e BE1A     		subs	r6, r7, r2
 140 0010 B6B2     		uxth	r6, r6
 141 0012 0FFA86FC 		sxth	ip, r6
 142              		.loc 1 101 15 view .LVU36
 143 0016 A0F802C0 		strh	ip, [r0, #2]	@ movhi
 102:u8g2/csrc/u8g2_polygon.c ****   pge->max_y = y2;
 144              		.loc 1 102 3 is_stmt 1 view .LVU37
 145              		.loc 1 102 14 is_stmt 0 view .LVU38
 146 001a 4781     		strh	r7, [r0, #10]	@ movhi
 103:u8g2/csrc/u8g2_polygon.c ****   pge->current_y = y1;
 147              		.loc 1 103 3 is_stmt 1 view .LVU39
 148              		.loc 1 103 18 is_stmt 0 view .LVU40
 149 001c 0281     		strh	r2, [r0, #8]	@ movhi
 104:u8g2/csrc/u8g2_polygon.c ****   pge->current_x = x1;
 150              		.loc 1 104 3 is_stmt 1 view .LVU41
 151              		.loc 1 104 18 is_stmt 0 view .LVU42
 152 001e 8181     		strh	r1, [r0, #12]	@ movhi
 105:u8g2/csrc/u8g2_polygon.c **** 
 106:u8g2/csrc/u8g2_polygon.c ****   if ( dx >= 0 )
 153              		.loc 1 106 3 is_stmt 1 view .LVU43
 154              		.loc 1 106 6 is_stmt 0 view .LVU44
 155 0020 002C     		cmp	r4, #0
 156 0022 0EDB     		blt	.L10
 107:u8g2/csrc/u8g2_polygon.c ****   {
 108:u8g2/csrc/u8g2_polygon.c ****     pge->x_direction = 1;
 157              		.loc 1 108 5 is_stmt 1 view .LVU45
 158              		.loc 1 108 22 is_stmt 0 view .LVU46
 159 0024 0123     		movs	r3, #1
 160              	.LVL6:
 161              		.loc 1 108 22 view .LVU47
 162 0026 0380     		strh	r3, [r0]	@ movhi
 109:u8g2/csrc/u8g2_polygon.c ****     width = dx;
 163              		.loc 1 109 5 is_stmt 1 view .LVU48
 164              	.LVL7:
 110:u8g2/csrc/u8g2_polygon.c ****     pge->error = 0;
 165              		.loc 1 110 5 view .LVU49
 166              		.loc 1 110 16 is_stmt 0 view .LVU50
 167 0028 0023     		movs	r3, #0
 168 002a C381     		strh	r3, [r0, #14]	@ movhi
 109:u8g2/csrc/u8g2_polygon.c ****     width = dx;
 169              		.loc 1 109 11 view .LVU51
 170 002c 2346     		mov	r3, r4
 171              	.LVL8:
 172              	.L11:
 111:u8g2/csrc/u8g2_polygon.c ****   }
 112:u8g2/csrc/u8g2_polygon.c ****   else
 113:u8g2/csrc/u8g2_polygon.c ****   {
ARM GAS  C:\Users\behun\AppData\Local\Temp\cc3fxkM4.s 			page 6


 114:u8g2/csrc/u8g2_polygon.c ****     pge->x_direction = -1;
 115:u8g2/csrc/u8g2_polygon.c ****     width = -dx;
 116:u8g2/csrc/u8g2_polygon.c ****     pge->error = 1 - pge->height;
 117:u8g2/csrc/u8g2_polygon.c ****   }
 118:u8g2/csrc/u8g2_polygon.c ****   
 119:u8g2/csrc/u8g2_polygon.c ****   pge->current_x_offset = dx / pge->height;
 173              		.loc 1 119 3 is_stmt 1 view .LVU52
 174              		.loc 1 119 30 is_stmt 0 view .LVU53
 175 002e 94FBFCF4 		sdiv	r4, r4, ip
 176              	.LVL9:
 177              		.loc 1 119 25 view .LVU54
 178 0032 8480     		strh	r4, [r0, #4]	@ movhi
 120:u8g2/csrc/u8g2_polygon.c ****   pge->error_offset = width % pge->height;
 179              		.loc 1 120 3 is_stmt 1 view .LVU55
 180              		.loc 1 120 29 is_stmt 0 view .LVU56
 181 0034 93FBFCF2 		sdiv	r2, r3, ip
 182 0038 0CFB1233 		mls	r3, ip, r2, r3
 183              	.LVL10:
 184              		.loc 1 120 21 view .LVU57
 185 003c C380     		strh	r3, [r0, #6]	@ movhi
 121:u8g2/csrc/u8g2_polygon.c **** }
 186              		.loc 1 121 1 view .LVU58
 187 003e F0BC     		pop	{r4, r5, r6, r7}
 188              	.LCFI3:
 189              		.cfi_remember_state
 190              		.cfi_restore 7
 191              		.cfi_restore 6
 192              		.cfi_restore 5
 193              		.cfi_restore 4
 194              		.cfi_def_cfa_offset 0
 195              	.LVL11:
 196              		.loc 1 121 1 view .LVU59
 197 0040 7047     		bx	lr
 198              	.LVL12:
 199              	.L10:
 200              	.LCFI4:
 201              		.cfi_restore_state
 114:u8g2/csrc/u8g2_polygon.c ****     width = -dx;
 202              		.loc 1 114 5 is_stmt 1 view .LVU60
 114:u8g2/csrc/u8g2_polygon.c ****     width = -dx;
 203              		.loc 1 114 22 is_stmt 0 view .LVU61
 204 0042 4FF6FF72 		movw	r2, #65535
 205              	.LVL13:
 114:u8g2/csrc/u8g2_polygon.c ****     width = -dx;
 206              		.loc 1 114 22 view .LVU62
 207 0046 0280     		strh	r2, [r0]	@ movhi
 115:u8g2/csrc/u8g2_polygon.c ****     pge->error = 1 - pge->height;
 208              		.loc 1 115 5 is_stmt 1 view .LVU63
 115:u8g2/csrc/u8g2_polygon.c ****     pge->error = 1 - pge->height;
 209              		.loc 1 115 11 is_stmt 0 view .LVU64
 210 0048 EB1A     		subs	r3, r5, r3
 211 004a 1BB2     		sxth	r3, r3
 212              	.LVL14:
 116:u8g2/csrc/u8g2_polygon.c ****   }
 213              		.loc 1 116 5 is_stmt 1 view .LVU65
 116:u8g2/csrc/u8g2_polygon.c ****   }
 214              		.loc 1 116 20 is_stmt 0 view .LVU66
ARM GAS  C:\Users\behun\AppData\Local\Temp\cc3fxkM4.s 			page 7


 215 004c C6F10106 		rsb	r6, r6, #1
 116:u8g2/csrc/u8g2_polygon.c ****   }
 216              		.loc 1 116 16 view .LVU67
 217 0050 C681     		strh	r6, [r0, #14]	@ movhi
 218 0052 ECE7     		b	.L11
 219              		.cfi_endproc
 220              	.LFE1:
 222              		.section	.text.pg_inc,"ax",%progbits
 223              		.align	1
 224              		.syntax unified
 225              		.thumb
 226              		.thumb_func
 227              		.fpu softvfp
 229              	pg_inc:
 230              	.LVL15:
 231              	.LFB2:
 122:u8g2/csrc/u8g2_polygon.c **** 
 123:u8g2/csrc/u8g2_polygon.c **** /*===========================================*/
 124:u8g2/csrc/u8g2_polygon.c **** /* convex polygon algorithm */
 125:u8g2/csrc/u8g2_polygon.c **** 
 126:u8g2/csrc/u8g2_polygon.c **** static uint8_t pg_inc(pg_struct *pg, uint8_t i)
 127:u8g2/csrc/u8g2_polygon.c **** {
 232              		.loc 1 127 1 is_stmt 1 view -0
 233              		.cfi_startproc
 234              		@ args = 0, pretend = 0, frame = 0
 235              		@ frame_needed = 0, uses_anonymous_args = 0
 236              		@ link register save eliminated.
 128:u8g2/csrc/u8g2_polygon.c ****     i++;
 237              		.loc 1 128 5 view .LVU69
 238              		.loc 1 128 6 is_stmt 0 view .LVU70
 239 0000 0131     		adds	r1, r1, #1
 240              	.LVL16:
 241              		.loc 1 128 6 view .LVU71
 242 0002 C9B2     		uxtb	r1, r1
 243              	.LVL17:
 129:u8g2/csrc/u8g2_polygon.c ****     if ( i >= pg->cnt )
 244              		.loc 1 129 5 is_stmt 1 view .LVU72
 245              		.loc 1 129 17 is_stmt 0 view .LVU73
 246 0004 037E     		ldrb	r3, [r0, #24]	@ zero_extendqisi2
 247              		.loc 1 129 8 view .LVU74
 248 0006 8B42     		cmp	r3, r1
 249 0008 00D8     		bhi	.L14
 130:u8g2/csrc/u8g2_polygon.c ****       i = 0;
 250              		.loc 1 130 9 view .LVU75
 251 000a 0021     		movs	r1, #0
 252              	.LVL18:
 253              	.L14:
 131:u8g2/csrc/u8g2_polygon.c ****     return i;
 254              		.loc 1 131 5 is_stmt 1 view .LVU76
 132:u8g2/csrc/u8g2_polygon.c **** }
 255              		.loc 1 132 1 is_stmt 0 view .LVU77
 256 000c 0846     		mov	r0, r1
 257              	.LVL19:
 258              		.loc 1 132 1 view .LVU78
 259 000e 7047     		bx	lr
 260              		.cfi_endproc
 261              	.LFE2:
ARM GAS  C:\Users\behun\AppData\Local\Temp\cc3fxkM4.s 			page 8


 263              		.section	.text.pg_dec,"ax",%progbits
 264              		.align	1
 265              		.syntax unified
 266              		.thumb
 267              		.thumb_func
 268              		.fpu softvfp
 270              	pg_dec:
 271              	.LVL20:
 272              	.LFB3:
 133:u8g2/csrc/u8g2_polygon.c **** 
 134:u8g2/csrc/u8g2_polygon.c **** static uint8_t pg_dec(pg_struct *pg, uint8_t i)
 135:u8g2/csrc/u8g2_polygon.c **** {
 273              		.loc 1 135 1 is_stmt 1 view -0
 274              		.cfi_startproc
 275              		@ args = 0, pretend = 0, frame = 0
 276              		@ frame_needed = 0, uses_anonymous_args = 0
 277              		@ link register save eliminated.
 136:u8g2/csrc/u8g2_polygon.c ****     i--;
 278              		.loc 1 136 5 view .LVU80
 279              		.loc 1 136 6 is_stmt 0 view .LVU81
 280 0000 0139     		subs	r1, r1, #1
 281              	.LVL21:
 282              		.loc 1 136 6 view .LVU82
 283 0002 C9B2     		uxtb	r1, r1
 284              	.LVL22:
 137:u8g2/csrc/u8g2_polygon.c ****     if ( i >= pg->cnt )
 285              		.loc 1 137 5 is_stmt 1 view .LVU83
 286              		.loc 1 137 17 is_stmt 0 view .LVU84
 287 0004 037E     		ldrb	r3, [r0, #24]	@ zero_extendqisi2
 288              		.loc 1 137 8 view .LVU85
 289 0006 8B42     		cmp	r3, r1
 290 0008 01D8     		bhi	.L17
 138:u8g2/csrc/u8g2_polygon.c ****       i = pg->cnt-1;
 291              		.loc 1 138 7 is_stmt 1 view .LVU86
 292              		.loc 1 138 9 is_stmt 0 view .LVU87
 293 000a 591E     		subs	r1, r3, #1
 294              	.LVL23:
 295              		.loc 1 138 9 view .LVU88
 296 000c C9B2     		uxtb	r1, r1
 297              	.LVL24:
 298              	.L17:
 139:u8g2/csrc/u8g2_polygon.c ****     return i;
 299              		.loc 1 139 5 is_stmt 1 view .LVU89
 140:u8g2/csrc/u8g2_polygon.c **** }
 300              		.loc 1 140 1 is_stmt 0 view .LVU90
 301 000e 0846     		mov	r0, r1
 302              	.LVL25:
 303              		.loc 1 140 1 view .LVU91
 304 0010 7047     		bx	lr
 305              		.cfi_endproc
 306              	.LFE3:
 308              		.section	.text.pg_expand_min_y,"ax",%progbits
 309              		.align	1
 310              		.syntax unified
 311              		.thumb
 312              		.thumb_func
 313              		.fpu softvfp
ARM GAS  C:\Users\behun\AppData\Local\Temp\cc3fxkM4.s 			page 9


 315              	pg_expand_min_y:
 316              	.LVL26:
 317              	.LFB4:
 141:u8g2/csrc/u8g2_polygon.c **** 
 142:u8g2/csrc/u8g2_polygon.c **** static void pg_expand_min_y(pg_struct *pg, pg_word_t min_y, uint8_t pge_idx)
 143:u8g2/csrc/u8g2_polygon.c **** {
 318              		.loc 1 143 1 is_stmt 1 view -0
 319              		.cfi_startproc
 320              		@ args = 0, pretend = 0, frame = 0
 321              		@ frame_needed = 0, uses_anonymous_args = 0
 322              		.loc 1 143 1 is_stmt 0 view .LVU93
 323 0000 70B5     		push	{r4, r5, r6, lr}
 324              	.LCFI5:
 325              		.cfi_def_cfa_offset 16
 326              		.cfi_offset 4, -16
 327              		.cfi_offset 5, -12
 328              		.cfi_offset 6, -8
 329              		.cfi_offset 14, -4
 330 0002 0446     		mov	r4, r0
 331 0004 0E46     		mov	r6, r1
 332 0006 1546     		mov	r5, r2
 144:u8g2/csrc/u8g2_polygon.c ****   uint8_t i = pg->pge[pge_idx].curr_idx;
 333              		.loc 1 144 3 is_stmt 1 view .LVU94
 334              		.loc 1 144 11 is_stmt 0 view .LVU95
 335 0008 02EB4202 		add	r2, r2, r2, lsl #1
 336              	.LVL27:
 337              		.loc 1 144 11 view .LVU96
 338 000c D300     		lsls	r3, r2, #3
 339 000e 0344     		add	r3, r3, r0
 340 0010 93F83010 		ldrb	r1, [r3, #48]	@ zero_extendqisi2
 341              	.LVL28:
 342              	.L20:
 145:u8g2/csrc/u8g2_polygon.c ****   for(;;)
 343              		.loc 1 145 3 is_stmt 1 view .LVU97
 146:u8g2/csrc/u8g2_polygon.c ****   {
 147:u8g2/csrc/u8g2_polygon.c ****     i = pg->pge[pge_idx].next_idx_fn(pg, i);
 344              		.loc 1 147 5 view .LVU98
 345              		.loc 1 147 25 is_stmt 0 view .LVU99
 346 0014 05EB4502 		add	r2, r5, r5, lsl #1
 347 0018 D300     		lsls	r3, r2, #3
 348 001a 2344     		add	r3, r3, r4
 349 001c DB6A     		ldr	r3, [r3, #44]
 350              		.loc 1 147 9 view .LVU100
 351 001e 2046     		mov	r0, r4
 352 0020 9847     		blx	r3
 353              	.LVL29:
 354              		.loc 1 147 9 view .LVU101
 355 0022 0146     		mov	r1, r0
 356              	.LVL30:
 148:u8g2/csrc/u8g2_polygon.c ****     if ( pg->list[i].y != min_y )
 357              		.loc 1 148 5 is_stmt 1 view .LVU102
 358              		.loc 1 148 21 is_stmt 0 view .LVU103
 359 0024 04EB8003 		add	r3, r4, r0, lsl #2
 360 0028 B3F90230 		ldrsh	r3, [r3, #2]
 361              		.loc 1 148 8 view .LVU104
 362 002c B342     		cmp	r3, r6
 363 002e 06D1     		bne	.L18
ARM GAS  C:\Users\behun\AppData\Local\Temp\cc3fxkM4.s 			page 10


 149:u8g2/csrc/u8g2_polygon.c ****       break;	
 150:u8g2/csrc/u8g2_polygon.c ****     pg->pge[pge_idx].curr_idx = i;
 364              		.loc 1 150 5 is_stmt 1 view .LVU105
 365              		.loc 1 150 31 is_stmt 0 view .LVU106
 366 0030 05EB4502 		add	r2, r5, r5, lsl #1
 367 0034 D300     		lsls	r3, r2, #3
 368 0036 2344     		add	r3, r3, r4
 369 0038 83F83000 		strb	r0, [r3, #48]
 147:u8g2/csrc/u8g2_polygon.c ****     if ( pg->list[i].y != min_y )
 370              		.loc 1 147 7 view .LVU107
 371 003c EAE7     		b	.L20
 372              	.L18:
 151:u8g2/csrc/u8g2_polygon.c ****   }
 152:u8g2/csrc/u8g2_polygon.c **** }
 373              		.loc 1 152 1 view .LVU108
 374 003e 70BD     		pop	{r4, r5, r6, pc}
 375              		.loc 1 152 1 view .LVU109
 376              		.cfi_endproc
 377              	.LFE4:
 379              		.section	.text.pg_prepare,"ax",%progbits
 380              		.align	1
 381              		.syntax unified
 382              		.thumb
 383              		.thumb_func
 384              		.fpu softvfp
 386              	pg_prepare:
 387              	.LVL31:
 388              	.LFB5:
 153:u8g2/csrc/u8g2_polygon.c **** 
 154:u8g2/csrc/u8g2_polygon.c **** static uint8_t pg_prepare(pg_struct *pg)
 155:u8g2/csrc/u8g2_polygon.c **** {
 389              		.loc 1 155 1 is_stmt 1 view -0
 390              		.cfi_startproc
 391              		@ args = 0, pretend = 0, frame = 0
 392              		@ frame_needed = 0, uses_anonymous_args = 0
 393              		.loc 1 155 1 is_stmt 0 view .LVU111
 394 0000 38B5     		push	{r3, r4, r5, lr}
 395              	.LCFI6:
 396              		.cfi_def_cfa_offset 16
 397              		.cfi_offset 3, -16
 398              		.cfi_offset 4, -12
 399              		.cfi_offset 5, -8
 400              		.cfi_offset 14, -4
 156:u8g2/csrc/u8g2_polygon.c ****   pg_word_t max_y;
 401              		.loc 1 156 3 is_stmt 1 view .LVU112
 157:u8g2/csrc/u8g2_polygon.c ****   pg_word_t min_y;
 402              		.loc 1 157 3 view .LVU113
 158:u8g2/csrc/u8g2_polygon.c ****   uint8_t i;
 403              		.loc 1 158 3 view .LVU114
 159:u8g2/csrc/u8g2_polygon.c **** 
 160:u8g2/csrc/u8g2_polygon.c ****   /* setup the next index procedures */
 161:u8g2/csrc/u8g2_polygon.c ****   pg->pge[PG_RIGHT].next_idx_fn = pg_inc;
 404              		.loc 1 161 3 view .LVU115
 405              		.loc 1 161 33 is_stmt 0 view .LVU116
 406 0002 284B     		ldr	r3, .L34
 407 0004 4364     		str	r3, [r0, #68]
 162:u8g2/csrc/u8g2_polygon.c ****   pg->pge[PG_LEFT].next_idx_fn = pg_dec;
ARM GAS  C:\Users\behun\AppData\Local\Temp\cc3fxkM4.s 			page 11


 408              		.loc 1 162 3 is_stmt 1 view .LVU117
 409              		.loc 1 162 32 is_stmt 0 view .LVU118
 410 0006 284B     		ldr	r3, .L34+4
 411 0008 C362     		str	r3, [r0, #44]
 163:u8g2/csrc/u8g2_polygon.c ****   
 164:u8g2/csrc/u8g2_polygon.c ****   /* search for highest and lowest point */
 165:u8g2/csrc/u8g2_polygon.c ****   max_y = pg->list[0].y;
 412              		.loc 1 165 3 is_stmt 1 view .LVU119
 413              		.loc 1 165 9 is_stmt 0 view .LVU120
 414 000a B0F90240 		ldrsh	r4, [r0, #2]
 415              	.LVL32:
 166:u8g2/csrc/u8g2_polygon.c ****   min_y = pg->list[0].y;
 416              		.loc 1 166 3 is_stmt 1 view .LVU121
 167:u8g2/csrc/u8g2_polygon.c ****   pg->pge[PG_LEFT].curr_idx = 0;
 417              		.loc 1 167 3 view .LVU122
 418              		.loc 1 167 29 is_stmt 0 view .LVU123
 419 000e 0023     		movs	r3, #0
 420 0010 80F83030 		strb	r3, [r0, #48]
 168:u8g2/csrc/u8g2_polygon.c ****   for( i = 1; i < pg->cnt; i++ )
 421              		.loc 1 168 3 is_stmt 1 view .LVU124
 422              	.LVL33:
 166:u8g2/csrc/u8g2_polygon.c ****   min_y = pg->list[0].y;
 423              		.loc 1 166 9 is_stmt 0 view .LVU125
 424 0014 2546     		mov	r5, r4
 425              		.loc 1 168 10 view .LVU126
 426 0016 0123     		movs	r3, #1
 427              		.loc 1 168 3 view .LVU127
 428 0018 01E0     		b	.L23
 429              	.LVL34:
 430              	.L25:
 431              		.loc 1 168 29 discriminator 2 view .LVU128
 432 001a 0133     		adds	r3, r3, #1
 433              	.LVL35:
 434              		.loc 1 168 29 discriminator 2 view .LVU129
 435 001c DBB2     		uxtb	r3, r3
 436              	.LVL36:
 437              	.L23:
 438              		.loc 1 168 21 discriminator 1 view .LVU130
 439 001e 027E     		ldrb	r2, [r0, #24]	@ zero_extendqisi2
 440              		.loc 1 168 3 discriminator 1 view .LVU131
 441 0020 9A42     		cmp	r2, r3
 442 0022 10D9     		bls	.L32
 169:u8g2/csrc/u8g2_polygon.c ****   {
 170:u8g2/csrc/u8g2_polygon.c ****     if ( max_y < pg->list[i].y )
 443              		.loc 1 170 5 is_stmt 1 view .LVU132
 444              		.loc 1 170 29 is_stmt 0 view .LVU133
 445 0024 1946     		mov	r1, r3
 446 0026 00EB8302 		add	r2, r0, r3, lsl #2
 447 002a B2F90220 		ldrsh	r2, [r2, #2]
 448              		.loc 1 170 8 view .LVU134
 449 002e A242     		cmp	r2, r4
 450 0030 00DD     		ble	.L24
 171:u8g2/csrc/u8g2_polygon.c ****     {
 172:u8g2/csrc/u8g2_polygon.c ****       max_y = pg->list[i].y;
 451              		.loc 1 172 7 is_stmt 1 view .LVU135
 452              		.loc 1 172 13 is_stmt 0 view .LVU136
 453 0032 1446     		mov	r4, r2
ARM GAS  C:\Users\behun\AppData\Local\Temp\cc3fxkM4.s 			page 12


 454              	.LVL37:
 455              	.L24:
 173:u8g2/csrc/u8g2_polygon.c ****     }
 174:u8g2/csrc/u8g2_polygon.c ****     if ( min_y > pg->list[i].y )
 456              		.loc 1 174 5 is_stmt 1 view .LVU137
 457              		.loc 1 174 8 is_stmt 0 view .LVU138
 458 0034 AA42     		cmp	r2, r5
 459 0036 F0DA     		bge	.L25
 175:u8g2/csrc/u8g2_polygon.c ****     {
 176:u8g2/csrc/u8g2_polygon.c ****       pg->pge[PG_LEFT].curr_idx = i;
 460              		.loc 1 176 7 is_stmt 1 view .LVU139
 461              		.loc 1 176 33 is_stmt 0 view .LVU140
 462 0038 80F83030 		strb	r3, [r0, #48]
 177:u8g2/csrc/u8g2_polygon.c ****       min_y = pg->list[i].y;
 463              		.loc 1 177 7 is_stmt 1 view .LVU141
 464              		.loc 1 177 13 is_stmt 0 view .LVU142
 465 003c 00EB8101 		add	r1, r0, r1, lsl #2
 466 0040 B1F90250 		ldrsh	r5, [r1, #2]
 467              	.LVL38:
 468              		.loc 1 177 13 view .LVU143
 469 0044 E9E7     		b	.L25
 470              	.L32:
 178:u8g2/csrc/u8g2_polygon.c ****     }
 179:u8g2/csrc/u8g2_polygon.c ****   }
 180:u8g2/csrc/u8g2_polygon.c **** 
 181:u8g2/csrc/u8g2_polygon.c ****   /* calculate total number of scan lines */
 182:u8g2/csrc/u8g2_polygon.c ****   pg->total_scan_line_cnt = max_y;
 471              		.loc 1 182 3 is_stmt 1 view .LVU144
 183:u8g2/csrc/u8g2_polygon.c ****   pg->total_scan_line_cnt -= min_y;
 472              		.loc 1 183 3 view .LVU145
 473              		.loc 1 183 27 is_stmt 0 view .LVU146
 474 0046 641B     		subs	r4, r4, r5
 475              	.LVL39:
 476              		.loc 1 183 27 view .LVU147
 477 0048 24B2     		sxth	r4, r4
 478 004a 4483     		strh	r4, [r0, #26]	@ movhi
 184:u8g2/csrc/u8g2_polygon.c ****   
 185:u8g2/csrc/u8g2_polygon.c ****   /* exit if polygon height is zero */
 186:u8g2/csrc/u8g2_polygon.c ****   if ( pg->total_scan_line_cnt == 0 )
 479              		.loc 1 186 3 is_stmt 1 view .LVU148
 480              		.loc 1 186 6 is_stmt 0 view .LVU149
 481 004c 0CB9     		cbnz	r4, .L33
 187:u8g2/csrc/u8g2_polygon.c ****     return 0;
 482              		.loc 1 187 12 view .LVU150
 483 004e 0020     		movs	r0, #0
 484              	.LVL40:
 485              	.L27:
 188:u8g2/csrc/u8g2_polygon.c ****   
 189:u8g2/csrc/u8g2_polygon.c ****   /* if the minimum y side is flat, try to find the lowest and highest x points */
 190:u8g2/csrc/u8g2_polygon.c ****   pg->pge[PG_RIGHT].curr_idx = pg->pge[PG_LEFT].curr_idx;  
 191:u8g2/csrc/u8g2_polygon.c ****   pg_expand_min_y(pg, min_y, PG_RIGHT);
 192:u8g2/csrc/u8g2_polygon.c ****   pg_expand_min_y(pg, min_y, PG_LEFT);
 193:u8g2/csrc/u8g2_polygon.c ****   
 194:u8g2/csrc/u8g2_polygon.c ****   /* check if the min side is really flat (depends on the x values) */
 195:u8g2/csrc/u8g2_polygon.c ****   pg->is_min_y_not_flat = 1;
 196:u8g2/csrc/u8g2_polygon.c ****   if ( pg->list[pg->pge[PG_LEFT].curr_idx].x != pg->list[pg->pge[PG_RIGHT].curr_idx].x )
 197:u8g2/csrc/u8g2_polygon.c ****   {
ARM GAS  C:\Users\behun\AppData\Local\Temp\cc3fxkM4.s 			page 13


 198:u8g2/csrc/u8g2_polygon.c ****     pg->is_min_y_not_flat = 0;
 199:u8g2/csrc/u8g2_polygon.c ****   }
 200:u8g2/csrc/u8g2_polygon.c ****   else
 201:u8g2/csrc/u8g2_polygon.c ****   {
 202:u8g2/csrc/u8g2_polygon.c ****     pg->total_scan_line_cnt--;
 203:u8g2/csrc/u8g2_polygon.c ****     if ( pg->total_scan_line_cnt == 0 )
 204:u8g2/csrc/u8g2_polygon.c ****       return 0;
 205:u8g2/csrc/u8g2_polygon.c ****   }
 206:u8g2/csrc/u8g2_polygon.c **** 
 207:u8g2/csrc/u8g2_polygon.c ****   return 1;
 208:u8g2/csrc/u8g2_polygon.c **** }
 486              		.loc 1 208 1 view .LVU151
 487 0050 38BD     		pop	{r3, r4, r5, pc}
 488              	.LVL41:
 489              	.L33:
 490              		.loc 1 208 1 view .LVU152
 491 0052 0446     		mov	r4, r0
 190:u8g2/csrc/u8g2_polygon.c ****   pg_expand_min_y(pg, min_y, PG_RIGHT);
 492              		.loc 1 190 3 is_stmt 1 view .LVU153
 190:u8g2/csrc/u8g2_polygon.c ****   pg_expand_min_y(pg, min_y, PG_RIGHT);
 493              		.loc 1 190 48 is_stmt 0 view .LVU154
 494 0054 90F83030 		ldrb	r3, [r0, #48]	@ zero_extendqisi2
 495              	.LVL42:
 190:u8g2/csrc/u8g2_polygon.c ****   pg_expand_min_y(pg, min_y, PG_RIGHT);
 496              		.loc 1 190 30 view .LVU155
 497 0058 80F84830 		strb	r3, [r0, #72]
 191:u8g2/csrc/u8g2_polygon.c ****   pg_expand_min_y(pg, min_y, PG_LEFT);
 498              		.loc 1 191 3 is_stmt 1 view .LVU156
 499 005c 0122     		movs	r2, #1
 500 005e 2946     		mov	r1, r5
 501 0060 FFF7FEFF 		bl	pg_expand_min_y
 502              	.LVL43:
 192:u8g2/csrc/u8g2_polygon.c ****   
 503              		.loc 1 192 3 view .LVU157
 504 0064 0022     		movs	r2, #0
 505 0066 2946     		mov	r1, r5
 506 0068 2046     		mov	r0, r4
 507 006a FFF7FEFF 		bl	pg_expand_min_y
 508              	.LVL44:
 195:u8g2/csrc/u8g2_polygon.c ****   if ( pg->list[pg->pge[PG_LEFT].curr_idx].x != pg->list[pg->pge[PG_RIGHT].curr_idx].x )
 509              		.loc 1 195 3 view .LVU158
 195:u8g2/csrc/u8g2_polygon.c ****   if ( pg->list[pg->pge[PG_LEFT].curr_idx].x != pg->list[pg->pge[PG_RIGHT].curr_idx].x )
 510              		.loc 1 195 25 is_stmt 0 view .LVU159
 511 006e 0123     		movs	r3, #1
 512 0070 6376     		strb	r3, [r4, #25]
 196:u8g2/csrc/u8g2_polygon.c ****   {
 513              		.loc 1 196 3 is_stmt 1 view .LVU160
 196:u8g2/csrc/u8g2_polygon.c ****   {
 514              		.loc 1 196 33 is_stmt 0 view .LVU161
 515 0072 94F83030 		ldrb	r3, [r4, #48]	@ zero_extendqisi2
 196:u8g2/csrc/u8g2_polygon.c ****   {
 516              		.loc 1 196 43 view .LVU162
 517 0076 34F92320 		ldrsh	r2, [r4, r3, lsl #2]
 196:u8g2/csrc/u8g2_polygon.c ****   {
 518              		.loc 1 196 75 view .LVU163
 519 007a 94F84830 		ldrb	r3, [r4, #72]	@ zero_extendqisi2
 196:u8g2/csrc/u8g2_polygon.c ****   {
ARM GAS  C:\Users\behun\AppData\Local\Temp\cc3fxkM4.s 			page 14


 520              		.loc 1 196 85 view .LVU164
 521 007e 34F92330 		ldrsh	r3, [r4, r3, lsl #2]
 196:u8g2/csrc/u8g2_polygon.c ****   {
 522              		.loc 1 196 6 view .LVU165
 523 0082 9A42     		cmp	r2, r3
 524 0084 03D0     		beq	.L28
 198:u8g2/csrc/u8g2_polygon.c ****   }
 525              		.loc 1 198 5 is_stmt 1 view .LVU166
 198:u8g2/csrc/u8g2_polygon.c ****   }
 526              		.loc 1 198 27 is_stmt 0 view .LVU167
 527 0086 0023     		movs	r3, #0
 528 0088 6376     		strb	r3, [r4, #25]
 207:u8g2/csrc/u8g2_polygon.c **** }
 529              		.loc 1 207 10 view .LVU168
 530 008a 0120     		movs	r0, #1
 531 008c E0E7     		b	.L27
 532              	.L28:
 202:u8g2/csrc/u8g2_polygon.c ****     if ( pg->total_scan_line_cnt == 0 )
 533              		.loc 1 202 5 is_stmt 1 view .LVU169
 202:u8g2/csrc/u8g2_polygon.c ****     if ( pg->total_scan_line_cnt == 0 )
 534              		.loc 1 202 7 is_stmt 0 view .LVU170
 535 008e B4F91A30 		ldrsh	r3, [r4, #26]
 202:u8g2/csrc/u8g2_polygon.c ****     if ( pg->total_scan_line_cnt == 0 )
 536              		.loc 1 202 28 view .LVU171
 537 0092 013B     		subs	r3, r3, #1
 538 0094 1BB2     		sxth	r3, r3
 539 0096 6383     		strh	r3, [r4, #26]	@ movhi
 203:u8g2/csrc/u8g2_polygon.c ****       return 0;
 540              		.loc 1 203 5 is_stmt 1 view .LVU172
 203:u8g2/csrc/u8g2_polygon.c ****       return 0;
 541              		.loc 1 203 8 is_stmt 0 view .LVU173
 542 0098 0BB1     		cbz	r3, .L30
 207:u8g2/csrc/u8g2_polygon.c **** }
 543              		.loc 1 207 10 view .LVU174
 544 009a 0120     		movs	r0, #1
 545 009c D8E7     		b	.L27
 546              	.L30:
 204:u8g2/csrc/u8g2_polygon.c ****   }
 547              		.loc 1 204 14 view .LVU175
 548 009e 0020     		movs	r0, #0
 549 00a0 D6E7     		b	.L27
 550              	.L35:
 551 00a2 00BF     		.align	2
 552              	.L34:
 553 00a4 00000000 		.word	pg_inc
 554 00a8 00000000 		.word	pg_dec
 555              		.cfi_endproc
 556              	.LFE5:
 558              		.section	.text.pg_line_init,"ax",%progbits
 559              		.align	1
 560              		.syntax unified
 561              		.thumb
 562              		.thumb_func
 563              		.fpu softvfp
 565              	pg_line_init:
 566              	.LVL45:
 567              	.LFB7:
ARM GAS  C:\Users\behun\AppData\Local\Temp\cc3fxkM4.s 			page 15


 209:u8g2/csrc/u8g2_polygon.c **** 
 210:u8g2/csrc/u8g2_polygon.c **** static void pg_hline(pg_struct *pg, u8g2_t *u8g2)
 211:u8g2/csrc/u8g2_polygon.c **** {
 212:u8g2/csrc/u8g2_polygon.c ****   pg_word_t x1, x2, y;
 213:u8g2/csrc/u8g2_polygon.c ****   x1 = pg->pge[PG_LEFT].current_x;
 214:u8g2/csrc/u8g2_polygon.c ****   x2 = pg->pge[PG_RIGHT].current_x;
 215:u8g2/csrc/u8g2_polygon.c ****   y = pg->pge[PG_RIGHT].current_y;
 216:u8g2/csrc/u8g2_polygon.c ****   
 217:u8g2/csrc/u8g2_polygon.c ****   if ( y < 0 )
 218:u8g2/csrc/u8g2_polygon.c ****     return;
 219:u8g2/csrc/u8g2_polygon.c ****   if ( y >= u8g2_GetDisplayHeight(u8g2) )  // does not work for 256x64 display???
 220:u8g2/csrc/u8g2_polygon.c ****     return;
 221:u8g2/csrc/u8g2_polygon.c ****   if ( x1 < x2 )
 222:u8g2/csrc/u8g2_polygon.c ****   {
 223:u8g2/csrc/u8g2_polygon.c ****     if ( x2 < 0 )
 224:u8g2/csrc/u8g2_polygon.c ****       return;
 225:u8g2/csrc/u8g2_polygon.c ****     if ( x1 >= u8g2_GetDisplayWidth(u8g2) )
 226:u8g2/csrc/u8g2_polygon.c ****       return;
 227:u8g2/csrc/u8g2_polygon.c ****     if ( x1 < 0 )
 228:u8g2/csrc/u8g2_polygon.c ****       x1 = 0;
 229:u8g2/csrc/u8g2_polygon.c ****     if ( x2 >= u8g2_GetDisplayWidth(u8g2) )
 230:u8g2/csrc/u8g2_polygon.c ****       x2 = u8g2_GetDisplayWidth(u8g2);
 231:u8g2/csrc/u8g2_polygon.c ****     u8g2_DrawHLine(u8g2, x1, y, x2 - x1);
 232:u8g2/csrc/u8g2_polygon.c ****   }
 233:u8g2/csrc/u8g2_polygon.c ****   else
 234:u8g2/csrc/u8g2_polygon.c ****   {
 235:u8g2/csrc/u8g2_polygon.c ****     if ( x1 < 0 )
 236:u8g2/csrc/u8g2_polygon.c ****       return;
 237:u8g2/csrc/u8g2_polygon.c ****     if ( x2 >= u8g2_GetDisplayWidth(u8g2) )
 238:u8g2/csrc/u8g2_polygon.c ****       return;
 239:u8g2/csrc/u8g2_polygon.c ****     if ( x2 < 0 )
 240:u8g2/csrc/u8g2_polygon.c ****       x1 = 0;
 241:u8g2/csrc/u8g2_polygon.c ****     if ( x1 >= u8g2_GetDisplayWidth(u8g2) )
 242:u8g2/csrc/u8g2_polygon.c ****       x1 = u8g2_GetDisplayWidth(u8g2);
 243:u8g2/csrc/u8g2_polygon.c ****     u8g2_DrawHLine(u8g2, x2, y, x1 - x2);
 244:u8g2/csrc/u8g2_polygon.c ****   }
 245:u8g2/csrc/u8g2_polygon.c **** }
 246:u8g2/csrc/u8g2_polygon.c **** 
 247:u8g2/csrc/u8g2_polygon.c **** static void pg_line_init(pg_struct * const pg, uint8_t pge_index)
 248:u8g2/csrc/u8g2_polygon.c **** {
 568              		.loc 1 248 1 is_stmt 1 view -0
 569              		.cfi_startproc
 570              		@ args = 0, pretend = 0, frame = 0
 571              		@ frame_needed = 0, uses_anonymous_args = 0
 572              		.loc 1 248 1 is_stmt 0 view .LVU177
 573 0000 F0B5     		push	{r4, r5, r6, r7, lr}
 574              	.LCFI7:
 575              		.cfi_def_cfa_offset 20
 576              		.cfi_offset 4, -20
 577              		.cfi_offset 5, -16
 578              		.cfi_offset 6, -12
 579              		.cfi_offset 7, -8
 580              		.cfi_offset 14, -4
 581 0002 83B0     		sub	sp, sp, #12
 582              	.LCFI8:
 583              		.cfi_def_cfa_offset 32
 584 0004 0546     		mov	r5, r0
ARM GAS  C:\Users\behun\AppData\Local\Temp\cc3fxkM4.s 			page 16


 249:u8g2/csrc/u8g2_polygon.c ****   struct pg_edge_struct  *pge = pg->pge+pge_index;
 585              		.loc 1 249 3 is_stmt 1 view .LVU178
 586              		.loc 1 249 33 is_stmt 0 view .LVU179
 587 0006 00F11C04 		add	r4, r0, #28
 588              		.loc 1 249 40 view .LVU180
 589 000a 01EB4101 		add	r1, r1, r1, lsl #1
 590              	.LVL46:
 591              		.loc 1 249 40 view .LVU181
 592 000e CB00     		lsls	r3, r1, #3
 593              		.loc 1 249 27 view .LVU182
 594 0010 1C44     		add	r4, r4, r3
 595              	.LVL47:
 250:u8g2/csrc/u8g2_polygon.c ****   uint8_t idx;  
 596              		.loc 1 250 3 is_stmt 1 view .LVU183
 251:u8g2/csrc/u8g2_polygon.c ****   pg_word_t x1;
 597              		.loc 1 251 3 view .LVU184
 252:u8g2/csrc/u8g2_polygon.c ****   pg_word_t y1;
 598              		.loc 1 252 3 view .LVU185
 253:u8g2/csrc/u8g2_polygon.c ****   pg_word_t x2;
 599              		.loc 1 253 3 view .LVU186
 254:u8g2/csrc/u8g2_polygon.c ****   pg_word_t y2;
 600              		.loc 1 254 3 view .LVU187
 255:u8g2/csrc/u8g2_polygon.c **** 
 256:u8g2/csrc/u8g2_polygon.c ****   idx = pge->curr_idx;  
 601              		.loc 1 256 3 view .LVU188
 602              		.loc 1 256 7 is_stmt 0 view .LVU189
 603 0012 217D     		ldrb	r1, [r4, #20]	@ zero_extendqisi2
 604              	.LVL48:
 257:u8g2/csrc/u8g2_polygon.c ****   y1 = pg->list[idx].y;
 605              		.loc 1 257 3 is_stmt 1 view .LVU190
 606              		.loc 1 257 6 is_stmt 0 view .LVU191
 607 0014 00EB8103 		add	r3, r0, r1, lsl #2
 608 0018 B3F90270 		ldrsh	r7, [r3, #2]
 609              	.LVL49:
 258:u8g2/csrc/u8g2_polygon.c ****   x1 = pg->list[idx].x;
 610              		.loc 1 258 3 is_stmt 1 view .LVU192
 611              		.loc 1 258 6 is_stmt 0 view .LVU193
 612 001c 30F92160 		ldrsh	r6, [r0, r1, lsl #2]
 613              	.LVL50:
 259:u8g2/csrc/u8g2_polygon.c ****   idx = pge->next_idx_fn(pg, idx);
 614              		.loc 1 259 3 is_stmt 1 view .LVU194
 615              		.loc 1 259 12 is_stmt 0 view .LVU195
 616 0020 2369     		ldr	r3, [r4, #16]
 617              		.loc 1 259 9 view .LVU196
 618 0022 9847     		blx	r3
 619              	.LVL51:
 260:u8g2/csrc/u8g2_polygon.c ****   y2 = pg->list[idx].y;
 620              		.loc 1 260 3 is_stmt 1 view .LVU197
 621              		.loc 1 260 6 is_stmt 0 view .LVU198
 622 0024 05EB8003 		add	r3, r5, r0, lsl #2
 623 0028 B3F90220 		ldrsh	r2, [r3, #2]
 624              	.LVL52:
 261:u8g2/csrc/u8g2_polygon.c ****   x2 = pg->list[idx].x; 
 625              		.loc 1 261 3 is_stmt 1 view .LVU199
 626              		.loc 1 261 6 is_stmt 0 view .LVU200
 627 002c 35F92030 		ldrsh	r3, [r5, r0, lsl #2]
 628              	.LVL53:
ARM GAS  C:\Users\behun\AppData\Local\Temp\cc3fxkM4.s 			page 17


 262:u8g2/csrc/u8g2_polygon.c ****   pge->curr_idx = idx;
 629              		.loc 1 262 3 is_stmt 1 view .LVU201
 630              		.loc 1 262 17 is_stmt 0 view .LVU202
 631 0030 2075     		strb	r0, [r4, #20]
 263:u8g2/csrc/u8g2_polygon.c ****   
 264:u8g2/csrc/u8g2_polygon.c ****   pge_Init(pge, x1, y1, x2, y2);
 632              		.loc 1 264 3 is_stmt 1 view .LVU203
 633 0032 0092     		str	r2, [sp]
 634 0034 3A46     		mov	r2, r7
 635              	.LVL54:
 636              		.loc 1 264 3 is_stmt 0 view .LVU204
 637 0036 3146     		mov	r1, r6
 638 0038 2046     		mov	r0, r4
 639              	.LVL55:
 640              		.loc 1 264 3 view .LVU205
 641 003a FFF7FEFF 		bl	pge_Init
 642              	.LVL56:
 265:u8g2/csrc/u8g2_polygon.c **** }
 643              		.loc 1 265 1 view .LVU206
 644 003e 03B0     		add	sp, sp, #12
 645              	.LCFI9:
 646              		.cfi_def_cfa_offset 20
 647              		@ sp needed
 648 0040 F0BD     		pop	{r4, r5, r6, r7, pc}
 649              		.loc 1 265 1 view .LVU207
 650              		.cfi_endproc
 651              	.LFE7:
 653              		.section	.text.pg_hline,"ax",%progbits
 654              		.align	1
 655              		.syntax unified
 656              		.thumb
 657              		.thumb_func
 658              		.fpu softvfp
 660              	pg_hline:
 661              	.LVL57:
 662              	.LFB6:
 211:u8g2/csrc/u8g2_polygon.c ****   pg_word_t x1, x2, y;
 663              		.loc 1 211 1 is_stmt 1 view -0
 664              		.cfi_startproc
 665              		@ args = 0, pretend = 0, frame = 0
 666              		@ frame_needed = 0, uses_anonymous_args = 0
 211:u8g2/csrc/u8g2_polygon.c ****   pg_word_t x1, x2, y;
 667              		.loc 1 211 1 is_stmt 0 view .LVU209
 668 0000 10B5     		push	{r4, lr}
 669              	.LCFI10:
 670              		.cfi_def_cfa_offset 8
 671              		.cfi_offset 4, -8
 672              		.cfi_offset 14, -4
 212:u8g2/csrc/u8g2_polygon.c ****   x1 = pg->pge[PG_LEFT].current_x;
 673              		.loc 1 212 3 is_stmt 1 view .LVU210
 213:u8g2/csrc/u8g2_polygon.c ****   x2 = pg->pge[PG_RIGHT].current_x;
 674              		.loc 1 213 3 view .LVU211
 213:u8g2/csrc/u8g2_polygon.c ****   x2 = pg->pge[PG_RIGHT].current_x;
 675              		.loc 1 213 6 is_stmt 0 view .LVU212
 676 0002 B0F92830 		ldrsh	r3, [r0, #40]
 677              	.LVL58:
 214:u8g2/csrc/u8g2_polygon.c ****   y = pg->pge[PG_RIGHT].current_y;
ARM GAS  C:\Users\behun\AppData\Local\Temp\cc3fxkM4.s 			page 18


 678              		.loc 1 214 3 is_stmt 1 view .LVU213
 214:u8g2/csrc/u8g2_polygon.c ****   y = pg->pge[PG_RIGHT].current_y;
 679              		.loc 1 214 6 is_stmt 0 view .LVU214
 680 0006 B0F94040 		ldrsh	r4, [r0, #64]
 681              	.LVL59:
 215:u8g2/csrc/u8g2_polygon.c ****   
 682              		.loc 1 215 3 is_stmt 1 view .LVU215
 215:u8g2/csrc/u8g2_polygon.c ****   
 683              		.loc 1 215 5 is_stmt 0 view .LVU216
 684 000a B0F93C20 		ldrsh	r2, [r0, #60]
 685              	.LVL60:
 217:u8g2/csrc/u8g2_polygon.c ****     return;
 686              		.loc 1 217 3 is_stmt 1 view .LVU217
 217:u8g2/csrc/u8g2_polygon.c ****     return;
 687              		.loc 1 217 6 is_stmt 0 view .LVU218
 688 000e 002A     		cmp	r2, #0
 689 0010 17DB     		blt	.L38
 219:u8g2/csrc/u8g2_polygon.c ****     return;
 690              		.loc 1 219 3 is_stmt 1 view .LVU219
 219:u8g2/csrc/u8g2_polygon.c ****     return;
 691              		.loc 1 219 13 is_stmt 0 view .LVU220
 692 0012 91F84000 		ldrb	r0, [r1, #64]	@ zero_extendqisi2
 693              	.LVL61:
 219:u8g2/csrc/u8g2_polygon.c ****     return;
 694              		.loc 1 219 6 view .LVU221
 695 0016 8242     		cmp	r2, r0
 696 0018 13DA     		bge	.L38
 697 001a 0846     		mov	r0, r1
 221:u8g2/csrc/u8g2_polygon.c ****   {
 698              		.loc 1 221 3 is_stmt 1 view .LVU222
 221:u8g2/csrc/u8g2_polygon.c ****   {
 699              		.loc 1 221 6 is_stmt 0 view .LVU223
 700 001c A342     		cmp	r3, r4
 701 001e 13DA     		bge	.L40
 223:u8g2/csrc/u8g2_polygon.c ****       return;
 702              		.loc 1 223 5 is_stmt 1 view .LVU224
 223:u8g2/csrc/u8g2_polygon.c ****       return;
 703              		.loc 1 223 8 is_stmt 0 view .LVU225
 704 0020 002C     		cmp	r4, #0
 705 0022 0EDB     		blt	.L38
 225:u8g2/csrc/u8g2_polygon.c ****       return;
 706              		.loc 1 225 5 is_stmt 1 view .LVU226
 225:u8g2/csrc/u8g2_polygon.c ****       return;
 707              		.loc 1 225 16 is_stmt 0 view .LVU227
 708 0024 91F83F10 		ldrb	r1, [r1, #63]	@ zero_extendqisi2
 709              	.LVL62:
 225:u8g2/csrc/u8g2_polygon.c ****       return;
 710              		.loc 1 225 8 view .LVU228
 711 0028 8B42     		cmp	r3, r1
 712 002a 0ADA     		bge	.L38
 227:u8g2/csrc/u8g2_polygon.c ****       x1 = 0;
 713              		.loc 1 227 5 is_stmt 1 view .LVU229
 227:u8g2/csrc/u8g2_polygon.c ****       x1 = 0;
 714              		.loc 1 227 8 is_stmt 0 view .LVU230
 715 002c 002B     		cmp	r3, #0
 716 002e 09DB     		blt	.L48
 717              	.LVL63:
ARM GAS  C:\Users\behun\AppData\Local\Temp\cc3fxkM4.s 			page 19


 718              	.L41:
 229:u8g2/csrc/u8g2_polygon.c ****       x2 = u8g2_GetDisplayWidth(u8g2);
 719              		.loc 1 229 5 is_stmt 1 view .LVU231
 229:u8g2/csrc/u8g2_polygon.c ****       x2 = u8g2_GetDisplayWidth(u8g2);
 720              		.loc 1 229 8 is_stmt 0 view .LVU232
 721 0030 A142     		cmp	r1, r4
 722 0032 00DC     		bgt	.L42
 230:u8g2/csrc/u8g2_polygon.c ****     u8g2_DrawHLine(u8g2, x1, y, x2 - x1);
 723              		.loc 1 230 7 is_stmt 1 view .LVU233
 230:u8g2/csrc/u8g2_polygon.c ****     u8g2_DrawHLine(u8g2, x1, y, x2 - x1);
 724              		.loc 1 230 10 is_stmt 0 view .LVU234
 725 0034 0CB2     		sxth	r4, r1
 726              	.LVL64:
 727              	.L42:
 231:u8g2/csrc/u8g2_polygon.c ****   }
 728              		.loc 1 231 5 is_stmt 1 view .LVU235
 729 0036 D9B2     		uxtb	r1, r3
 730 0038 631A     		subs	r3, r4, r1
 731              	.LVL65:
 231:u8g2/csrc/u8g2_polygon.c ****   }
 732              		.loc 1 231 5 is_stmt 0 view .LVU236
 733 003a DBB2     		uxtb	r3, r3
 734 003c D2B2     		uxtb	r2, r2
 735              	.LVL66:
 231:u8g2/csrc/u8g2_polygon.c ****   }
 736              		.loc 1 231 5 view .LVU237
 737 003e FFF7FEFF 		bl	u8g2_DrawHLine
 738              	.LVL67:
 739              	.L38:
 245:u8g2/csrc/u8g2_polygon.c **** 
 740              		.loc 1 245 1 view .LVU238
 741 0042 10BD     		pop	{r4, pc}
 742              	.LVL68:
 743              	.L48:
 228:u8g2/csrc/u8g2_polygon.c ****     if ( x2 >= u8g2_GetDisplayWidth(u8g2) )
 744              		.loc 1 228 10 view .LVU239
 745 0044 0023     		movs	r3, #0
 746              	.LVL69:
 228:u8g2/csrc/u8g2_polygon.c ****     if ( x2 >= u8g2_GetDisplayWidth(u8g2) )
 747              		.loc 1 228 10 view .LVU240
 748 0046 F3E7     		b	.L41
 749              	.LVL70:
 750              	.L40:
 235:u8g2/csrc/u8g2_polygon.c ****       return;
 751              		.loc 1 235 5 is_stmt 1 view .LVU241
 235:u8g2/csrc/u8g2_polygon.c ****       return;
 752              		.loc 1 235 8 is_stmt 0 view .LVU242
 753 0048 002B     		cmp	r3, #0
 754 004a FADB     		blt	.L38
 237:u8g2/csrc/u8g2_polygon.c ****       return;
 755              		.loc 1 237 5 is_stmt 1 view .LVU243
 237:u8g2/csrc/u8g2_polygon.c ****       return;
 756              		.loc 1 237 16 is_stmt 0 view .LVU244
 757 004c 91F83F10 		ldrb	r1, [r1, #63]	@ zero_extendqisi2
 237:u8g2/csrc/u8g2_polygon.c ****       return;
 758              		.loc 1 237 8 view .LVU245
 759 0050 8C42     		cmp	r4, r1
ARM GAS  C:\Users\behun\AppData\Local\Temp\cc3fxkM4.s 			page 20


 760 0052 F6DA     		bge	.L38
 239:u8g2/csrc/u8g2_polygon.c ****       x1 = 0;
 761              		.loc 1 239 5 is_stmt 1 view .LVU246
 239:u8g2/csrc/u8g2_polygon.c ****       x1 = 0;
 762              		.loc 1 239 8 is_stmt 0 view .LVU247
 763 0054 002C     		cmp	r4, #0
 764 0056 09DB     		blt	.L49
 765              	.LVL71:
 766              	.L43:
 241:u8g2/csrc/u8g2_polygon.c ****       x1 = u8g2_GetDisplayWidth(u8g2);
 767              		.loc 1 241 5 is_stmt 1 view .LVU248
 241:u8g2/csrc/u8g2_polygon.c ****       x1 = u8g2_GetDisplayWidth(u8g2);
 768              		.loc 1 241 8 is_stmt 0 view .LVU249
 769 0058 9942     		cmp	r1, r3
 770 005a 00DC     		bgt	.L44
 242:u8g2/csrc/u8g2_polygon.c ****     u8g2_DrawHLine(u8g2, x2, y, x1 - x2);
 771              		.loc 1 242 7 is_stmt 1 view .LVU250
 242:u8g2/csrc/u8g2_polygon.c ****     u8g2_DrawHLine(u8g2, x2, y, x1 - x2);
 772              		.loc 1 242 10 is_stmt 0 view .LVU251
 773 005c 0BB2     		sxth	r3, r1
 774              	.LVL72:
 775              	.L44:
 243:u8g2/csrc/u8g2_polygon.c ****   }
 776              		.loc 1 243 5 is_stmt 1 view .LVU252
 777 005e E1B2     		uxtb	r1, r4
 778 0060 5B1A     		subs	r3, r3, r1
 779              	.LVL73:
 243:u8g2/csrc/u8g2_polygon.c ****   }
 780              		.loc 1 243 5 is_stmt 0 view .LVU253
 781 0062 DBB2     		uxtb	r3, r3
 782 0064 D2B2     		uxtb	r2, r2
 783              	.LVL74:
 243:u8g2/csrc/u8g2_polygon.c ****   }
 784              		.loc 1 243 5 view .LVU254
 785 0066 FFF7FEFF 		bl	u8g2_DrawHLine
 786              	.LVL75:
 243:u8g2/csrc/u8g2_polygon.c ****   }
 787              		.loc 1 243 5 view .LVU255
 788 006a EAE7     		b	.L38
 789              	.LVL76:
 790              	.L49:
 240:u8g2/csrc/u8g2_polygon.c ****     if ( x1 >= u8g2_GetDisplayWidth(u8g2) )
 791              		.loc 1 240 10 view .LVU256
 792 006c 0023     		movs	r3, #0
 793              	.LVL77:
 240:u8g2/csrc/u8g2_polygon.c ****     if ( x1 >= u8g2_GetDisplayWidth(u8g2) )
 794              		.loc 1 240 10 view .LVU257
 795 006e F3E7     		b	.L43
 796              		.cfi_endproc
 797              	.LFE6:
 799              		.section	.text.pg_exec,"ax",%progbits
 800              		.align	1
 801              		.syntax unified
 802              		.thumb
 803              		.thumb_func
 804              		.fpu softvfp
 806              	pg_exec:
ARM GAS  C:\Users\behun\AppData\Local\Temp\cc3fxkM4.s 			page 21


 807              	.LVL78:
 808              	.LFB8:
 266:u8g2/csrc/u8g2_polygon.c **** 
 267:u8g2/csrc/u8g2_polygon.c **** static void pg_exec(pg_struct *pg, u8g2_t *u8g2)
 268:u8g2/csrc/u8g2_polygon.c **** {
 809              		.loc 1 268 1 is_stmt 1 view -0
 810              		.cfi_startproc
 811              		@ args = 0, pretend = 0, frame = 0
 812              		@ frame_needed = 0, uses_anonymous_args = 0
 813              		.loc 1 268 1 is_stmt 0 view .LVU259
 814 0000 70B5     		push	{r4, r5, r6, lr}
 815              	.LCFI11:
 816              		.cfi_def_cfa_offset 16
 817              		.cfi_offset 4, -16
 818              		.cfi_offset 5, -12
 819              		.cfi_offset 6, -8
 820              		.cfi_offset 14, -4
 821 0002 0446     		mov	r4, r0
 822 0004 0E46     		mov	r6, r1
 269:u8g2/csrc/u8g2_polygon.c ****   pg_word_t i = pg->total_scan_line_cnt;
 823              		.loc 1 269 3 is_stmt 1 view .LVU260
 824              		.loc 1 269 13 is_stmt 0 view .LVU261
 825 0006 B0F91A50 		ldrsh	r5, [r0, #26]
 826              	.LVL79:
 270:u8g2/csrc/u8g2_polygon.c **** 
 271:u8g2/csrc/u8g2_polygon.c ****   /* first line is skipped if the min y line is not flat */
 272:u8g2/csrc/u8g2_polygon.c ****   pg_line_init(pg, PG_LEFT);		
 827              		.loc 1 272 3 is_stmt 1 view .LVU262
 828 000a 0021     		movs	r1, #0
 829              	.LVL80:
 830              		.loc 1 272 3 is_stmt 0 view .LVU263
 831 000c FFF7FEFF 		bl	pg_line_init
 832              	.LVL81:
 273:u8g2/csrc/u8g2_polygon.c ****   pg_line_init(pg, PG_RIGHT);
 833              		.loc 1 273 3 is_stmt 1 view .LVU264
 834 0010 0121     		movs	r1, #1
 835 0012 2046     		mov	r0, r4
 836 0014 FFF7FEFF 		bl	pg_line_init
 837              	.LVL82:
 274:u8g2/csrc/u8g2_polygon.c ****   
 275:u8g2/csrc/u8g2_polygon.c ****   if ( pg->is_min_y_not_flat != 0 )
 838              		.loc 1 275 3 view .LVU265
 839              		.loc 1 275 10 is_stmt 0 view .LVU266
 840 0018 637E     		ldrb	r3, [r4, #25]	@ zero_extendqisi2
 841              		.loc 1 275 6 view .LVU267
 842 001a B3B1     		cbz	r3, .L56
 276:u8g2/csrc/u8g2_polygon.c ****   {
 277:u8g2/csrc/u8g2_polygon.c ****     pge_Next(&(pg->pge[PG_LEFT])); 
 843              		.loc 1 277 5 is_stmt 1 view .LVU268
 844 001c 04F11C00 		add	r0, r4, #28
 845 0020 FFF7FEFF 		bl	pge_Next
 846              	.LVL83:
 278:u8g2/csrc/u8g2_polygon.c ****     pge_Next(&(pg->pge[PG_RIGHT]));
 847              		.loc 1 278 5 view .LVU269
 848 0024 04F13400 		add	r0, r4, #52
 849 0028 FFF7FEFF 		bl	pge_Next
 850              	.LVL84:
ARM GAS  C:\Users\behun\AppData\Local\Temp\cc3fxkM4.s 			page 22


 851 002c 0DE0     		b	.L56
 852              	.L54:
 279:u8g2/csrc/u8g2_polygon.c ****   }
 280:u8g2/csrc/u8g2_polygon.c **** 
 281:u8g2/csrc/u8g2_polygon.c ****   do
 282:u8g2/csrc/u8g2_polygon.c ****   {
 283:u8g2/csrc/u8g2_polygon.c ****     pg_hline(pg, u8g2);
 284:u8g2/csrc/u8g2_polygon.c ****     while ( pge_Next(&(pg->pge[PG_LEFT])) == 0 )
 285:u8g2/csrc/u8g2_polygon.c ****     {
 286:u8g2/csrc/u8g2_polygon.c ****       pg_line_init(pg, PG_LEFT);
 287:u8g2/csrc/u8g2_polygon.c ****     }
 288:u8g2/csrc/u8g2_polygon.c ****     while ( pge_Next(&(pg->pge[PG_RIGHT])) == 0 )
 853              		.loc 1 288 13 is_stmt 0 view .LVU270
 854 002e 04F13400 		add	r0, r4, #52
 855 0032 FFF7FEFF 		bl	pge_Next
 856              	.LVL85:
 857              		.loc 1 288 11 view .LVU271
 858 0036 20B9     		cbnz	r0, .L58
 289:u8g2/csrc/u8g2_polygon.c ****     {
 290:u8g2/csrc/u8g2_polygon.c ****       pg_line_init(pg, PG_RIGHT);
 859              		.loc 1 290 7 is_stmt 1 view .LVU272
 860 0038 0121     		movs	r1, #1
 861 003a 2046     		mov	r0, r4
 862 003c FFF7FEFF 		bl	pg_line_init
 863              	.LVL86:
 864 0040 F5E7     		b	.L54
 865              	.L58:
 291:u8g2/csrc/u8g2_polygon.c ****     }
 292:u8g2/csrc/u8g2_polygon.c ****     i--;
 866              		.loc 1 292 5 view .LVU273
 867              		.loc 1 292 6 is_stmt 0 view .LVU274
 868 0042 013D     		subs	r5, r5, #1
 869              	.LVL87:
 870              		.loc 1 292 6 view .LVU275
 871 0044 2DB2     		sxth	r5, r5
 872              	.LVL88:
 293:u8g2/csrc/u8g2_polygon.c ****   } while( i > 0 );
 873              		.loc 1 293 3 view .LVU276
 874 0046 002D     		cmp	r5, #0
 875 0048 0EDD     		ble	.L59
 876              	.L56:
 281:u8g2/csrc/u8g2_polygon.c ****   {
 877              		.loc 1 281 3 is_stmt 1 view .LVU277
 283:u8g2/csrc/u8g2_polygon.c ****     while ( pge_Next(&(pg->pge[PG_LEFT])) == 0 )
 878              		.loc 1 283 5 view .LVU278
 879 004a 3146     		mov	r1, r6
 880 004c 2046     		mov	r0, r4
 881 004e FFF7FEFF 		bl	pg_hline
 882              	.LVL89:
 284:u8g2/csrc/u8g2_polygon.c ****     {
 883              		.loc 1 284 5 view .LVU279
 884              	.L52:
 284:u8g2/csrc/u8g2_polygon.c ****     {
 885              		.loc 1 284 13 is_stmt 0 view .LVU280
 886 0052 04F11C00 		add	r0, r4, #28
 887 0056 FFF7FEFF 		bl	pge_Next
 888              	.LVL90:
ARM GAS  C:\Users\behun\AppData\Local\Temp\cc3fxkM4.s 			page 23


 284:u8g2/csrc/u8g2_polygon.c ****     {
 889              		.loc 1 284 11 view .LVU281
 890 005a 0028     		cmp	r0, #0
 891 005c E7D1     		bne	.L54
 286:u8g2/csrc/u8g2_polygon.c ****     }
 892              		.loc 1 286 7 is_stmt 1 view .LVU282
 893 005e 0021     		movs	r1, #0
 894 0060 2046     		mov	r0, r4
 895 0062 FFF7FEFF 		bl	pg_line_init
 896              	.LVL91:
 897 0066 F4E7     		b	.L52
 898              	.L59:
 294:u8g2/csrc/u8g2_polygon.c **** }
 899              		.loc 1 294 1 is_stmt 0 view .LVU283
 900 0068 70BD     		pop	{r4, r5, r6, pc}
 901              		.loc 1 294 1 view .LVU284
 902              		.cfi_endproc
 903              	.LFE8:
 905              		.section	.text.pg_ClearPolygonXY,"ax",%progbits
 906              		.align	1
 907              		.global	pg_ClearPolygonXY
 908              		.syntax unified
 909              		.thumb
 910              		.thumb_func
 911              		.fpu softvfp
 913              	pg_ClearPolygonXY:
 914              	.LVL92:
 915              	.LFB9:
 295:u8g2/csrc/u8g2_polygon.c **** 
 296:u8g2/csrc/u8g2_polygon.c **** /*===========================================*/
 297:u8g2/csrc/u8g2_polygon.c **** /* API procedures */
 298:u8g2/csrc/u8g2_polygon.c **** 
 299:u8g2/csrc/u8g2_polygon.c **** void pg_ClearPolygonXY(pg_struct *pg)
 300:u8g2/csrc/u8g2_polygon.c **** {
 916              		.loc 1 300 1 is_stmt 1 view -0
 917              		.cfi_startproc
 918              		@ args = 0, pretend = 0, frame = 0
 919              		@ frame_needed = 0, uses_anonymous_args = 0
 920              		@ link register save eliminated.
 301:u8g2/csrc/u8g2_polygon.c ****   pg->cnt = 0;
 921              		.loc 1 301 3 view .LVU286
 922              		.loc 1 301 11 is_stmt 0 view .LVU287
 923 0000 0023     		movs	r3, #0
 924 0002 0376     		strb	r3, [r0, #24]
 302:u8g2/csrc/u8g2_polygon.c **** }
 925              		.loc 1 302 1 view .LVU288
 926 0004 7047     		bx	lr
 927              		.cfi_endproc
 928              	.LFE9:
 930              		.section	.text.pg_AddPolygonXY,"ax",%progbits
 931              		.align	1
 932              		.global	pg_AddPolygonXY
 933              		.syntax unified
 934              		.thumb
 935              		.thumb_func
 936              		.fpu softvfp
 938              	pg_AddPolygonXY:
ARM GAS  C:\Users\behun\AppData\Local\Temp\cc3fxkM4.s 			page 24


 939              	.LVL93:
 940              	.LFB10:
 303:u8g2/csrc/u8g2_polygon.c **** 
 304:u8g2/csrc/u8g2_polygon.c **** void pg_AddPolygonXY(pg_struct *pg, int16_t x, int16_t y)
 305:u8g2/csrc/u8g2_polygon.c **** {
 941              		.loc 1 305 1 is_stmt 1 view -0
 942              		.cfi_startproc
 943              		@ args = 0, pretend = 0, frame = 0
 944              		@ frame_needed = 0, uses_anonymous_args = 0
 945              		@ link register save eliminated.
 306:u8g2/csrc/u8g2_polygon.c ****   if ( pg->cnt < PG_MAX_POINTS )
 946              		.loc 1 306 3 view .LVU290
 947              		.loc 1 306 10 is_stmt 0 view .LVU291
 948 0000 037E     		ldrb	r3, [r0, #24]	@ zero_extendqisi2
 949              		.loc 1 306 6 view .LVU292
 950 0002 052B     		cmp	r3, #5
 951 0004 06D8     		bhi	.L61
 307:u8g2/csrc/u8g2_polygon.c ****   {
 308:u8g2/csrc/u8g2_polygon.c ****     pg->list[pg->cnt].x = x;
 952              		.loc 1 308 5 is_stmt 1 view .LVU293
 953              		.loc 1 308 25 is_stmt 0 view .LVU294
 954 0006 20F82310 		strh	r1, [r0, r3, lsl #2]	@ movhi
 309:u8g2/csrc/u8g2_polygon.c ****     pg->list[pg->cnt].y = y;
 955              		.loc 1 309 5 is_stmt 1 view .LVU295
 956              		.loc 1 309 25 is_stmt 0 view .LVU296
 957 000a 00EB8301 		add	r1, r0, r3, lsl #2
 958              	.LVL94:
 959              		.loc 1 309 25 view .LVU297
 960 000e 4A80     		strh	r2, [r1, #2]	@ movhi
 961              	.LVL95:
 310:u8g2/csrc/u8g2_polygon.c ****     pg->cnt++;
 962              		.loc 1 310 5 is_stmt 1 view .LVU298
 963              		.loc 1 310 12 is_stmt 0 view .LVU299
 964 0010 0133     		adds	r3, r3, #1
 965 0012 0376     		strb	r3, [r0, #24]
 966              	.L61:
 311:u8g2/csrc/u8g2_polygon.c ****   }
 312:u8g2/csrc/u8g2_polygon.c **** }
 967              		.loc 1 312 1 view .LVU300
 968 0014 7047     		bx	lr
 969              		.cfi_endproc
 970              	.LFE10:
 972              		.section	.text.pg_DrawPolygon,"ax",%progbits
 973              		.align	1
 974              		.global	pg_DrawPolygon
 975              		.syntax unified
 976              		.thumb
 977              		.thumb_func
 978              		.fpu softvfp
 980              	pg_DrawPolygon:
 981              	.LVL96:
 982              	.LFB11:
 313:u8g2/csrc/u8g2_polygon.c **** 
 314:u8g2/csrc/u8g2_polygon.c **** void pg_DrawPolygon(pg_struct *pg, u8g2_t *u8g2)
 315:u8g2/csrc/u8g2_polygon.c **** {
 983              		.loc 1 315 1 is_stmt 1 view -0
 984              		.cfi_startproc
ARM GAS  C:\Users\behun\AppData\Local\Temp\cc3fxkM4.s 			page 25


 985              		@ args = 0, pretend = 0, frame = 0
 986              		@ frame_needed = 0, uses_anonymous_args = 0
 987              		.loc 1 315 1 is_stmt 0 view .LVU302
 988 0000 38B5     		push	{r3, r4, r5, lr}
 989              	.LCFI12:
 990              		.cfi_def_cfa_offset 16
 991              		.cfi_offset 3, -16
 992              		.cfi_offset 4, -12
 993              		.cfi_offset 5, -8
 994              		.cfi_offset 14, -4
 995 0002 0446     		mov	r4, r0
 996 0004 0D46     		mov	r5, r1
 316:u8g2/csrc/u8g2_polygon.c ****   if ( pg_prepare(pg) == 0 )
 997              		.loc 1 316 3 is_stmt 1 view .LVU303
 998              		.loc 1 316 8 is_stmt 0 view .LVU304
 999 0006 FFF7FEFF 		bl	pg_prepare
 1000              	.LVL97:
 1001              		.loc 1 316 6 view .LVU305
 1002 000a 00B9     		cbnz	r0, .L66
 1003              	.L63:
 317:u8g2/csrc/u8g2_polygon.c ****     return;
 318:u8g2/csrc/u8g2_polygon.c ****   pg_exec(pg, u8g2);
 319:u8g2/csrc/u8g2_polygon.c **** }
 1004              		.loc 1 319 1 view .LVU306
 1005 000c 38BD     		pop	{r3, r4, r5, pc}
 1006              	.LVL98:
 1007              	.L66:
 318:u8g2/csrc/u8g2_polygon.c **** }
 1008              		.loc 1 318 3 is_stmt 1 view .LVU307
 1009 000e 2946     		mov	r1, r5
 1010 0010 2046     		mov	r0, r4
 1011 0012 FFF7FEFF 		bl	pg_exec
 1012              	.LVL99:
 1013 0016 F9E7     		b	.L63
 1014              		.cfi_endproc
 1015              	.LFE11:
 1017              		.section	.text.u8g2_ClearPolygonXY,"ax",%progbits
 1018              		.align	1
 1019              		.global	u8g2_ClearPolygonXY
 1020              		.syntax unified
 1021              		.thumb
 1022              		.thumb_func
 1023              		.fpu softvfp
 1025              	u8g2_ClearPolygonXY:
 1026              	.LFB12:
 320:u8g2/csrc/u8g2_polygon.c **** 
 321:u8g2/csrc/u8g2_polygon.c **** pg_struct u8g2_pg;
 322:u8g2/csrc/u8g2_polygon.c **** 
 323:u8g2/csrc/u8g2_polygon.c **** void u8g2_ClearPolygonXY(void)
 324:u8g2/csrc/u8g2_polygon.c **** {
 1027              		.loc 1 324 1 view -0
 1028              		.cfi_startproc
 1029              		@ args = 0, pretend = 0, frame = 0
 1030              		@ frame_needed = 0, uses_anonymous_args = 0
 1031 0000 08B5     		push	{r3, lr}
 1032              	.LCFI13:
 1033              		.cfi_def_cfa_offset 8
ARM GAS  C:\Users\behun\AppData\Local\Temp\cc3fxkM4.s 			page 26


 1034              		.cfi_offset 3, -8
 1035              		.cfi_offset 14, -4
 325:u8g2/csrc/u8g2_polygon.c ****   pg_ClearPolygonXY(&u8g2_pg);
 1036              		.loc 1 325 3 view .LVU309
 1037 0002 0248     		ldr	r0, .L69
 1038 0004 FFF7FEFF 		bl	pg_ClearPolygonXY
 1039              	.LVL100:
 326:u8g2/csrc/u8g2_polygon.c **** }
 1040              		.loc 1 326 1 is_stmt 0 view .LVU310
 1041 0008 08BD     		pop	{r3, pc}
 1042              	.L70:
 1043 000a 00BF     		.align	2
 1044              	.L69:
 1045 000c 00000000 		.word	u8g2_pg
 1046              		.cfi_endproc
 1047              	.LFE12:
 1049              		.section	.text.u8g2_AddPolygonXY,"ax",%progbits
 1050              		.align	1
 1051              		.global	u8g2_AddPolygonXY
 1052              		.syntax unified
 1053              		.thumb
 1054              		.thumb_func
 1055              		.fpu softvfp
 1057              	u8g2_AddPolygonXY:
 1058              	.LVL101:
 1059              	.LFB13:
 327:u8g2/csrc/u8g2_polygon.c **** 
 328:u8g2/csrc/u8g2_polygon.c **** void u8g2_AddPolygonXY(U8X8_UNUSED u8g2_t *u8g2, int16_t x, int16_t y)
 329:u8g2/csrc/u8g2_polygon.c **** {
 1060              		.loc 1 329 1 is_stmt 1 view -0
 1061              		.cfi_startproc
 1062              		@ args = 0, pretend = 0, frame = 0
 1063              		@ frame_needed = 0, uses_anonymous_args = 0
 1064              		.loc 1 329 1 is_stmt 0 view .LVU312
 1065 0000 08B5     		push	{r3, lr}
 1066              	.LCFI14:
 1067              		.cfi_def_cfa_offset 8
 1068              		.cfi_offset 3, -8
 1069              		.cfi_offset 14, -4
 330:u8g2/csrc/u8g2_polygon.c ****   pg_AddPolygonXY(&u8g2_pg, x, y);
 1070              		.loc 1 330 3 is_stmt 1 view .LVU313
 1071 0002 0248     		ldr	r0, .L73
 1072              	.LVL102:
 1073              		.loc 1 330 3 is_stmt 0 view .LVU314
 1074 0004 FFF7FEFF 		bl	pg_AddPolygonXY
 1075              	.LVL103:
 331:u8g2/csrc/u8g2_polygon.c **** }
 1076              		.loc 1 331 1 view .LVU315
 1077 0008 08BD     		pop	{r3, pc}
 1078              	.L74:
 1079 000a 00BF     		.align	2
 1080              	.L73:
 1081 000c 00000000 		.word	u8g2_pg
 1082              		.cfi_endproc
 1083              	.LFE13:
 1085              		.section	.text.u8g2_DrawPolygon,"ax",%progbits
 1086              		.align	1
ARM GAS  C:\Users\behun\AppData\Local\Temp\cc3fxkM4.s 			page 27


 1087              		.global	u8g2_DrawPolygon
 1088              		.syntax unified
 1089              		.thumb
 1090              		.thumb_func
 1091              		.fpu softvfp
 1093              	u8g2_DrawPolygon:
 1094              	.LVL104:
 1095              	.LFB14:
 332:u8g2/csrc/u8g2_polygon.c **** 
 333:u8g2/csrc/u8g2_polygon.c **** void u8g2_DrawPolygon(u8g2_t *u8g2)
 334:u8g2/csrc/u8g2_polygon.c **** {
 1096              		.loc 1 334 1 is_stmt 1 view -0
 1097              		.cfi_startproc
 1098              		@ args = 0, pretend = 0, frame = 0
 1099              		@ frame_needed = 0, uses_anonymous_args = 0
 1100              		.loc 1 334 1 is_stmt 0 view .LVU317
 1101 0000 08B5     		push	{r3, lr}
 1102              	.LCFI15:
 1103              		.cfi_def_cfa_offset 8
 1104              		.cfi_offset 3, -8
 1105              		.cfi_offset 14, -4
 335:u8g2/csrc/u8g2_polygon.c ****   pg_DrawPolygon(&u8g2_pg, u8g2);
 1106              		.loc 1 335 3 is_stmt 1 view .LVU318
 1107 0002 0146     		mov	r1, r0
 1108 0004 0148     		ldr	r0, .L77
 1109              	.LVL105:
 1110              		.loc 1 335 3 is_stmt 0 view .LVU319
 1111 0006 FFF7FEFF 		bl	pg_DrawPolygon
 1112              	.LVL106:
 336:u8g2/csrc/u8g2_polygon.c **** }
 1113              		.loc 1 336 1 view .LVU320
 1114 000a 08BD     		pop	{r3, pc}
 1115              	.L78:
 1116              		.align	2
 1117              	.L77:
 1118 000c 00000000 		.word	u8g2_pg
 1119              		.cfi_endproc
 1120              	.LFE14:
 1122              		.section	.text.u8g2_DrawTriangle,"ax",%progbits
 1123              		.align	1
 1124              		.global	u8g2_DrawTriangle
 1125              		.syntax unified
 1126              		.thumb
 1127              		.thumb_func
 1128              		.fpu softvfp
 1130              	u8g2_DrawTriangle:
 1131              	.LVL107:
 1132              	.LFB15:
 337:u8g2/csrc/u8g2_polygon.c **** 
 338:u8g2/csrc/u8g2_polygon.c **** void u8g2_DrawTriangle(u8g2_t *u8g2, int16_t x0, int16_t y0, int16_t x1, int16_t y1, int16_t x2, in
 339:u8g2/csrc/u8g2_polygon.c **** {
 1133              		.loc 1 339 1 is_stmt 1 view -0
 1134              		.cfi_startproc
 1135              		@ args = 12, pretend = 0, frame = 0
 1136              		@ frame_needed = 0, uses_anonymous_args = 0
 1137              		.loc 1 339 1 is_stmt 0 view .LVU322
 1138 0000 F8B5     		push	{r3, r4, r5, r6, r7, lr}
ARM GAS  C:\Users\behun\AppData\Local\Temp\cc3fxkM4.s 			page 28


 1139              	.LCFI16:
 1140              		.cfi_def_cfa_offset 24
 1141              		.cfi_offset 3, -24
 1142              		.cfi_offset 4, -20
 1143              		.cfi_offset 5, -16
 1144              		.cfi_offset 6, -12
 1145              		.cfi_offset 7, -8
 1146              		.cfi_offset 14, -4
 1147 0002 0446     		mov	r4, r0
 1148 0004 0E46     		mov	r6, r1
 1149 0006 1746     		mov	r7, r2
 1150 0008 1D46     		mov	r5, r3
 340:u8g2/csrc/u8g2_polygon.c ****   u8g2_ClearPolygonXY();
 1151              		.loc 1 340 3 is_stmt 1 view .LVU323
 1152 000a FFF7FEFF 		bl	u8g2_ClearPolygonXY
 1153              	.LVL108:
 341:u8g2/csrc/u8g2_polygon.c ****   u8g2_AddPolygonXY(u8g2, x0, y0);
 1154              		.loc 1 341 3 view .LVU324
 1155 000e 3A46     		mov	r2, r7
 1156 0010 3146     		mov	r1, r6
 1157 0012 2046     		mov	r0, r4
 1158 0014 FFF7FEFF 		bl	u8g2_AddPolygonXY
 1159              	.LVL109:
 342:u8g2/csrc/u8g2_polygon.c ****   u8g2_AddPolygonXY(u8g2, x1, y1);
 1160              		.loc 1 342 3 view .LVU325
 1161 0018 BDF91820 		ldrsh	r2, [sp, #24]
 1162 001c 2946     		mov	r1, r5
 1163 001e 2046     		mov	r0, r4
 1164 0020 FFF7FEFF 		bl	u8g2_AddPolygonXY
 1165              	.LVL110:
 343:u8g2/csrc/u8g2_polygon.c ****   u8g2_AddPolygonXY(u8g2, x2, y2);
 1166              		.loc 1 343 3 view .LVU326
 1167 0024 BDF92020 		ldrsh	r2, [sp, #32]
 1168 0028 BDF91C10 		ldrsh	r1, [sp, #28]
 1169 002c 2046     		mov	r0, r4
 1170 002e FFF7FEFF 		bl	u8g2_AddPolygonXY
 1171              	.LVL111:
 344:u8g2/csrc/u8g2_polygon.c ****   u8g2_DrawPolygon(u8g2);
 1172              		.loc 1 344 3 view .LVU327
 1173 0032 2046     		mov	r0, r4
 1174 0034 FFF7FEFF 		bl	u8g2_DrawPolygon
 1175              	.LVL112:
 345:u8g2/csrc/u8g2_polygon.c **** }
 1176              		.loc 1 345 1 is_stmt 0 view .LVU328
 1177 0038 F8BD     		pop	{r3, r4, r5, r6, r7, pc}
 1178              		.loc 1 345 1 view .LVU329
 1179              		.cfi_endproc
 1180              	.LFE15:
 1182              		.comm	u8g2_pg,76,4
 1183              		.text
 1184              	.Letext0:
 1185              		.file 2 "c:\\program files (x86)\\gnu tools arm embedded\\8 2019-q3-update\\arm-none-eabi\\include
 1186              		.file 3 "c:\\program files (x86)\\gnu tools arm embedded\\8 2019-q3-update\\arm-none-eabi\\include
 1187              		.file 4 "u8g2/csrc/u8x8.h"
 1188              		.file 5 "u8g2/csrc/u8g2.h"
ARM GAS  C:\Users\behun\AppData\Local\Temp\cc3fxkM4.s 			page 29


DEFINED SYMBOLS
                            *ABS*:00000000 u8g2_polygon.c
C:\Users\behun\AppData\Local\Temp\cc3fxkM4.s:16     .text.pge_Next:00000000 $t
C:\Users\behun\AppData\Local\Temp\cc3fxkM4.s:23     .text.pge_Next:00000000 pge_Next
C:\Users\behun\AppData\Local\Temp\cc3fxkM4.s:104    .text.pge_Init:00000000 $t
C:\Users\behun\AppData\Local\Temp\cc3fxkM4.s:110    .text.pge_Init:00000000 pge_Init
C:\Users\behun\AppData\Local\Temp\cc3fxkM4.s:223    .text.pg_inc:00000000 $t
C:\Users\behun\AppData\Local\Temp\cc3fxkM4.s:229    .text.pg_inc:00000000 pg_inc
C:\Users\behun\AppData\Local\Temp\cc3fxkM4.s:264    .text.pg_dec:00000000 $t
C:\Users\behun\AppData\Local\Temp\cc3fxkM4.s:270    .text.pg_dec:00000000 pg_dec
C:\Users\behun\AppData\Local\Temp\cc3fxkM4.s:309    .text.pg_expand_min_y:00000000 $t
C:\Users\behun\AppData\Local\Temp\cc3fxkM4.s:315    .text.pg_expand_min_y:00000000 pg_expand_min_y
C:\Users\behun\AppData\Local\Temp\cc3fxkM4.s:380    .text.pg_prepare:00000000 $t
C:\Users\behun\AppData\Local\Temp\cc3fxkM4.s:386    .text.pg_prepare:00000000 pg_prepare
C:\Users\behun\AppData\Local\Temp\cc3fxkM4.s:553    .text.pg_prepare:000000a4 $d
C:\Users\behun\AppData\Local\Temp\cc3fxkM4.s:559    .text.pg_line_init:00000000 $t
C:\Users\behun\AppData\Local\Temp\cc3fxkM4.s:565    .text.pg_line_init:00000000 pg_line_init
C:\Users\behun\AppData\Local\Temp\cc3fxkM4.s:654    .text.pg_hline:00000000 $t
C:\Users\behun\AppData\Local\Temp\cc3fxkM4.s:660    .text.pg_hline:00000000 pg_hline
C:\Users\behun\AppData\Local\Temp\cc3fxkM4.s:800    .text.pg_exec:00000000 $t
C:\Users\behun\AppData\Local\Temp\cc3fxkM4.s:806    .text.pg_exec:00000000 pg_exec
C:\Users\behun\AppData\Local\Temp\cc3fxkM4.s:906    .text.pg_ClearPolygonXY:00000000 $t
C:\Users\behun\AppData\Local\Temp\cc3fxkM4.s:913    .text.pg_ClearPolygonXY:00000000 pg_ClearPolygonXY
C:\Users\behun\AppData\Local\Temp\cc3fxkM4.s:931    .text.pg_AddPolygonXY:00000000 $t
C:\Users\behun\AppData\Local\Temp\cc3fxkM4.s:938    .text.pg_AddPolygonXY:00000000 pg_AddPolygonXY
C:\Users\behun\AppData\Local\Temp\cc3fxkM4.s:973    .text.pg_DrawPolygon:00000000 $t
C:\Users\behun\AppData\Local\Temp\cc3fxkM4.s:980    .text.pg_DrawPolygon:00000000 pg_DrawPolygon
C:\Users\behun\AppData\Local\Temp\cc3fxkM4.s:1018   .text.u8g2_ClearPolygonXY:00000000 $t
C:\Users\behun\AppData\Local\Temp\cc3fxkM4.s:1025   .text.u8g2_ClearPolygonXY:00000000 u8g2_ClearPolygonXY
C:\Users\behun\AppData\Local\Temp\cc3fxkM4.s:1045   .text.u8g2_ClearPolygonXY:0000000c $d
                            *COM*:0000004c u8g2_pg
C:\Users\behun\AppData\Local\Temp\cc3fxkM4.s:1050   .text.u8g2_AddPolygonXY:00000000 $t
C:\Users\behun\AppData\Local\Temp\cc3fxkM4.s:1057   .text.u8g2_AddPolygonXY:00000000 u8g2_AddPolygonXY
C:\Users\behun\AppData\Local\Temp\cc3fxkM4.s:1081   .text.u8g2_AddPolygonXY:0000000c $d
C:\Users\behun\AppData\Local\Temp\cc3fxkM4.s:1086   .text.u8g2_DrawPolygon:00000000 $t
C:\Users\behun\AppData\Local\Temp\cc3fxkM4.s:1093   .text.u8g2_DrawPolygon:00000000 u8g2_DrawPolygon
C:\Users\behun\AppData\Local\Temp\cc3fxkM4.s:1118   .text.u8g2_DrawPolygon:0000000c $d
C:\Users\behun\AppData\Local\Temp\cc3fxkM4.s:1123   .text.u8g2_DrawTriangle:00000000 $t
C:\Users\behun\AppData\Local\Temp\cc3fxkM4.s:1130   .text.u8g2_DrawTriangle:00000000 u8g2_DrawTriangle

UNDEFINED SYMBOLS
u8g2_DrawHLine
