ARM GAS  C:\Users\behun\AppData\Local\Temp\ccwuZfJh.s 			page 1


   1              		.cpu cortex-m3
   2              		.eabi_attribute 20, 1
   3              		.eabi_attribute 21, 1
   4              		.eabi_attribute 23, 3
   5              		.eabi_attribute 24, 1
   6              		.eabi_attribute 25, 1
   7              		.eabi_attribute 26, 1
   8              		.eabi_attribute 30, 1
   9              		.eabi_attribute 34, 1
  10              		.eabi_attribute 18, 4
  11              		.file	"u8g2_setup.c"
  12              		.text
  13              	.Ltext0:
  14              		.cfi_sections	.debug_frame
  15              		.section	.text.u8g2_update_dimension_common,"ax",%progbits
  16              		.align	1
  17              		.arch armv7-m
  18              		.syntax unified
  19              		.thumb
  20              		.thumb_func
  21              		.fpu softvfp
  23              	u8g2_update_dimension_common:
  24              	.LVL0:
  25              	.LFB2:
  26              		.file 1 "u8g2/csrc/u8g2_setup.c"
   1:u8g2/csrc/u8g2_setup.c **** /*
   2:u8g2/csrc/u8g2_setup.c **** 
   3:u8g2/csrc/u8g2_setup.c ****   u8g2_setup.c
   4:u8g2/csrc/u8g2_setup.c **** 
   5:u8g2/csrc/u8g2_setup.c ****   Universal 8bit Graphics Library (https://github.com/olikraus/u8g2/)
   6:u8g2/csrc/u8g2_setup.c **** 
   7:u8g2/csrc/u8g2_setup.c ****   Copyright (c) 2016, olikraus@gmail.com
   8:u8g2/csrc/u8g2_setup.c ****   All rights reserved.
   9:u8g2/csrc/u8g2_setup.c **** 
  10:u8g2/csrc/u8g2_setup.c ****   Redistribution and use in source and binary forms, with or without modification, 
  11:u8g2/csrc/u8g2_setup.c ****   are permitted provided that the following conditions are met:
  12:u8g2/csrc/u8g2_setup.c **** 
  13:u8g2/csrc/u8g2_setup.c ****   * Redistributions of source code must retain the above copyright notice, this list 
  14:u8g2/csrc/u8g2_setup.c ****     of conditions and the following disclaimer.
  15:u8g2/csrc/u8g2_setup.c ****     
  16:u8g2/csrc/u8g2_setup.c ****   * Redistributions in binary form must reproduce the above copyright notice, this 
  17:u8g2/csrc/u8g2_setup.c ****     list of conditions and the following disclaimer in the documentation and/or other 
  18:u8g2/csrc/u8g2_setup.c ****     materials provided with the distribution.
  19:u8g2/csrc/u8g2_setup.c **** 
  20:u8g2/csrc/u8g2_setup.c ****   THIS SOFTWARE IS PROVIDED BY THE COPYRIGHT HOLDERS AND 
  21:u8g2/csrc/u8g2_setup.c ****   CONTRIBUTORS "AS IS" AND ANY EXPRESS OR IMPLIED WARRANTIES, 
  22:u8g2/csrc/u8g2_setup.c ****   INCLUDING, BUT NOT LIMITED TO, THE IMPLIED WARRANTIES OF 
  23:u8g2/csrc/u8g2_setup.c ****   MERCHANTABILITY AND FITNESS FOR A PARTICULAR PURPOSE ARE 
  24:u8g2/csrc/u8g2_setup.c ****   DISCLAIMED. IN NO EVENT SHALL THE COPYRIGHT HOLDER OR 
  25:u8g2/csrc/u8g2_setup.c ****   CONTRIBUTORS BE LIABLE FOR ANY DIRECT, INDIRECT, INCIDENTAL, 
  26:u8g2/csrc/u8g2_setup.c ****   SPECIAL, EXEMPLARY, OR CONSEQUENTIAL DAMAGES (INCLUDING, BUT 
  27:u8g2/csrc/u8g2_setup.c ****   NOT LIMITED TO, PROCUREMENT OF SUBSTITUTE GOODS OR SERVICES; 
  28:u8g2/csrc/u8g2_setup.c ****   LOSS OF USE, DATA, OR PROFITS; OR BUSINESS INTERRUPTION) HOWEVER 
  29:u8g2/csrc/u8g2_setup.c ****   CAUSED AND ON ANY THEORY OF LIABILITY, WHETHER IN CONTRACT, 
  30:u8g2/csrc/u8g2_setup.c ****   STRICT LIABILITY, OR TORT (INCLUDING NEGLIGENCE OR OTHERWISE) 
  31:u8g2/csrc/u8g2_setup.c ****   ARISING IN ANY WAY OUT OF THE USE OF THIS SOFTWARE, EVEN IF 
  32:u8g2/csrc/u8g2_setup.c ****   ADVISED OF THE POSSIBILITY OF SUCH DAMAGE.  
ARM GAS  C:\Users\behun\AppData\Local\Temp\ccwuZfJh.s 			page 2


  33:u8g2/csrc/u8g2_setup.c **** 
  34:u8g2/csrc/u8g2_setup.c **** */
  35:u8g2/csrc/u8g2_setup.c **** 
  36:u8g2/csrc/u8g2_setup.c **** #include "u8g2.h"
  37:u8g2/csrc/u8g2_setup.c **** #include <string.h>
  38:u8g2/csrc/u8g2_setup.c **** 
  39:u8g2/csrc/u8g2_setup.c **** /*============================================*/
  40:u8g2/csrc/u8g2_setup.c **** /*
  41:u8g2/csrc/u8g2_setup.c ****   This procedure is called after setting up the display (u8x8 structure).
  42:u8g2/csrc/u8g2_setup.c ****   --> This is the central init procedure for u8g2 object
  43:u8g2/csrc/u8g2_setup.c **** */
  44:u8g2/csrc/u8g2_setup.c **** void u8g2_SetupBuffer(u8g2_t *u8g2, uint8_t *buf, uint8_t tile_buf_height, u8g2_draw_ll_hvline_cb l
  45:u8g2/csrc/u8g2_setup.c **** {
  46:u8g2/csrc/u8g2_setup.c ****   u8g2->font = NULL;
  47:u8g2/csrc/u8g2_setup.c ****   //u8g2->kerning = NULL;
  48:u8g2/csrc/u8g2_setup.c ****   //u8g2->get_kerning_cb = u8g2_GetNullKerning;
  49:u8g2/csrc/u8g2_setup.c ****   
  50:u8g2/csrc/u8g2_setup.c ****   //u8g2->ll_hvline = u8g2_ll_hvline_vertical_top_lsb;
  51:u8g2/csrc/u8g2_setup.c ****   u8g2->ll_hvline = ll_hvline_cb;
  52:u8g2/csrc/u8g2_setup.c ****   
  53:u8g2/csrc/u8g2_setup.c ****   u8g2->tile_buf_ptr = buf;
  54:u8g2/csrc/u8g2_setup.c ****   u8g2->tile_buf_height = tile_buf_height;
  55:u8g2/csrc/u8g2_setup.c ****   
  56:u8g2/csrc/u8g2_setup.c ****   u8g2->tile_curr_row = 0;
  57:u8g2/csrc/u8g2_setup.c ****   
  58:u8g2/csrc/u8g2_setup.c ****   u8g2->font_decode.is_transparent = 0; /* issue 443 */
  59:u8g2/csrc/u8g2_setup.c ****   u8g2->bitmap_transparency = 0;
  60:u8g2/csrc/u8g2_setup.c ****   
  61:u8g2/csrc/u8g2_setup.c ****   u8g2->draw_color = 1;
  62:u8g2/csrc/u8g2_setup.c ****   u8g2->is_auto_page_clear = 1;
  63:u8g2/csrc/u8g2_setup.c ****   
  64:u8g2/csrc/u8g2_setup.c ****   u8g2->cb = u8g2_cb;
  65:u8g2/csrc/u8g2_setup.c ****   u8g2->cb->update(u8g2);
  66:u8g2/csrc/u8g2_setup.c **** 
  67:u8g2/csrc/u8g2_setup.c ****   u8g2_SetFontPosBaseline(u8g2);  /* issue 195 */
  68:u8g2/csrc/u8g2_setup.c ****   
  69:u8g2/csrc/u8g2_setup.c **** #ifdef U8G2_WITH_FONT_ROTATION  
  70:u8g2/csrc/u8g2_setup.c ****   u8g2->font_decode.dir = 0;
  71:u8g2/csrc/u8g2_setup.c **** #endif
  72:u8g2/csrc/u8g2_setup.c **** }
  73:u8g2/csrc/u8g2_setup.c **** 
  74:u8g2/csrc/u8g2_setup.c **** /*
  75:u8g2/csrc/u8g2_setup.c ****   Usually the display rotation is set initially, but it could be done later also
  76:u8g2/csrc/u8g2_setup.c ****   u8g2_cb can be U8G2_R0..U8G2_R3
  77:u8g2/csrc/u8g2_setup.c **** */
  78:u8g2/csrc/u8g2_setup.c **** void u8g2_SetDisplayRotation(u8g2_t *u8g2, const u8g2_cb_t *u8g2_cb)
  79:u8g2/csrc/u8g2_setup.c **** {
  80:u8g2/csrc/u8g2_setup.c ****   u8g2->cb = u8g2_cb;
  81:u8g2/csrc/u8g2_setup.c ****   u8g2->cb->update(u8g2);
  82:u8g2/csrc/u8g2_setup.c **** }
  83:u8g2/csrc/u8g2_setup.c **** 
  84:u8g2/csrc/u8g2_setup.c **** 
  85:u8g2/csrc/u8g2_setup.c **** /*============================================*/
  86:u8g2/csrc/u8g2_setup.c **** /* 
  87:u8g2/csrc/u8g2_setup.c ****   update dimension: 
  88:u8g2/csrc/u8g2_setup.c ****   calculate the following variables:
  89:u8g2/csrc/u8g2_setup.c ****     u8g2_uint_t buf_x0;	left corner of the buffer
ARM GAS  C:\Users\behun\AppData\Local\Temp\ccwuZfJh.s 			page 3


  90:u8g2/csrc/u8g2_setup.c ****     u8g2_uint_t buf_x1;	right corner of the buffer (excluded)
  91:u8g2/csrc/u8g2_setup.c ****     u8g2_uint_t buf_y0;
  92:u8g2/csrc/u8g2_setup.c ****     u8g2_uint_t buf_y1; 	
  93:u8g2/csrc/u8g2_setup.c **** */
  94:u8g2/csrc/u8g2_setup.c **** 
  95:u8g2/csrc/u8g2_setup.c **** static void u8g2_update_dimension_common(u8g2_t *u8g2)
  96:u8g2/csrc/u8g2_setup.c **** {
  27              		.loc 1 96 1 view -0
  28              		.cfi_startproc
  29              		@ args = 0, pretend = 0, frame = 0
  30              		@ frame_needed = 0, uses_anonymous_args = 0
  31              		@ link register save eliminated.
  32              		.loc 1 96 1 is_stmt 0 view .LVU1
  33 0000 70B4     		push	{r4, r5, r6}
  34              	.LCFI0:
  35              		.cfi_def_cfa_offset 12
  36              		.cfi_offset 4, -12
  37              		.cfi_offset 5, -8
  38              		.cfi_offset 6, -4
  97:u8g2/csrc/u8g2_setup.c ****   u8g2_uint_t t;
  39              		.loc 1 97 3 is_stmt 1 view .LVU2
  98:u8g2/csrc/u8g2_setup.c ****   
  99:u8g2/csrc/u8g2_setup.c ****   t = u8g2->tile_buf_height;
  40              		.loc 1 99 3 view .LVU3
  41              		.loc 1 99 5 is_stmt 0 view .LVU4
  42 0002 90F83830 		ldrb	r3, [r0, #56]	@ zero_extendqisi2
  43              	.LVL1:
 100:u8g2/csrc/u8g2_setup.c ****   t *= 8;
  44              		.loc 1 100 3 is_stmt 1 view .LVU5
  45              		.loc 1 100 5 is_stmt 0 view .LVU6
  46 0006 DA00     		lsls	r2, r3, #3
  47              	.LVL2:
 101:u8g2/csrc/u8g2_setup.c ****   u8g2->pixel_buf_height = t;
  48              		.loc 1 101 3 is_stmt 1 view .LVU7
  49              		.loc 1 101 26 is_stmt 0 view .LVU8
  50 0008 80F83B20 		strb	r2, [r0, #59]
 102:u8g2/csrc/u8g2_setup.c ****   
 103:u8g2/csrc/u8g2_setup.c ****   t = u8g2_GetU8x8(u8g2)->display_info->tile_width;
  51              		.loc 1 103 3 is_stmt 1 view .LVU9
  52              		.loc 1 103 25 is_stmt 0 view .LVU10
  53 000c 0168     		ldr	r1, [r0]
  54              		.loc 1 103 5 view .LVU11
  55 000e 0A7C     		ldrb	r2, [r1, #16]	@ zero_extendqisi2
  56              	.LVL3:
 104:u8g2/csrc/u8g2_setup.c **** #ifndef U8G2_16BIT
 105:u8g2/csrc/u8g2_setup.c ****   if ( t >= 32 )
  57              		.loc 1 105 3 is_stmt 1 view .LVU12
  58              		.loc 1 105 6 is_stmt 0 view .LVU13
  59 0010 1F2A     		cmp	r2, #31
  60 0012 00D9     		bls	.L2
 106:u8g2/csrc/u8g2_setup.c ****     t = 31;
  61              		.loc 1 106 7 view .LVU14
  62 0014 1F22     		movs	r2, #31
  63              	.LVL4:
  64              	.L2:
 107:u8g2/csrc/u8g2_setup.c **** #endif
 108:u8g2/csrc/u8g2_setup.c ****   t *= 8;
ARM GAS  C:\Users\behun\AppData\Local\Temp\ccwuZfJh.s 			page 4


  65              		.loc 1 108 3 is_stmt 1 view .LVU15
  66              		.loc 1 108 5 is_stmt 0 view .LVU16
  67 0016 D200     		lsls	r2, r2, #3
  68              	.LVL5:
 109:u8g2/csrc/u8g2_setup.c ****   u8g2->pixel_buf_width = t;
  69              		.loc 1 109 3 is_stmt 1 view .LVU17
  70              		.loc 1 109 25 is_stmt 0 view .LVU18
  71 0018 80F83A20 		strb	r2, [r0, #58]
 110:u8g2/csrc/u8g2_setup.c ****   
 111:u8g2/csrc/u8g2_setup.c ****   t = u8g2->tile_curr_row;
  72              		.loc 1 111 3 is_stmt 1 view .LVU19
  73              		.loc 1 111 5 is_stmt 0 view .LVU20
  74 001c 90F83950 		ldrb	r5, [r0, #57]	@ zero_extendqisi2
  75              	.LVL6:
 112:u8g2/csrc/u8g2_setup.c ****   t *= 8;
  76              		.loc 1 112 3 is_stmt 1 view .LVU21
  77              		.loc 1 112 5 is_stmt 0 view .LVU22
  78 0020 EA00     		lsls	r2, r5, #3
  79 0022 D2B2     		uxtb	r2, r2
  80              	.LVL7:
 113:u8g2/csrc/u8g2_setup.c ****   u8g2->pixel_curr_row = t;
  81              		.loc 1 113 3 is_stmt 1 view .LVU23
  82              		.loc 1 113 24 is_stmt 0 view .LVU24
  83 0024 80F83C20 		strb	r2, [r0, #60]
 114:u8g2/csrc/u8g2_setup.c ****   
 115:u8g2/csrc/u8g2_setup.c ****   t = u8g2->tile_buf_height;
  84              		.loc 1 115 3 is_stmt 1 view .LVU25
  85              	.LVL8:
 116:u8g2/csrc/u8g2_setup.c ****   /* handle the case, where the buffer is larger than the (remaining) part of the display */
 117:u8g2/csrc/u8g2_setup.c ****   if ( t + u8g2->tile_curr_row > u8g2_GetU8x8(u8g2)->display_info->tile_height )
  86              		.loc 1 117 3 view .LVU26
  87              		.loc 1 117 10 is_stmt 0 view .LVU27
  88 0028 5E19     		adds	r6, r3, r5
  89              		.loc 1 117 66 view .LVU28
  90 002a 4C7C     		ldrb	r4, [r1, #17]	@ zero_extendqisi2
  91              		.loc 1 117 6 view .LVU29
  92 002c A642     		cmp	r6, r4
  93 002e 01DD     		ble	.L3
 118:u8g2/csrc/u8g2_setup.c ****     t = u8g2_GetU8x8(u8g2)->display_info->tile_height - u8g2->tile_curr_row;
  94              		.loc 1 118 5 is_stmt 1 view .LVU30
  95              		.loc 1 118 7 is_stmt 0 view .LVU31
  96 0030 631B     		subs	r3, r4, r5
  97              	.LVL9:
  98              		.loc 1 118 7 view .LVU32
  99 0032 DBB2     		uxtb	r3, r3
 100              	.LVL10:
 101              	.L3:
 119:u8g2/csrc/u8g2_setup.c ****   t *= 8;
 102              		.loc 1 119 3 is_stmt 1 view .LVU33
 103              		.loc 1 119 5 is_stmt 0 view .LVU34
 104 0034 DB00     		lsls	r3, r3, #3
 105              	.LVL11:
 106              		.loc 1 119 5 view .LVU35
 107 0036 DBB2     		uxtb	r3, r3
 108              	.LVL12:
 120:u8g2/csrc/u8g2_setup.c ****   
 121:u8g2/csrc/u8g2_setup.c ****   u8g2->buf_y0 = u8g2->pixel_curr_row;   
ARM GAS  C:\Users\behun\AppData\Local\Temp\ccwuZfJh.s 			page 5


 109              		.loc 1 121 3 is_stmt 1 view .LVU36
 110              		.loc 1 121 16 is_stmt 0 view .LVU37
 111 0038 80F83D20 		strb	r2, [r0, #61]
 122:u8g2/csrc/u8g2_setup.c ****   u8g2->buf_y1 = u8g2->buf_y0;
 112              		.loc 1 122 3 is_stmt 1 view .LVU38
 123:u8g2/csrc/u8g2_setup.c ****   u8g2->buf_y1 += t;
 113              		.loc 1 123 3 view .LVU39
 114              		.loc 1 123 16 is_stmt 0 view .LVU40
 115 003c 1344     		add	r3, r3, r2
 116              	.LVL13:
 117              		.loc 1 123 16 view .LVU41
 118 003e 80F83E30 		strb	r3, [r0, #62]
 124:u8g2/csrc/u8g2_setup.c **** 
 125:u8g2/csrc/u8g2_setup.c ****   
 126:u8g2/csrc/u8g2_setup.c **** #ifdef U8G2_16BIT
 127:u8g2/csrc/u8g2_setup.c ****   u8g2->width = u8g2_GetU8x8(u8g2)->display_info->pixel_width;
 128:u8g2/csrc/u8g2_setup.c ****   u8g2->height = u8g2_GetU8x8(u8g2)->display_info->pixel_height;
 129:u8g2/csrc/u8g2_setup.c **** #else
 130:u8g2/csrc/u8g2_setup.c ****   u8g2->width = 240;
 119              		.loc 1 130 3 is_stmt 1 view .LVU42
 120              		.loc 1 130 15 is_stmt 0 view .LVU43
 121 0042 F023     		movs	r3, #240
 122 0044 80F83F30 		strb	r3, [r0, #63]
 131:u8g2/csrc/u8g2_setup.c ****   if ( u8g2_GetU8x8(u8g2)->display_info->pixel_width <= 240 )
 123              		.loc 1 131 3 is_stmt 1 view .LVU44
 124              		.loc 1 131 40 is_stmt 0 view .LVU45
 125 0048 8B8A     		ldrh	r3, [r1, #20]
 126              		.loc 1 131 6 view .LVU46
 127 004a F02B     		cmp	r3, #240
 128 004c 01D8     		bhi	.L4
 132:u8g2/csrc/u8g2_setup.c ****     u8g2->width = u8g2_GetU8x8(u8g2)->display_info->pixel_width;
 129              		.loc 1 132 5 is_stmt 1 view .LVU47
 130              		.loc 1 132 17 is_stmt 0 view .LVU48
 131 004e 80F83F30 		strb	r3, [r0, #63]
 132              	.L4:
 133:u8g2/csrc/u8g2_setup.c ****   u8g2->height = u8g2_GetU8x8(u8g2)->display_info->pixel_height;
 133              		.loc 1 133 3 is_stmt 1 view .LVU49
 134              		.loc 1 133 50 is_stmt 0 view .LVU50
 135 0052 CB8A     		ldrh	r3, [r1, #22]
 136              		.loc 1 133 16 view .LVU51
 137 0054 80F84030 		strb	r3, [r0, #64]
 134:u8g2/csrc/u8g2_setup.c **** #endif
 135:u8g2/csrc/u8g2_setup.c **** 
 136:u8g2/csrc/u8g2_setup.c **** }
 138              		.loc 1 136 1 view .LVU52
 139 0058 70BC     		pop	{r4, r5, r6}
 140              	.LCFI1:
 141              		.cfi_restore 6
 142              		.cfi_restore 5
 143              		.cfi_restore 4
 144              		.cfi_def_cfa_offset 0
 145 005a 7047     		bx	lr
 146              		.cfi_endproc
 147              	.LFE2:
 149              		.section	.text.u8g2_update_dimension_r0,"ax",%progbits
 150              		.align	1
 151              		.global	u8g2_update_dimension_r0
ARM GAS  C:\Users\behun\AppData\Local\Temp\ccwuZfJh.s 			page 6


 152              		.syntax unified
 153              		.thumb
 154              		.thumb_func
 155              		.fpu softvfp
 157              	u8g2_update_dimension_r0:
 158              	.LVL14:
 159              	.LFB3:
 137:u8g2/csrc/u8g2_setup.c **** 
 138:u8g2/csrc/u8g2_setup.c **** void u8g2_update_dimension_r0(u8g2_t *u8g2)
 139:u8g2/csrc/u8g2_setup.c **** {
 160              		.loc 1 139 1 is_stmt 1 view -0
 161              		.cfi_startproc
 162              		@ args = 0, pretend = 0, frame = 0
 163              		@ frame_needed = 0, uses_anonymous_args = 0
 164              		.loc 1 139 1 is_stmt 0 view .LVU54
 165 0000 10B5     		push	{r4, lr}
 166              	.LCFI2:
 167              		.cfi_def_cfa_offset 8
 168              		.cfi_offset 4, -8
 169              		.cfi_offset 14, -4
 170 0002 0446     		mov	r4, r0
 140:u8g2/csrc/u8g2_setup.c ****   u8g2_update_dimension_common(u8g2);
 171              		.loc 1 140 3 is_stmt 1 view .LVU55
 172 0004 FFF7FEFF 		bl	u8g2_update_dimension_common
 173              	.LVL15:
 141:u8g2/csrc/u8g2_setup.c **** 
 142:u8g2/csrc/u8g2_setup.c ****   u8g2->user_x0 = 0;
 174              		.loc 1 142 3 view .LVU56
 175              		.loc 1 142 17 is_stmt 0 view .LVU57
 176 0008 0023     		movs	r3, #0
 177 000a 84F84130 		strb	r3, [r4, #65]
 143:u8g2/csrc/u8g2_setup.c ****   u8g2->user_x1 = u8g2->pixel_buf_width;	/* pixel_buf_width replaced with width */
 178              		.loc 1 143 3 is_stmt 1 view .LVU58
 179              		.loc 1 143 23 is_stmt 0 view .LVU59
 180 000e 94F83A30 		ldrb	r3, [r4, #58]	@ zero_extendqisi2
 181              		.loc 1 143 17 view .LVU60
 182 0012 84F84230 		strb	r3, [r4, #66]
 144:u8g2/csrc/u8g2_setup.c ****   
 145:u8g2/csrc/u8g2_setup.c ****   u8g2->user_y0 = u8g2->buf_y0;
 183              		.loc 1 145 3 is_stmt 1 view .LVU61
 184              		.loc 1 145 23 is_stmt 0 view .LVU62
 185 0016 94F83D30 		ldrb	r3, [r4, #61]	@ zero_extendqisi2
 186              		.loc 1 145 17 view .LVU63
 187 001a 84F84330 		strb	r3, [r4, #67]
 146:u8g2/csrc/u8g2_setup.c ****   u8g2->user_y1 = u8g2->buf_y1;
 188              		.loc 1 146 3 is_stmt 1 view .LVU64
 189              		.loc 1 146 23 is_stmt 0 view .LVU65
 190 001e 94F83E30 		ldrb	r3, [r4, #62]	@ zero_extendqisi2
 191              		.loc 1 146 17 view .LVU66
 192 0022 84F84430 		strb	r3, [r4, #68]
 147:u8g2/csrc/u8g2_setup.c ****   
 148:u8g2/csrc/u8g2_setup.c **** //  printf("x0=%d x1=%d y0=%d y1=%d\n", 
 149:u8g2/csrc/u8g2_setup.c **** //      u8g2->user_x0, u8g2->user_x1, u8g2->user_y0, u8g2->user_y1);
 150:u8g2/csrc/u8g2_setup.c **** }
 193              		.loc 1 150 1 view .LVU67
 194 0026 10BD     		pop	{r4, pc}
 195              		.loc 1 150 1 view .LVU68
ARM GAS  C:\Users\behun\AppData\Local\Temp\ccwuZfJh.s 			page 7


 196              		.cfi_endproc
 197              	.LFE3:
 199              		.section	.text.u8g2_update_dimension_r1,"ax",%progbits
 200              		.align	1
 201              		.global	u8g2_update_dimension_r1
 202              		.syntax unified
 203              		.thumb
 204              		.thumb_func
 205              		.fpu softvfp
 207              	u8g2_update_dimension_r1:
 208              	.LVL16:
 209              	.LFB4:
 151:u8g2/csrc/u8g2_setup.c **** 
 152:u8g2/csrc/u8g2_setup.c **** void u8g2_update_dimension_r1(u8g2_t *u8g2)
 153:u8g2/csrc/u8g2_setup.c **** {
 210              		.loc 1 153 1 is_stmt 1 view -0
 211              		.cfi_startproc
 212              		@ args = 0, pretend = 0, frame = 0
 213              		@ frame_needed = 0, uses_anonymous_args = 0
 214              		.loc 1 153 1 is_stmt 0 view .LVU70
 215 0000 10B5     		push	{r4, lr}
 216              	.LCFI3:
 217              		.cfi_def_cfa_offset 8
 218              		.cfi_offset 4, -8
 219              		.cfi_offset 14, -4
 220 0002 0446     		mov	r4, r0
 154:u8g2/csrc/u8g2_setup.c ****   u8g2_update_dimension_common(u8g2);
 221              		.loc 1 154 3 is_stmt 1 view .LVU71
 222 0004 FFF7FEFF 		bl	u8g2_update_dimension_common
 223              	.LVL17:
 155:u8g2/csrc/u8g2_setup.c ****   
 156:u8g2/csrc/u8g2_setup.c ****   u8g2->height = u8g2_GetU8x8(u8g2)->display_info->pixel_width;
 224              		.loc 1 156 3 view .LVU72
 225              		.loc 1 156 36 is_stmt 0 view .LVU73
 226 0008 2268     		ldr	r2, [r4]
 227              		.loc 1 156 16 view .LVU74
 228 000a 137D     		ldrb	r3, [r2, #20]	@ zero_extendqisi2
 229 000c 84F84030 		strb	r3, [r4, #64]
 157:u8g2/csrc/u8g2_setup.c ****   u8g2->width = u8g2_GetU8x8(u8g2)->display_info->pixel_height;
 230              		.loc 1 157 3 is_stmt 1 view .LVU75
 231              		.loc 1 157 49 is_stmt 0 view .LVU76
 232 0010 D28A     		ldrh	r2, [r2, #22]
 233              		.loc 1 157 15 view .LVU77
 234 0012 84F83F20 		strb	r2, [r4, #63]
 158:u8g2/csrc/u8g2_setup.c ****   
 159:u8g2/csrc/u8g2_setup.c ****   u8g2->user_x0 = u8g2->buf_y0;
 235              		.loc 1 159 3 is_stmt 1 view .LVU78
 236              		.loc 1 159 23 is_stmt 0 view .LVU79
 237 0016 94F83D20 		ldrb	r2, [r4, #61]	@ zero_extendqisi2
 238              		.loc 1 159 17 view .LVU80
 239 001a 84F84120 		strb	r2, [r4, #65]
 160:u8g2/csrc/u8g2_setup.c ****   u8g2->user_x1 = u8g2->buf_y1;
 240              		.loc 1 160 3 is_stmt 1 view .LVU81
 241              		.loc 1 160 23 is_stmt 0 view .LVU82
 242 001e 94F83E20 		ldrb	r2, [r4, #62]	@ zero_extendqisi2
 243              		.loc 1 160 17 view .LVU83
 244 0022 84F84220 		strb	r2, [r4, #66]
ARM GAS  C:\Users\behun\AppData\Local\Temp\ccwuZfJh.s 			page 8


 161:u8g2/csrc/u8g2_setup.c ****   
 162:u8g2/csrc/u8g2_setup.c ****   u8g2->user_y0 = 0;
 245              		.loc 1 162 3 is_stmt 1 view .LVU84
 246              		.loc 1 162 17 is_stmt 0 view .LVU85
 247 0026 0022     		movs	r2, #0
 248 0028 84F84320 		strb	r2, [r4, #67]
 163:u8g2/csrc/u8g2_setup.c ****   u8g2->user_y1 = u8g2->height;	/* pixel_buf_width replaced with height (which is the real pixel wi
 249              		.loc 1 163 3 is_stmt 1 view .LVU86
 250              		.loc 1 163 17 is_stmt 0 view .LVU87
 251 002c 84F84430 		strb	r3, [r4, #68]
 164:u8g2/csrc/u8g2_setup.c ****   
 165:u8g2/csrc/u8g2_setup.c ****   //printf("x0=%d x1=%d y0=%d y1=%d\n", 
 166:u8g2/csrc/u8g2_setup.c ****    //   u8g2->user_x0, u8g2->user_x1, u8g2->user_y0, u8g2->user_y1);
 167:u8g2/csrc/u8g2_setup.c **** }
 252              		.loc 1 167 1 view .LVU88
 253 0030 10BD     		pop	{r4, pc}
 254              		.loc 1 167 1 view .LVU89
 255              		.cfi_endproc
 256              	.LFE4:
 258              		.section	.text.u8g2_update_dimension_r2,"ax",%progbits
 259              		.align	1
 260              		.global	u8g2_update_dimension_r2
 261              		.syntax unified
 262              		.thumb
 263              		.thumb_func
 264              		.fpu softvfp
 266              	u8g2_update_dimension_r2:
 267              	.LVL18:
 268              	.LFB5:
 168:u8g2/csrc/u8g2_setup.c **** 
 169:u8g2/csrc/u8g2_setup.c **** void u8g2_update_dimension_r2(u8g2_t *u8g2)
 170:u8g2/csrc/u8g2_setup.c **** {
 269              		.loc 1 170 1 is_stmt 1 view -0
 270              		.cfi_startproc
 271              		@ args = 0, pretend = 0, frame = 0
 272              		@ frame_needed = 0, uses_anonymous_args = 0
 273              		.loc 1 170 1 is_stmt 0 view .LVU91
 274 0000 10B5     		push	{r4, lr}
 275              	.LCFI4:
 276              		.cfi_def_cfa_offset 8
 277              		.cfi_offset 4, -8
 278              		.cfi_offset 14, -4
 279 0002 0446     		mov	r4, r0
 171:u8g2/csrc/u8g2_setup.c ****   u8g2_update_dimension_common(u8g2);
 280              		.loc 1 171 3 is_stmt 1 view .LVU92
 281 0004 FFF7FEFF 		bl	u8g2_update_dimension_common
 282              	.LVL19:
 172:u8g2/csrc/u8g2_setup.c **** 
 173:u8g2/csrc/u8g2_setup.c ****   u8g2->user_x0 = 0;
 283              		.loc 1 173 3 view .LVU93
 284              		.loc 1 173 17 is_stmt 0 view .LVU94
 285 0008 0023     		movs	r3, #0
 286 000a 84F84130 		strb	r3, [r4, #65]
 174:u8g2/csrc/u8g2_setup.c ****   u8g2->user_x1 = u8g2->width;	/* pixel_buf_width replaced with width */
 287              		.loc 1 174 3 is_stmt 1 view .LVU95
 288              		.loc 1 174 23 is_stmt 0 view .LVU96
 289 000e 94F83F30 		ldrb	r3, [r4, #63]	@ zero_extendqisi2
ARM GAS  C:\Users\behun\AppData\Local\Temp\ccwuZfJh.s 			page 9


 290              		.loc 1 174 17 view .LVU97
 291 0012 84F84230 		strb	r3, [r4, #66]
 175:u8g2/csrc/u8g2_setup.c ****   
 176:u8g2/csrc/u8g2_setup.c ****   u8g2->user_y0 = u8g2->height - u8g2->buf_y1;
 292              		.loc 1 176 3 is_stmt 1 view .LVU98
 293              		.loc 1 176 23 is_stmt 0 view .LVU99
 294 0016 94F84030 		ldrb	r3, [r4, #64]	@ zero_extendqisi2
 295              		.loc 1 176 38 view .LVU100
 296 001a 94F83E20 		ldrb	r2, [r4, #62]	@ zero_extendqisi2
 297              		.loc 1 176 32 view .LVU101
 298 001e 9A1A     		subs	r2, r3, r2
 299              		.loc 1 176 17 view .LVU102
 300 0020 84F84320 		strb	r2, [r4, #67]
 177:u8g2/csrc/u8g2_setup.c ****   u8g2->user_y1 = u8g2->height - u8g2->buf_y0;
 301              		.loc 1 177 3 is_stmt 1 view .LVU103
 302              		.loc 1 177 38 is_stmt 0 view .LVU104
 303 0024 94F83D20 		ldrb	r2, [r4, #61]	@ zero_extendqisi2
 304              		.loc 1 177 32 view .LVU105
 305 0028 9B1A     		subs	r3, r3, r2
 306              		.loc 1 177 17 view .LVU106
 307 002a 84F84430 		strb	r3, [r4, #68]
 178:u8g2/csrc/u8g2_setup.c **** 
 179:u8g2/csrc/u8g2_setup.c **** //  printf("x0=%d x1=%d y0=%d y1=%d\n", 
 180:u8g2/csrc/u8g2_setup.c **** //      u8g2->user_x0, u8g2->user_x1, u8g2->user_y0, u8g2->user_y1);
 181:u8g2/csrc/u8g2_setup.c **** }
 308              		.loc 1 181 1 view .LVU107
 309 002e 10BD     		pop	{r4, pc}
 310              		.loc 1 181 1 view .LVU108
 311              		.cfi_endproc
 312              	.LFE5:
 314              		.section	.text.u8g2_update_dimension_r3,"ax",%progbits
 315              		.align	1
 316              		.global	u8g2_update_dimension_r3
 317              		.syntax unified
 318              		.thumb
 319              		.thumb_func
 320              		.fpu softvfp
 322              	u8g2_update_dimension_r3:
 323              	.LVL20:
 324              	.LFB6:
 182:u8g2/csrc/u8g2_setup.c **** 
 183:u8g2/csrc/u8g2_setup.c **** void u8g2_update_dimension_r3(u8g2_t *u8g2)
 184:u8g2/csrc/u8g2_setup.c **** {
 325              		.loc 1 184 1 is_stmt 1 view -0
 326              		.cfi_startproc
 327              		@ args = 0, pretend = 0, frame = 0
 328              		@ frame_needed = 0, uses_anonymous_args = 0
 329              		.loc 1 184 1 is_stmt 0 view .LVU110
 330 0000 10B5     		push	{r4, lr}
 331              	.LCFI5:
 332              		.cfi_def_cfa_offset 8
 333              		.cfi_offset 4, -8
 334              		.cfi_offset 14, -4
 335 0002 0446     		mov	r4, r0
 185:u8g2/csrc/u8g2_setup.c ****   u8g2_update_dimension_common(u8g2);
 336              		.loc 1 185 3 is_stmt 1 view .LVU111
 337 0004 FFF7FEFF 		bl	u8g2_update_dimension_common
ARM GAS  C:\Users\behun\AppData\Local\Temp\ccwuZfJh.s 			page 10


 338              	.LVL21:
 186:u8g2/csrc/u8g2_setup.c ****   
 187:u8g2/csrc/u8g2_setup.c ****   u8g2->height = u8g2_GetU8x8(u8g2)->display_info->pixel_width;
 339              		.loc 1 187 3 view .LVU112
 340              		.loc 1 187 36 is_stmt 0 view .LVU113
 341 0008 2368     		ldr	r3, [r4]
 342              		.loc 1 187 16 view .LVU114
 343 000a 197D     		ldrb	r1, [r3, #20]	@ zero_extendqisi2
 344 000c 84F84010 		strb	r1, [r4, #64]
 188:u8g2/csrc/u8g2_setup.c ****   u8g2->width = u8g2_GetU8x8(u8g2)->display_info->pixel_height;
 345              		.loc 1 188 3 is_stmt 1 view .LVU115
 346              		.loc 1 188 15 is_stmt 0 view .LVU116
 347 0010 9B7D     		ldrb	r3, [r3, #22]	@ zero_extendqisi2
 348 0012 84F83F30 		strb	r3, [r4, #63]
 189:u8g2/csrc/u8g2_setup.c **** 
 190:u8g2/csrc/u8g2_setup.c ****   u8g2->user_x0 = u8g2->width - u8g2->buf_y1;
 349              		.loc 1 190 3 is_stmt 1 view .LVU117
 350              		.loc 1 190 37 is_stmt 0 view .LVU118
 351 0016 94F83E20 		ldrb	r2, [r4, #62]	@ zero_extendqisi2
 352              		.loc 1 190 31 view .LVU119
 353 001a 9A1A     		subs	r2, r3, r2
 354              		.loc 1 190 17 view .LVU120
 355 001c 84F84120 		strb	r2, [r4, #65]
 191:u8g2/csrc/u8g2_setup.c ****   u8g2->user_x1 = u8g2->width - u8g2->buf_y0;
 356              		.loc 1 191 3 is_stmt 1 view .LVU121
 357              		.loc 1 191 37 is_stmt 0 view .LVU122
 358 0020 94F83D20 		ldrb	r2, [r4, #61]	@ zero_extendqisi2
 359              		.loc 1 191 31 view .LVU123
 360 0024 9B1A     		subs	r3, r3, r2
 361              		.loc 1 191 17 view .LVU124
 362 0026 84F84230 		strb	r3, [r4, #66]
 192:u8g2/csrc/u8g2_setup.c ****   
 193:u8g2/csrc/u8g2_setup.c ****   u8g2->user_y0 = 0;
 363              		.loc 1 193 3 is_stmt 1 view .LVU125
 364              		.loc 1 193 17 is_stmt 0 view .LVU126
 365 002a 0023     		movs	r3, #0
 366 002c 84F84330 		strb	r3, [r4, #67]
 194:u8g2/csrc/u8g2_setup.c ****   u8g2->user_y1 = u8g2->height;	/* pixel_buf_width replaced with height (pixel_width) */
 367              		.loc 1 194 3 is_stmt 1 view .LVU127
 368              		.loc 1 194 17 is_stmt 0 view .LVU128
 369 0030 84F84410 		strb	r1, [r4, #68]
 195:u8g2/csrc/u8g2_setup.c **** 
 196:u8g2/csrc/u8g2_setup.c **** //  printf("x0=%d x1=%d y0=%d y1=%d\n", 
 197:u8g2/csrc/u8g2_setup.c **** //      u8g2->user_x0, u8g2->user_x1, u8g2->user_y0, u8g2->user_y1);
 198:u8g2/csrc/u8g2_setup.c **** }
 370              		.loc 1 198 1 view .LVU129
 371 0034 10BD     		pop	{r4, pc}
 372              		.loc 1 198 1 view .LVU130
 373              		.cfi_endproc
 374              	.LFE6:
 376              		.section	.text.u8g2_draw_l90_r0,"ax",%progbits
 377              		.align	1
 378              		.global	u8g2_draw_l90_r0
 379              		.syntax unified
 380              		.thumb
 381              		.thumb_func
 382              		.fpu softvfp
ARM GAS  C:\Users\behun\AppData\Local\Temp\ccwuZfJh.s 			page 11


 384              	u8g2_draw_l90_r0:
 385              	.LVL22:
 386              	.LFB7:
 199:u8g2/csrc/u8g2_setup.c **** 
 200:u8g2/csrc/u8g2_setup.c **** /*============================================*/
 201:u8g2/csrc/u8g2_setup.c **** extern void u8g2_draw_hv_line_4dir(u8g2_t *u8g2, u8g2_uint_t x, u8g2_uint_t y, u8g2_uint_t len, uin
 202:u8g2/csrc/u8g2_setup.c **** 
 203:u8g2/csrc/u8g2_setup.c **** 
 204:u8g2/csrc/u8g2_setup.c **** void u8g2_draw_l90_r0(u8g2_t *u8g2, u8g2_uint_t x, u8g2_uint_t y, u8g2_uint_t len, uint8_t dir)
 205:u8g2/csrc/u8g2_setup.c **** {
 387              		.loc 1 205 1 is_stmt 1 view -0
 388              		.cfi_startproc
 389              		@ args = 4, pretend = 0, frame = 0
 390              		@ frame_needed = 0, uses_anonymous_args = 0
 391              		.loc 1 205 1 is_stmt 0 view .LVU132
 392 0000 10B5     		push	{r4, lr}
 393              	.LCFI6:
 394              		.cfi_def_cfa_offset 8
 395              		.cfi_offset 4, -8
 396              		.cfi_offset 14, -4
 397 0002 82B0     		sub	sp, sp, #8
 398              	.LCFI7:
 399              		.cfi_def_cfa_offset 16
 206:u8g2/csrc/u8g2_setup.c ****   u8g2_draw_hv_line_4dir(u8g2, x, y, len, dir);
 400              		.loc 1 206 3 is_stmt 1 view .LVU133
 401 0004 9DF81040 		ldrb	r4, [sp, #16]	@ zero_extendqisi2
 402 0008 0094     		str	r4, [sp]
 403 000a FFF7FEFF 		bl	u8g2_draw_hv_line_4dir
 404              	.LVL23:
 207:u8g2/csrc/u8g2_setup.c **** }
 405              		.loc 1 207 1 is_stmt 0 view .LVU134
 406 000e 02B0     		add	sp, sp, #8
 407              	.LCFI8:
 408              		.cfi_def_cfa_offset 8
 409              		@ sp needed
 410 0010 10BD     		pop	{r4, pc}
 411              		.loc 1 207 1 view .LVU135
 412              		.cfi_endproc
 413              	.LFE7:
 415              		.section	.text.u8g2_draw_l90_mirrorr_r0,"ax",%progbits
 416              		.align	1
 417              		.global	u8g2_draw_l90_mirrorr_r0
 418              		.syntax unified
 419              		.thumb
 420              		.thumb_func
 421              		.fpu softvfp
 423              	u8g2_draw_l90_mirrorr_r0:
 424              	.LVL24:
 425              	.LFB8:
 208:u8g2/csrc/u8g2_setup.c **** 
 209:u8g2/csrc/u8g2_setup.c **** void u8g2_draw_l90_mirrorr_r0(u8g2_t *u8g2, u8g2_uint_t x, u8g2_uint_t y, u8g2_uint_t len, uint8_t 
 210:u8g2/csrc/u8g2_setup.c **** {
 426              		.loc 1 210 1 is_stmt 1 view -0
 427              		.cfi_startproc
 428              		@ args = 4, pretend = 0, frame = 0
 429              		@ frame_needed = 0, uses_anonymous_args = 0
 430              		.loc 1 210 1 is_stmt 0 view .LVU137
ARM GAS  C:\Users\behun\AppData\Local\Temp\ccwuZfJh.s 			page 12


 431 0000 30B5     		push	{r4, r5, lr}
 432              	.LCFI9:
 433              		.cfi_def_cfa_offset 12
 434              		.cfi_offset 4, -12
 435              		.cfi_offset 5, -8
 436              		.cfi_offset 14, -4
 437 0002 83B0     		sub	sp, sp, #12
 438              	.LCFI10:
 439              		.cfi_def_cfa_offset 24
 440 0004 9DF81850 		ldrb	r5, [sp, #24]	@ zero_extendqisi2
 211:u8g2/csrc/u8g2_setup.c ****   u8g2_uint_t xx;
 441              		.loc 1 211 3 is_stmt 1 view .LVU138
 212:u8g2/csrc/u8g2_setup.c ****   xx = u8g2->width;
 442              		.loc 1 212 3 view .LVU139
 443              		.loc 1 212 6 is_stmt 0 view .LVU140
 444 0008 90F83F40 		ldrb	r4, [r0, #63]	@ zero_extendqisi2
 445              	.LVL25:
 213:u8g2/csrc/u8g2_setup.c ****   xx -= x;
 446              		.loc 1 213 3 is_stmt 1 view .LVU141
 447              		.loc 1 213 6 is_stmt 0 view .LVU142
 448 000c 611A     		subs	r1, r4, r1
 449              	.LVL26:
 450              		.loc 1 213 6 view .LVU143
 451 000e C9B2     		uxtb	r1, r1
 452              	.LVL27:
 214:u8g2/csrc/u8g2_setup.c ****   if ( (dir & 1) == 0 )
 453              		.loc 1 214 3 is_stmt 1 view .LVU144
 454              		.loc 1 214 6 is_stmt 0 view .LVU145
 455 0010 15F0010F 		tst	r5, #1
 456 0014 06D1     		bne	.L18
 215:u8g2/csrc/u8g2_setup.c ****   {
 216:u8g2/csrc/u8g2_setup.c ****     xx -= len;
 457              		.loc 1 216 5 is_stmt 1 view .LVU146
 458              		.loc 1 216 8 is_stmt 0 view .LVU147
 459 0016 C91A     		subs	r1, r1, r3
 460              	.LVL28:
 461              		.loc 1 216 8 view .LVU148
 462 0018 C9B2     		uxtb	r1, r1
 463              	.LVL29:
 464              	.L19:
 217:u8g2/csrc/u8g2_setup.c ****   }
 218:u8g2/csrc/u8g2_setup.c ****   else
 219:u8g2/csrc/u8g2_setup.c ****   {
 220:u8g2/csrc/u8g2_setup.c ****     xx--;
 221:u8g2/csrc/u8g2_setup.c ****   }
 222:u8g2/csrc/u8g2_setup.c ****   u8g2_draw_hv_line_4dir(u8g2, xx, y, len, dir);
 465              		.loc 1 222 3 is_stmt 1 view .LVU149
 466 001a 0095     		str	r5, [sp]
 467 001c FFF7FEFF 		bl	u8g2_draw_hv_line_4dir
 468              	.LVL30:
 223:u8g2/csrc/u8g2_setup.c **** }
 469              		.loc 1 223 1 is_stmt 0 view .LVU150
 470 0020 03B0     		add	sp, sp, #12
 471              	.LCFI11:
 472              		.cfi_remember_state
 473              		.cfi_def_cfa_offset 12
 474              		@ sp needed
ARM GAS  C:\Users\behun\AppData\Local\Temp\ccwuZfJh.s 			page 13


 475 0022 30BD     		pop	{r4, r5, pc}
 476              	.LVL31:
 477              	.L18:
 478              	.LCFI12:
 479              		.cfi_restore_state
 220:u8g2/csrc/u8g2_setup.c ****   }
 480              		.loc 1 220 5 is_stmt 1 view .LVU151
 220:u8g2/csrc/u8g2_setup.c ****   }
 481              		.loc 1 220 7 is_stmt 0 view .LVU152
 482 0024 0139     		subs	r1, r1, #1
 483              	.LVL32:
 220:u8g2/csrc/u8g2_setup.c ****   }
 484              		.loc 1 220 7 view .LVU153
 485 0026 C9B2     		uxtb	r1, r1
 486              	.LVL33:
 220:u8g2/csrc/u8g2_setup.c ****   }
 487              		.loc 1 220 7 view .LVU154
 488 0028 F7E7     		b	.L19
 489              		.cfi_endproc
 490              	.LFE8:
 492              		.section	.text.u8g2_draw_l90_r1,"ax",%progbits
 493              		.align	1
 494              		.global	u8g2_draw_l90_r1
 495              		.syntax unified
 496              		.thumb
 497              		.thumb_func
 498              		.fpu softvfp
 500              	u8g2_draw_l90_r1:
 501              	.LVL34:
 502              	.LFB9:
 224:u8g2/csrc/u8g2_setup.c **** 
 225:u8g2/csrc/u8g2_setup.c **** 
 226:u8g2/csrc/u8g2_setup.c **** 
 227:u8g2/csrc/u8g2_setup.c **** void u8g2_draw_l90_r1(u8g2_t *u8g2, u8g2_uint_t x, u8g2_uint_t y, u8g2_uint_t len, uint8_t dir)
 228:u8g2/csrc/u8g2_setup.c **** {
 503              		.loc 1 228 1 is_stmt 1 view -0
 504              		.cfi_startproc
 505              		@ args = 4, pretend = 0, frame = 0
 506              		@ frame_needed = 0, uses_anonymous_args = 0
 507              		.loc 1 228 1 is_stmt 0 view .LVU156
 508 0000 10B5     		push	{r4, lr}
 509              	.LCFI13:
 510              		.cfi_def_cfa_offset 8
 511              		.cfi_offset 4, -8
 512              		.cfi_offset 14, -4
 513 0002 82B0     		sub	sp, sp, #8
 514              	.LCFI14:
 515              		.cfi_def_cfa_offset 16
 229:u8g2/csrc/u8g2_setup.c ****   u8g2_uint_t xx, yy;
 516              		.loc 1 229 3 is_stmt 1 view .LVU157
 230:u8g2/csrc/u8g2_setup.c ****   
 231:u8g2/csrc/u8g2_setup.c ****   yy = x;
 517              		.loc 1 231 3 view .LVU158
 518              	.LVL35:
 232:u8g2/csrc/u8g2_setup.c ****   
 233:u8g2/csrc/u8g2_setup.c ****   xx = u8g2->height;
 519              		.loc 1 233 3 view .LVU159
ARM GAS  C:\Users\behun\AppData\Local\Temp\ccwuZfJh.s 			page 14


 520              		.loc 1 233 6 is_stmt 0 view .LVU160
 521 0004 90F84040 		ldrb	r4, [r0, #64]	@ zero_extendqisi2
 522              	.LVL36:
 234:u8g2/csrc/u8g2_setup.c ****   xx -= y;
 523              		.loc 1 234 3 is_stmt 1 view .LVU161
 524              		.loc 1 234 6 is_stmt 0 view .LVU162
 525 0008 A41A     		subs	r4, r4, r2
 526              	.LVL37:
 527              		.loc 1 234 6 view .LVU163
 528 000a E4B2     		uxtb	r4, r4
 529              	.LVL38:
 235:u8g2/csrc/u8g2_setup.c ****   xx--;
 530              		.loc 1 235 3 is_stmt 1 view .LVU164
 531              		.loc 1 235 5 is_stmt 0 view .LVU165
 532 000c 013C     		subs	r4, r4, #1
 533              	.LVL39:
 236:u8g2/csrc/u8g2_setup.c ****   
 237:u8g2/csrc/u8g2_setup.c ****   dir ++;
 534              		.loc 1 237 3 is_stmt 1 view .LVU166
 535              		.loc 1 237 7 is_stmt 0 view .LVU167
 536 000e 9DF81020 		ldrb	r2, [sp, #16]	@ zero_extendqisi2
 537              	.LVL40:
 538              		.loc 1 237 7 view .LVU168
 539 0012 0132     		adds	r2, r2, #1
 540              	.LVL41:
 238:u8g2/csrc/u8g2_setup.c ****   dir &= 3;
 541              		.loc 1 238 3 is_stmt 1 view .LVU169
 542              		.loc 1 238 7 is_stmt 0 view .LVU170
 543 0014 02F00302 		and	r2, r2, #3
 544              	.LVL42:
 239:u8g2/csrc/u8g2_setup.c ****   u8g2_draw_hv_line_4dir(u8g2, xx, yy, len, dir);
 545              		.loc 1 239 3 is_stmt 1 view .LVU171
 546 0018 0092     		str	r2, [sp]
 547 001a 0A46     		mov	r2, r1
 548              	.LVL43:
 549              		.loc 1 239 3 is_stmt 0 view .LVU172
 550 001c E1B2     		uxtb	r1, r4
 551              	.LVL44:
 552              		.loc 1 239 3 view .LVU173
 553 001e FFF7FEFF 		bl	u8g2_draw_hv_line_4dir
 554              	.LVL45:
 240:u8g2/csrc/u8g2_setup.c **** }
 555              		.loc 1 240 1 view .LVU174
 556 0022 02B0     		add	sp, sp, #8
 557              	.LCFI15:
 558              		.cfi_def_cfa_offset 8
 559              		@ sp needed
 560 0024 10BD     		pop	{r4, pc}
 561              		.loc 1 240 1 view .LVU175
 562              		.cfi_endproc
 563              	.LFE9:
 565              		.section	.text.u8g2_draw_l90_r2,"ax",%progbits
 566              		.align	1
 567              		.global	u8g2_draw_l90_r2
 568              		.syntax unified
 569              		.thumb
 570              		.thumb_func
ARM GAS  C:\Users\behun\AppData\Local\Temp\ccwuZfJh.s 			page 15


 571              		.fpu softvfp
 573              	u8g2_draw_l90_r2:
 574              	.LVL46:
 575              	.LFB10:
 241:u8g2/csrc/u8g2_setup.c **** 
 242:u8g2/csrc/u8g2_setup.c **** void u8g2_draw_l90_r2(u8g2_t *u8g2, u8g2_uint_t x, u8g2_uint_t y, u8g2_uint_t len, uint8_t dir)
 243:u8g2/csrc/u8g2_setup.c **** {
 576              		.loc 1 243 1 is_stmt 1 view -0
 577              		.cfi_startproc
 578              		@ args = 4, pretend = 0, frame = 0
 579              		@ frame_needed = 0, uses_anonymous_args = 0
 580              		.loc 1 243 1 is_stmt 0 view .LVU177
 581 0000 30B5     		push	{r4, r5, lr}
 582              	.LCFI16:
 583              		.cfi_def_cfa_offset 12
 584              		.cfi_offset 4, -12
 585              		.cfi_offset 5, -8
 586              		.cfi_offset 14, -4
 587 0002 83B0     		sub	sp, sp, #12
 588              	.LCFI17:
 589              		.cfi_def_cfa_offset 24
 244:u8g2/csrc/u8g2_setup.c ****   u8g2_uint_t xx, yy;
 590              		.loc 1 244 3 is_stmt 1 view .LVU178
 245:u8g2/csrc/u8g2_setup.c **** 
 246:u8g2/csrc/u8g2_setup.c ****   yy = u8g2->height;
 591              		.loc 1 246 3 view .LVU179
 592              		.loc 1 246 6 is_stmt 0 view .LVU180
 593 0004 90F84040 		ldrb	r4, [r0, #64]	@ zero_extendqisi2
 594              	.LVL47:
 247:u8g2/csrc/u8g2_setup.c ****   yy -= y;
 595              		.loc 1 247 3 is_stmt 1 view .LVU181
 596              		.loc 1 247 6 is_stmt 0 view .LVU182
 597 0008 A21A     		subs	r2, r4, r2
 598              	.LVL48:
 599              		.loc 1 247 6 view .LVU183
 600 000a D2B2     		uxtb	r2, r2
 601              	.LVL49:
 248:u8g2/csrc/u8g2_setup.c ****   yy--;
 602              		.loc 1 248 3 is_stmt 1 view .LVU184
 603              		.loc 1 248 5 is_stmt 0 view .LVU185
 604 000c 013A     		subs	r2, r2, #1
 605              	.LVL50:
 249:u8g2/csrc/u8g2_setup.c ****   
 250:u8g2/csrc/u8g2_setup.c ****   xx = u8g2->width;
 606              		.loc 1 250 3 is_stmt 1 view .LVU186
 607              		.loc 1 250 6 is_stmt 0 view .LVU187
 608 000e 90F83F40 		ldrb	r4, [r0, #63]	@ zero_extendqisi2
 609              	.LVL51:
 251:u8g2/csrc/u8g2_setup.c ****   xx -= x;
 610              		.loc 1 251 3 is_stmt 1 view .LVU188
 611              		.loc 1 251 6 is_stmt 0 view .LVU189
 612 0012 611A     		subs	r1, r4, r1
 613              	.LVL52:
 614              		.loc 1 251 6 view .LVU190
 615 0014 C9B2     		uxtb	r1, r1
 616              	.LVL53:
 252:u8g2/csrc/u8g2_setup.c ****   xx--;
ARM GAS  C:\Users\behun\AppData\Local\Temp\ccwuZfJh.s 			page 16


 617              		.loc 1 252 3 is_stmt 1 view .LVU191
 618              		.loc 1 252 5 is_stmt 0 view .LVU192
 619 0016 0139     		subs	r1, r1, #1
 620              	.LVL54:
 253:u8g2/csrc/u8g2_setup.c ****   
 254:u8g2/csrc/u8g2_setup.c ****   dir +=2;
 621              		.loc 1 254 3 is_stmt 1 view .LVU193
 622              		.loc 1 254 7 is_stmt 0 view .LVU194
 623 0018 9DF81840 		ldrb	r4, [sp, #24]	@ zero_extendqisi2
 624 001c 0234     		adds	r4, r4, #2
 625              	.LVL55:
 255:u8g2/csrc/u8g2_setup.c ****   dir &= 3;
 626              		.loc 1 255 3 is_stmt 1 view .LVU195
 627              		.loc 1 255 7 is_stmt 0 view .LVU196
 628 001e 04F00304 		and	r4, r4, #3
 629              	.LVL56:
 256:u8g2/csrc/u8g2_setup.c ****   u8g2_draw_hv_line_4dir(u8g2, xx, yy, len, dir);
 630              		.loc 1 256 3 is_stmt 1 view .LVU197
 631 0022 0094     		str	r4, [sp]
 632 0024 D2B2     		uxtb	r2, r2
 633              		.loc 1 256 3 is_stmt 0 view .LVU198
 634 0026 C9B2     		uxtb	r1, r1
 635              		.loc 1 256 3 view .LVU199
 636 0028 FFF7FEFF 		bl	u8g2_draw_hv_line_4dir
 637              	.LVL57:
 257:u8g2/csrc/u8g2_setup.c **** }
 638              		.loc 1 257 1 view .LVU200
 639 002c 03B0     		add	sp, sp, #12
 640              	.LCFI18:
 641              		.cfi_def_cfa_offset 12
 642              		@ sp needed
 643 002e 30BD     		pop	{r4, r5, pc}
 644              		.loc 1 257 1 view .LVU201
 645              		.cfi_endproc
 646              	.LFE10:
 648              		.section	.text.u8g2_draw_l90_r3,"ax",%progbits
 649              		.align	1
 650              		.global	u8g2_draw_l90_r3
 651              		.syntax unified
 652              		.thumb
 653              		.thumb_func
 654              		.fpu softvfp
 656              	u8g2_draw_l90_r3:
 657              	.LVL58:
 658              	.LFB11:
 258:u8g2/csrc/u8g2_setup.c **** 
 259:u8g2/csrc/u8g2_setup.c **** void u8g2_draw_l90_r3(u8g2_t *u8g2, u8g2_uint_t x, u8g2_uint_t y, u8g2_uint_t len, uint8_t dir)
 260:u8g2/csrc/u8g2_setup.c **** {
 659              		.loc 1 260 1 is_stmt 1 view -0
 660              		.cfi_startproc
 661              		@ args = 4, pretend = 0, frame = 0
 662              		@ frame_needed = 0, uses_anonymous_args = 0
 663              		.loc 1 260 1 is_stmt 0 view .LVU203
 664 0000 10B5     		push	{r4, lr}
 665              	.LCFI19:
 666              		.cfi_def_cfa_offset 8
 667              		.cfi_offset 4, -8
ARM GAS  C:\Users\behun\AppData\Local\Temp\ccwuZfJh.s 			page 17


 668              		.cfi_offset 14, -4
 669 0002 82B0     		sub	sp, sp, #8
 670              	.LCFI20:
 671              		.cfi_def_cfa_offset 16
 672 0004 1446     		mov	r4, r2
 261:u8g2/csrc/u8g2_setup.c ****   u8g2_uint_t xx, yy;
 673              		.loc 1 261 3 is_stmt 1 view .LVU204
 262:u8g2/csrc/u8g2_setup.c **** 
 263:u8g2/csrc/u8g2_setup.c ****   xx = y;
 674              		.loc 1 263 3 view .LVU205
 675              	.LVL59:
 264:u8g2/csrc/u8g2_setup.c ****   
 265:u8g2/csrc/u8g2_setup.c ****   yy = u8g2->width;
 676              		.loc 1 265 3 view .LVU206
 677              		.loc 1 265 6 is_stmt 0 view .LVU207
 678 0006 90F83F20 		ldrb	r2, [r0, #63]	@ zero_extendqisi2
 679              	.LVL60:
 266:u8g2/csrc/u8g2_setup.c ****   yy -= x;
 680              		.loc 1 266 3 is_stmt 1 view .LVU208
 681              		.loc 1 266 6 is_stmt 0 view .LVU209
 682 000a 521A     		subs	r2, r2, r1
 683              	.LVL61:
 684              		.loc 1 266 6 view .LVU210
 685 000c D2B2     		uxtb	r2, r2
 686              	.LVL62:
 267:u8g2/csrc/u8g2_setup.c ****   yy--;
 687              		.loc 1 267 3 is_stmt 1 view .LVU211
 688              		.loc 1 267 5 is_stmt 0 view .LVU212
 689 000e 013A     		subs	r2, r2, #1
 690              	.LVL63:
 268:u8g2/csrc/u8g2_setup.c ****   
 269:u8g2/csrc/u8g2_setup.c ****   dir +=3;
 691              		.loc 1 269 3 is_stmt 1 view .LVU213
 692              		.loc 1 269 7 is_stmt 0 view .LVU214
 693 0010 9DF81010 		ldrb	r1, [sp, #16]	@ zero_extendqisi2
 694              	.LVL64:
 695              		.loc 1 269 7 view .LVU215
 696 0014 0331     		adds	r1, r1, #3
 697              	.LVL65:
 270:u8g2/csrc/u8g2_setup.c ****   dir &= 3;
 698              		.loc 1 270 3 is_stmt 1 view .LVU216
 699              		.loc 1 270 7 is_stmt 0 view .LVU217
 700 0016 01F00301 		and	r1, r1, #3
 701              	.LVL66:
 271:u8g2/csrc/u8g2_setup.c ****   u8g2_draw_hv_line_4dir(u8g2, xx, yy, len, dir);
 702              		.loc 1 271 3 is_stmt 1 view .LVU218
 703 001a 0091     		str	r1, [sp]
 704 001c D2B2     		uxtb	r2, r2
 705              		.loc 1 271 3 is_stmt 0 view .LVU219
 706 001e 2146     		mov	r1, r4
 707              	.LVL67:
 708              		.loc 1 271 3 view .LVU220
 709 0020 FFF7FEFF 		bl	u8g2_draw_hv_line_4dir
 710              	.LVL68:
 272:u8g2/csrc/u8g2_setup.c **** }
 711              		.loc 1 272 1 view .LVU221
 712 0024 02B0     		add	sp, sp, #8
ARM GAS  C:\Users\behun\AppData\Local\Temp\ccwuZfJh.s 			page 18


 713              	.LCFI21:
 714              		.cfi_def_cfa_offset 8
 715              		@ sp needed
 716 0026 10BD     		pop	{r4, pc}
 717              		.loc 1 272 1 view .LVU222
 718              		.cfi_endproc
 719              	.LFE11:
 721              		.section	.text.u8g2_SetupBuffer,"ax",%progbits
 722              		.align	1
 723              		.global	u8g2_SetupBuffer
 724              		.syntax unified
 725              		.thumb
 726              		.thumb_func
 727              		.fpu softvfp
 729              	u8g2_SetupBuffer:
 730              	.LVL69:
 731              	.LFB0:
  45:u8g2/csrc/u8g2_setup.c ****   u8g2->font = NULL;
 732              		.loc 1 45 1 is_stmt 1 view -0
 733              		.cfi_startproc
 734              		@ args = 4, pretend = 0, frame = 0
 735              		@ frame_needed = 0, uses_anonymous_args = 0
  45:u8g2/csrc/u8g2_setup.c ****   u8g2->font = NULL;
 736              		.loc 1 45 1 is_stmt 0 view .LVU224
 737 0000 70B5     		push	{r4, r5, r6, lr}
 738              	.LCFI22:
 739              		.cfi_def_cfa_offset 16
 740              		.cfi_offset 4, -16
 741              		.cfi_offset 5, -12
 742              		.cfi_offset 6, -8
 743              		.cfi_offset 14, -4
 744 0002 0446     		mov	r4, r0
 745 0004 049E     		ldr	r6, [sp, #16]
  46:u8g2/csrc/u8g2_setup.c ****   //u8g2->kerning = NULL;
 746              		.loc 1 46 3 is_stmt 1 view .LVU225
  46:u8g2/csrc/u8g2_setup.c ****   //u8g2->kerning = NULL;
 747              		.loc 1 46 14 is_stmt 0 view .LVU226
 748 0006 0025     		movs	r5, #0
 749 0008 8564     		str	r5, [r0, #72]
  51:u8g2/csrc/u8g2_setup.c ****   
 750              		.loc 1 51 3 is_stmt 1 view .LVU227
  51:u8g2/csrc/u8g2_setup.c ****   
 751              		.loc 1 51 19 is_stmt 0 view .LVU228
 752 000a C362     		str	r3, [r0, #44]
  53:u8g2/csrc/u8g2_setup.c ****   u8g2->tile_buf_height = tile_buf_height;
 753              		.loc 1 53 3 is_stmt 1 view .LVU229
  53:u8g2/csrc/u8g2_setup.c ****   u8g2->tile_buf_height = tile_buf_height;
 754              		.loc 1 53 22 is_stmt 0 view .LVU230
 755 000c 4163     		str	r1, [r0, #52]
  54:u8g2/csrc/u8g2_setup.c ****   
 756              		.loc 1 54 3 is_stmt 1 view .LVU231
  54:u8g2/csrc/u8g2_setup.c ****   
 757              		.loc 1 54 25 is_stmt 0 view .LVU232
 758 000e 80F83820 		strb	r2, [r0, #56]
  56:u8g2/csrc/u8g2_setup.c ****   
 759              		.loc 1 56 3 is_stmt 1 view .LVU233
  56:u8g2/csrc/u8g2_setup.c ****   
ARM GAS  C:\Users\behun\AppData\Local\Temp\ccwuZfJh.s 			page 19


 760              		.loc 1 56 23 is_stmt 0 view .LVU234
 761 0012 80F83950 		strb	r5, [r0, #57]
  58:u8g2/csrc/u8g2_setup.c ****   u8g2->bitmap_transparency = 0;
 762              		.loc 1 58 3 is_stmt 1 view .LVU235
  58:u8g2/csrc/u8g2_setup.c ****   u8g2->bitmap_transparency = 0;
 763              		.loc 1 58 36 is_stmt 0 view .LVU236
 764 0016 80F85B50 		strb	r5, [r0, #91]
  59:u8g2/csrc/u8g2_setup.c ****   
 765              		.loc 1 59 3 is_stmt 1 view .LVU237
  59:u8g2/csrc/u8g2_setup.c ****   
 766              		.loc 1 59 29 is_stmt 0 view .LVU238
 767 001a 80F87C50 		strb	r5, [r0, #124]
  61:u8g2/csrc/u8g2_setup.c ****   u8g2->is_auto_page_clear = 1;
 768              		.loc 1 61 3 is_stmt 1 view .LVU239
  61:u8g2/csrc/u8g2_setup.c ****   u8g2->is_auto_page_clear = 1;
 769              		.loc 1 61 20 is_stmt 0 view .LVU240
 770 001e 0123     		movs	r3, #1
 771              	.LVL70:
  61:u8g2/csrc/u8g2_setup.c ****   u8g2->is_auto_page_clear = 1;
 772              		.loc 1 61 20 view .LVU241
 773 0020 80F87D30 		strb	r3, [r0, #125]
  62:u8g2/csrc/u8g2_setup.c ****   
 774              		.loc 1 62 3 is_stmt 1 view .LVU242
  62:u8g2/csrc/u8g2_setup.c ****   
 775              		.loc 1 62 28 is_stmt 0 view .LVU243
 776 0024 80F87E30 		strb	r3, [r0, #126]
  64:u8g2/csrc/u8g2_setup.c ****   u8g2->cb->update(u8g2);
 777              		.loc 1 64 3 is_stmt 1 view .LVU244
  64:u8g2/csrc/u8g2_setup.c ****   u8g2->cb->update(u8g2);
 778              		.loc 1 64 12 is_stmt 0 view .LVU245
 779 0028 0663     		str	r6, [r0, #48]
  65:u8g2/csrc/u8g2_setup.c **** 
 780              		.loc 1 65 3 is_stmt 1 view .LVU246
  65:u8g2/csrc/u8g2_setup.c **** 
 781              		.loc 1 65 11 is_stmt 0 view .LVU247
 782 002a 3368     		ldr	r3, [r6]
  65:u8g2/csrc/u8g2_setup.c **** 
 783              		.loc 1 65 3 view .LVU248
 784 002c 9847     		blx	r3
 785              	.LVL71:
  67:u8g2/csrc/u8g2_setup.c ****   
 786              		.loc 1 67 3 is_stmt 1 view .LVU249
 787 002e 2046     		mov	r0, r4
 788 0030 FFF7FEFF 		bl	u8g2_SetFontPosBaseline
 789              	.LVL72:
  70:u8g2/csrc/u8g2_setup.c **** #endif
 790              		.loc 1 70 3 view .LVU250
  70:u8g2/csrc/u8g2_setup.c **** #endif
 791              		.loc 1 70 25 is_stmt 0 view .LVU251
 792 0034 84F85E50 		strb	r5, [r4, #94]
  72:u8g2/csrc/u8g2_setup.c **** 
 793              		.loc 1 72 1 view .LVU252
 794 0038 70BD     		pop	{r4, r5, r6, pc}
  72:u8g2/csrc/u8g2_setup.c **** 
 795              		.loc 1 72 1 view .LVU253
 796              		.cfi_endproc
 797              	.LFE0:
ARM GAS  C:\Users\behun\AppData\Local\Temp\ccwuZfJh.s 			page 20


 799              		.section	.text.u8g2_SetDisplayRotation,"ax",%progbits
 800              		.align	1
 801              		.global	u8g2_SetDisplayRotation
 802              		.syntax unified
 803              		.thumb
 804              		.thumb_func
 805              		.fpu softvfp
 807              	u8g2_SetDisplayRotation:
 808              	.LVL73:
 809              	.LFB1:
  79:u8g2/csrc/u8g2_setup.c ****   u8g2->cb = u8g2_cb;
 810              		.loc 1 79 1 is_stmt 1 view -0
 811              		.cfi_startproc
 812              		@ args = 0, pretend = 0, frame = 0
 813              		@ frame_needed = 0, uses_anonymous_args = 0
  79:u8g2/csrc/u8g2_setup.c ****   u8g2->cb = u8g2_cb;
 814              		.loc 1 79 1 is_stmt 0 view .LVU255
 815 0000 08B5     		push	{r3, lr}
 816              	.LCFI23:
 817              		.cfi_def_cfa_offset 8
 818              		.cfi_offset 3, -8
 819              		.cfi_offset 14, -4
  80:u8g2/csrc/u8g2_setup.c ****   u8g2->cb->update(u8g2);
 820              		.loc 1 80 3 is_stmt 1 view .LVU256
  80:u8g2/csrc/u8g2_setup.c ****   u8g2->cb->update(u8g2);
 821              		.loc 1 80 12 is_stmt 0 view .LVU257
 822 0002 0163     		str	r1, [r0, #48]
  81:u8g2/csrc/u8g2_setup.c **** }
 823              		.loc 1 81 3 is_stmt 1 view .LVU258
  81:u8g2/csrc/u8g2_setup.c **** }
 824              		.loc 1 81 11 is_stmt 0 view .LVU259
 825 0004 0B68     		ldr	r3, [r1]
  81:u8g2/csrc/u8g2_setup.c **** }
 826              		.loc 1 81 3 view .LVU260
 827 0006 9847     		blx	r3
 828              	.LVL74:
  82:u8g2/csrc/u8g2_setup.c **** 
 829              		.loc 1 82 1 view .LVU261
 830 0008 08BD     		pop	{r3, pc}
 831              		.cfi_endproc
 832              	.LFE1:
 834              		.global	u8g2_cb_mirror
 835              		.global	u8g2_cb_r3
 836              		.global	u8g2_cb_r2
 837              		.global	u8g2_cb_r1
 838              		.global	u8g2_cb_r0
 839              		.section	.rodata.u8g2_cb_mirror,"a"
 840              		.align	2
 843              	u8g2_cb_mirror:
 844 0000 00000000 		.word	u8g2_update_dimension_r0
 845 0004 00000000 		.word	u8g2_draw_l90_mirrorr_r0
 846              		.section	.rodata.u8g2_cb_r0,"a"
 847              		.align	2
 850              	u8g2_cb_r0:
 851 0000 00000000 		.word	u8g2_update_dimension_r0
 852 0004 00000000 		.word	u8g2_draw_l90_r0
 853              		.section	.rodata.u8g2_cb_r1,"a"
ARM GAS  C:\Users\behun\AppData\Local\Temp\ccwuZfJh.s 			page 21


 854              		.align	2
 857              	u8g2_cb_r1:
 858 0000 00000000 		.word	u8g2_update_dimension_r1
 859 0004 00000000 		.word	u8g2_draw_l90_r1
 860              		.section	.rodata.u8g2_cb_r2,"a"
 861              		.align	2
 864              	u8g2_cb_r2:
 865 0000 00000000 		.word	u8g2_update_dimension_r2
 866 0004 00000000 		.word	u8g2_draw_l90_r2
 867              		.section	.rodata.u8g2_cb_r3,"a"
 868              		.align	2
 871              	u8g2_cb_r3:
 872 0000 00000000 		.word	u8g2_update_dimension_r3
 873 0004 00000000 		.word	u8g2_draw_l90_r3
 874              		.text
 875              	.Letext0:
 876              		.file 2 "c:\\program files (x86)\\gnu tools arm embedded\\8 2019-q3-update\\arm-none-eabi\\include
 877              		.file 3 "c:\\program files (x86)\\gnu tools arm embedded\\8 2019-q3-update\\arm-none-eabi\\include
 878              		.file 4 "u8g2/csrc/u8x8.h"
 879              		.file 5 "u8g2/csrc/u8g2.h"
 880              		.file 6 "c:\\program files (x86)\\gnu tools arm embedded\\8 2019-q3-update\\lib\\gcc\\arm-none-eab
 881              		.file 7 "c:\\program files (x86)\\gnu tools arm embedded\\8 2019-q3-update\\arm-none-eabi\\include
 882              		.file 8 "c:\\program files (x86)\\gnu tools arm embedded\\8 2019-q3-update\\arm-none-eabi\\include
 883              		.file 9 "c:\\program files (x86)\\gnu tools arm embedded\\8 2019-q3-update\\arm-none-eabi\\include
ARM GAS  C:\Users\behun\AppData\Local\Temp\ccwuZfJh.s 			page 22

