ARM GAS  /var/folders/rk/zpr83dd14lx588t7kb0yv2b40000gn/T//cc1y8Oxw.s 			page 1


   1              		.cpu cortex-m3
   2              		.eabi_attribute 20, 1
   3              		.eabi_attribute 21, 1
   4              		.eabi_attribute 23, 3
   5              		.eabi_attribute 24, 1
   6              		.eabi_attribute 25, 1
   7              		.eabi_attribute 26, 1
   8              		.eabi_attribute 30, 1
   9              		.eabi_attribute 34, 1
  10              		.eabi_attribute 18, 4
  11              		.file	"u8x8_setup.c"
  12              		.text
  13              	.Ltext0:
  14              		.cfi_sections	.debug_frame
  15              		.section	.text.u8x8_dummy_cb,"ax",%progbits
  16              		.align	1
  17              		.global	u8x8_dummy_cb
  18              		.syntax unified
  19              		.thumb
  20              		.thumb_func
  21              		.fpu softvfp
  23              	u8x8_dummy_cb:
  24              	.LFB0:
  25              		.file 1 "u8g2/csrc/u8x8_setup.c"
   1:u8g2/csrc/u8x8_setup.c **** /*
   2:u8g2/csrc/u8x8_setup.c **** 
   3:u8g2/csrc/u8x8_setup.c ****   u8x8_setup.c
   4:u8g2/csrc/u8x8_setup.c **** 
   5:u8g2/csrc/u8x8_setup.c ****   Universal 8bit Graphics Library (https://github.com/olikraus/u8g2/)
   6:u8g2/csrc/u8x8_setup.c **** 
   7:u8g2/csrc/u8x8_setup.c ****   Copyright (c) 2016, olikraus@gmail.com
   8:u8g2/csrc/u8x8_setup.c ****   All rights reserved.
   9:u8g2/csrc/u8x8_setup.c **** 
  10:u8g2/csrc/u8x8_setup.c ****   Redistribution and use in source and binary forms, with or without modification, 
  11:u8g2/csrc/u8x8_setup.c ****   are permitted provided that the following conditions are met:
  12:u8g2/csrc/u8x8_setup.c **** 
  13:u8g2/csrc/u8x8_setup.c ****   * Redistributions of source code must retain the above copyright notice, this list 
  14:u8g2/csrc/u8x8_setup.c ****     of conditions and the following disclaimer.
  15:u8g2/csrc/u8x8_setup.c ****     
  16:u8g2/csrc/u8x8_setup.c ****   * Redistributions in binary form must reproduce the above copyright notice, this 
  17:u8g2/csrc/u8x8_setup.c ****     list of conditions and the following disclaimer in the documentation and/or other 
  18:u8g2/csrc/u8x8_setup.c ****     materials provided with the distribution.
  19:u8g2/csrc/u8x8_setup.c **** 
  20:u8g2/csrc/u8x8_setup.c ****   THIS SOFTWARE IS PROVIDED BY THE COPYRIGHT HOLDERS AND 
  21:u8g2/csrc/u8x8_setup.c ****   CONTRIBUTORS "AS IS" AND ANY EXPRESS OR IMPLIED WARRANTIES, 
  22:u8g2/csrc/u8x8_setup.c ****   INCLUDING, BUT NOT LIMITED TO, THE IMPLIED WARRANTIES OF 
  23:u8g2/csrc/u8x8_setup.c ****   MERCHANTABILITY AND FITNESS FOR A PARTICULAR PURPOSE ARE 
  24:u8g2/csrc/u8x8_setup.c ****   DISCLAIMED. IN NO EVENT SHALL THE COPYRIGHT HOLDER OR 
  25:u8g2/csrc/u8x8_setup.c ****   CONTRIBUTORS BE LIABLE FOR ANY DIRECT, INDIRECT, INCIDENTAL, 
  26:u8g2/csrc/u8x8_setup.c ****   SPECIAL, EXEMPLARY, OR CONSEQUENTIAL DAMAGES (INCLUDING, BUT 
  27:u8g2/csrc/u8x8_setup.c ****   NOT LIMITED TO, PROCUREMENT OF SUBSTITUTE GOODS OR SERVICES; 
  28:u8g2/csrc/u8x8_setup.c ****   LOSS OF USE, DATA, OR PROFITS; OR BUSINESS INTERRUPTION) HOWEVER 
  29:u8g2/csrc/u8x8_setup.c ****   CAUSED AND ON ANY THEORY OF LIABILITY, WHETHER IN CONTRACT, 
  30:u8g2/csrc/u8x8_setup.c ****   STRICT LIABILITY, OR TORT (INCLUDING NEGLIGENCE OR OTHERWISE) 
  31:u8g2/csrc/u8x8_setup.c ****   ARISING IN ANY WAY OUT OF THE USE OF THIS SOFTWARE, EVEN IF 
  32:u8g2/csrc/u8x8_setup.c ****   ADVISED OF THE POSSIBILITY OF SUCH DAMAGE.  
  33:u8g2/csrc/u8x8_setup.c **** 
ARM GAS  /var/folders/rk/zpr83dd14lx588t7kb0yv2b40000gn/T//cc1y8Oxw.s 			page 2


  34:u8g2/csrc/u8x8_setup.c **** */
  35:u8g2/csrc/u8x8_setup.c **** 
  36:u8g2/csrc/u8x8_setup.c **** 
  37:u8g2/csrc/u8x8_setup.c **** #include "u8x8.h"
  38:u8g2/csrc/u8x8_setup.c **** 
  39:u8g2/csrc/u8x8_setup.c **** uint8_t u8x8_dummy_cb(U8X8_UNUSED u8x8_t *u8x8, U8X8_UNUSED uint8_t msg, U8X8_UNUSED uint8_t arg_in
  40:u8g2/csrc/u8x8_setup.c **** {
  26              		.loc 1 40 0
  27              		.cfi_startproc
  28              		@ args = 0, pretend = 0, frame = 0
  29              		@ frame_needed = 0, uses_anonymous_args = 0
  30              		@ link register save eliminated.
  31              	.LVL0:
  41:u8g2/csrc/u8x8_setup.c ****   /* the dummy callback will not handle any message and will fail for all messages */
  42:u8g2/csrc/u8x8_setup.c ****   return 0;
  43:u8g2/csrc/u8x8_setup.c **** }
  32              		.loc 1 43 0
  33 0000 0020     		movs	r0, #0
  34              	.LVL1:
  35 0002 7047     		bx	lr
  36              		.cfi_endproc
  37              	.LFE0:
  39              		.section	.text.u8x8_SetupDefaults,"ax",%progbits
  40              		.align	1
  41              		.global	u8x8_SetupDefaults
  42              		.syntax unified
  43              		.thumb
  44              		.thumb_func
  45              		.fpu softvfp
  47              	u8x8_SetupDefaults:
  48              	.LFB1:
  44:u8g2/csrc/u8x8_setup.c **** 
  45:u8g2/csrc/u8x8_setup.c **** 
  46:u8g2/csrc/u8x8_setup.c **** /*
  47:u8g2/csrc/u8x8_setup.c ****   Description:
  48:u8g2/csrc/u8x8_setup.c ****     Setup u8x8
  49:u8g2/csrc/u8x8_setup.c ****   Args:
  50:u8g2/csrc/u8x8_setup.c ****     u8x8	An empty u8x8 structure
  51:u8g2/csrc/u8x8_setup.c **** */
  52:u8g2/csrc/u8x8_setup.c **** void u8x8_SetupDefaults(u8x8_t *u8x8)
  53:u8g2/csrc/u8x8_setup.c **** {
  49              		.loc 1 53 0
  50              		.cfi_startproc
  51              		@ args = 0, pretend = 0, frame = 0
  52              		@ frame_needed = 0, uses_anonymous_args = 0
  53              		@ link register save eliminated.
  54              	.LVL2:
  54:u8g2/csrc/u8x8_setup.c ****     u8x8->display_info = NULL;
  55              		.loc 1 54 0
  56 0000 0023     		movs	r3, #0
  57 0002 0360     		str	r3, [r0]
  55:u8g2/csrc/u8x8_setup.c ****     u8x8->display_cb = u8x8_dummy_cb;
  58              		.loc 1 55 0
  59 0004 074A     		ldr	r2, .L3
  60 0006 8260     		str	r2, [r0, #8]
  56:u8g2/csrc/u8x8_setup.c ****     u8x8->cad_cb = u8x8_dummy_cb;
  61              		.loc 1 56 0
ARM GAS  /var/folders/rk/zpr83dd14lx588t7kb0yv2b40000gn/T//cc1y8Oxw.s 			page 3


  62 0008 C260     		str	r2, [r0, #12]
  57:u8g2/csrc/u8x8_setup.c ****     u8x8->byte_cb = u8x8_dummy_cb;
  63              		.loc 1 57 0
  64 000a 0261     		str	r2, [r0, #16]
  58:u8g2/csrc/u8x8_setup.c ****     u8x8->gpio_and_delay_cb = u8x8_dummy_cb;
  65              		.loc 1 58 0
  66 000c 4261     		str	r2, [r0, #20]
  59:u8g2/csrc/u8x8_setup.c ****     u8x8->is_font_inverse_mode = 0;
  67              		.loc 1 59 0
  68 000e C377     		strb	r3, [r0, #31]
  60:u8g2/csrc/u8x8_setup.c ****     u8x8->device_address = 0;
  69              		.loc 1 60 0
  70 0010 80F82230 		strb	r3, [r0, #34]
  61:u8g2/csrc/u8x8_setup.c ****     u8x8->utf8_state = 0;		/* also reset by u8x8_utf8_init */
  71              		.loc 1 61 0
  72 0014 80F82330 		strb	r3, [r0, #35]
  62:u8g2/csrc/u8x8_setup.c ****     u8x8->i2c_address = 255;
  73              		.loc 1 62 0
  74 0018 FF23     		movs	r3, #255
  75 001a 80F82030 		strb	r3, [r0, #32]
  63:u8g2/csrc/u8x8_setup.c ****     u8x8->debounce_default_pin_state = 255;	/* assume all low active buttons */
  76              		.loc 1 63 0
  77 001e 80F82530 		strb	r3, [r0, #37]
  64:u8g2/csrc/u8x8_setup.c ****   
  65:u8g2/csrc/u8x8_setup.c **** #ifdef U8X8_USE_PINS 
  66:u8g2/csrc/u8x8_setup.c ****   {
  67:u8g2/csrc/u8x8_setup.c ****     uint8_t i;
  68:u8g2/csrc/u8x8_setup.c ****     for( i = 0; i < U8X8_PIN_CNT; i++ )
  69:u8g2/csrc/u8x8_setup.c ****       u8x8->pins[i] = U8X8_PIN_NONE;
  70:u8g2/csrc/u8x8_setup.c ****   }
  71:u8g2/csrc/u8x8_setup.c **** #endif
  72:u8g2/csrc/u8x8_setup.c **** }
  78              		.loc 1 72 0
  79 0022 7047     		bx	lr
  80              	.L4:
  81              		.align	2
  82              	.L3:
  83 0024 00000000 		.word	u8x8_dummy_cb
  84              		.cfi_endproc
  85              	.LFE1:
  87              		.section	.text.u8x8_Setup,"ax",%progbits
  88              		.align	1
  89              		.global	u8x8_Setup
  90              		.syntax unified
  91              		.thumb
  92              		.thumb_func
  93              		.fpu softvfp
  95              	u8x8_Setup:
  96              	.LFB2:
  73:u8g2/csrc/u8x8_setup.c **** 
  74:u8g2/csrc/u8x8_setup.c **** 
  75:u8g2/csrc/u8x8_setup.c **** /*
  76:u8g2/csrc/u8x8_setup.c ****   Description:
  77:u8g2/csrc/u8x8_setup.c ****     Setup u8x8 and assign the callback function. The dummy 
  78:u8g2/csrc/u8x8_setup.c ****     callback "u8x8_dummy_cb" can be used, if no callback is required.
  79:u8g2/csrc/u8x8_setup.c ****     This setup will not communicate with the display itself.
  80:u8g2/csrc/u8x8_setup.c ****     Use u8x8_InitDisplay() to send the startup code to the Display.
ARM GAS  /var/folders/rk/zpr83dd14lx588t7kb0yv2b40000gn/T//cc1y8Oxw.s 			page 4


  81:u8g2/csrc/u8x8_setup.c ****   Args:
  82:u8g2/csrc/u8x8_setup.c ****     u8x8				An empty u8x8 structure
  83:u8g2/csrc/u8x8_setup.c ****     display_cb			Display/controller specific callback function
  84:u8g2/csrc/u8x8_setup.c ****     cad_cb				Display controller specific communication callback function
  85:u8g2/csrc/u8x8_setup.c ****     byte_cb			Display controller/communication specific callback funtion
  86:u8g2/csrc/u8x8_setup.c ****     gpio_and_delay_cb	Environment specific callback function
  87:u8g2/csrc/u8x8_setup.c **** 
  88:u8g2/csrc/u8x8_setup.c **** */
  89:u8g2/csrc/u8x8_setup.c **** void u8x8_Setup(u8x8_t *u8x8, u8x8_msg_cb display_cb, u8x8_msg_cb cad_cb, u8x8_msg_cb byte_cb, u8x8
  90:u8g2/csrc/u8x8_setup.c **** {
  97              		.loc 1 90 0
  98              		.cfi_startproc
  99              		@ args = 4, pretend = 0, frame = 0
 100              		@ frame_needed = 0, uses_anonymous_args = 0
 101              	.LVL3:
 102 0000 F8B5     		push	{r3, r4, r5, r6, r7, lr}
 103              	.LCFI0:
 104              		.cfi_def_cfa_offset 24
 105              		.cfi_offset 3, -24
 106              		.cfi_offset 4, -20
 107              		.cfi_offset 5, -16
 108              		.cfi_offset 6, -12
 109              		.cfi_offset 7, -8
 110              		.cfi_offset 14, -4
 111 0002 0446     		mov	r4, r0
 112 0004 0F46     		mov	r7, r1
 113 0006 1646     		mov	r6, r2
 114 0008 1D46     		mov	r5, r3
  91:u8g2/csrc/u8x8_setup.c ****   /* setup defaults and reset pins to U8X8_PIN_NONE */
  92:u8g2/csrc/u8x8_setup.c ****   u8x8_SetupDefaults(u8x8);
 115              		.loc 1 92 0
 116 000a FFF7FEFF 		bl	u8x8_SetupDefaults
 117              	.LVL4:
  93:u8g2/csrc/u8x8_setup.c **** 
  94:u8g2/csrc/u8x8_setup.c ****   /* setup specific callbacks */
  95:u8g2/csrc/u8x8_setup.c ****   u8x8->display_cb = display_cb;
 118              		.loc 1 95 0
 119 000e A760     		str	r7, [r4, #8]
  96:u8g2/csrc/u8x8_setup.c ****   u8x8->cad_cb = cad_cb;
 120              		.loc 1 96 0
 121 0010 E660     		str	r6, [r4, #12]
  97:u8g2/csrc/u8x8_setup.c ****   u8x8->byte_cb = byte_cb;
 122              		.loc 1 97 0
 123 0012 2561     		str	r5, [r4, #16]
  98:u8g2/csrc/u8x8_setup.c ****   u8x8->gpio_and_delay_cb = gpio_and_delay_cb;
 124              		.loc 1 98 0
 125 0014 069B     		ldr	r3, [sp, #24]
 126 0016 6361     		str	r3, [r4, #20]
  99:u8g2/csrc/u8x8_setup.c **** 
 100:u8g2/csrc/u8x8_setup.c ****   /* setup display info */
 101:u8g2/csrc/u8x8_setup.c ****   u8x8_SetupMemory(u8x8);
 127              		.loc 1 101 0
 128 0018 2046     		mov	r0, r4
 129 001a FFF7FEFF 		bl	u8x8_SetupMemory
 130              	.LVL5:
 102:u8g2/csrc/u8x8_setup.c **** }
 131              		.loc 1 102 0
ARM GAS  /var/folders/rk/zpr83dd14lx588t7kb0yv2b40000gn/T//cc1y8Oxw.s 			page 5


 132 001e F8BD     		pop	{r3, r4, r5, r6, r7, pc}
 133              		.cfi_endproc
 134              	.LFE2:
 136              		.text
 137              	.Letext0:
 138              		.file 2 "/usr/local/gcc_arm/gcc-arm-none-eabi-7-2017-q4-major/arm-none-eabi/include/machine/_defau
 139              		.file 3 "/usr/local/gcc_arm/gcc-arm-none-eabi-7-2017-q4-major/arm-none-eabi/include/sys/_stdint.h"
 140              		.file 4 "u8g2/csrc/u8x8.h"
ARM GAS  /var/folders/rk/zpr83dd14lx588t7kb0yv2b40000gn/T//cc1y8Oxw.s 			page 6

