ARM GAS  C:\Users\behun\AppData\Local\Temp\ccMYhszQ.s 			page 1


   1              		.cpu cortex-m3
   2              		.eabi_attribute 20, 1
   3              		.eabi_attribute 21, 1
   4              		.eabi_attribute 23, 3
   5              		.eabi_attribute 24, 1
   6              		.eabi_attribute 25, 1
   7              		.eabi_attribute 26, 1
   8              		.eabi_attribute 30, 1
   9              		.eabi_attribute 34, 1
  10              		.eabi_attribute 18, 4
  11              		.file	"u8x8_byte.c"
  12              		.text
  13              	.Ltext0:
  14              		.cfi_sections	.debug_frame
  15              		.section	.text.i2c_delay,"ax",%progbits
  16              		.align	1
  17              		.arch armv7-m
  18              		.syntax unified
  19              		.thumb
  20              		.thumb_func
  21              		.fpu softvfp
  23              	i2c_delay:
  24              	.LVL0:
  25              	.LFB12:
  26              		.file 1 "u8g2/csrc/u8x8_byte.c"
   1:u8g2/csrc/u8x8_byte.c **** /*
   2:u8g2/csrc/u8x8_byte.c **** 
   3:u8g2/csrc/u8x8_byte.c ****   u8x8_byte.c 
   4:u8g2/csrc/u8x8_byte.c ****   
   5:u8g2/csrc/u8x8_byte.c ****   Universal 8bit Graphics Library (https://github.com/olikraus/u8g2/)
   6:u8g2/csrc/u8x8_byte.c **** 
   7:u8g2/csrc/u8x8_byte.c ****   Copyright (c) 2016, olikraus@gmail.com
   8:u8g2/csrc/u8x8_byte.c ****   All rights reserved.
   9:u8g2/csrc/u8x8_byte.c **** 
  10:u8g2/csrc/u8x8_byte.c ****   Redistribution and use in source and binary forms, with or without modification, 
  11:u8g2/csrc/u8x8_byte.c ****   are permitted provided that the following conditions are met:
  12:u8g2/csrc/u8x8_byte.c **** 
  13:u8g2/csrc/u8x8_byte.c ****   * Redistributions of source code must retain the above copyright notice, this list 
  14:u8g2/csrc/u8x8_byte.c ****     of conditions and the following disclaimer.
  15:u8g2/csrc/u8x8_byte.c ****     
  16:u8g2/csrc/u8x8_byte.c ****   * Redistributions in binary form must reproduce the above copyright notice, this 
  17:u8g2/csrc/u8x8_byte.c ****     list of conditions and the following disclaimer in the documentation and/or other 
  18:u8g2/csrc/u8x8_byte.c ****     materials provided with the distribution.
  19:u8g2/csrc/u8x8_byte.c **** 
  20:u8g2/csrc/u8x8_byte.c ****   THIS SOFTWARE IS PROVIDED BY THE COPYRIGHT HOLDERS AND 
  21:u8g2/csrc/u8x8_byte.c ****   CONTRIBUTORS "AS IS" AND ANY EXPRESS OR IMPLIED WARRANTIES, 
  22:u8g2/csrc/u8x8_byte.c ****   INCLUDING, BUT NOT LIMITED TO, THE IMPLIED WARRANTIES OF 
  23:u8g2/csrc/u8x8_byte.c ****   MERCHANTABILITY AND FITNESS FOR A PARTICULAR PURPOSE ARE 
  24:u8g2/csrc/u8x8_byte.c ****   DISCLAIMED. IN NO EVENT SHALL THE COPYRIGHT HOLDER OR 
  25:u8g2/csrc/u8x8_byte.c ****   CONTRIBUTORS BE LIABLE FOR ANY DIRECT, INDIRECT, INCIDENTAL, 
  26:u8g2/csrc/u8x8_byte.c ****   SPECIAL, EXEMPLARY, OR CONSEQUENTIAL DAMAGES (INCLUDING, BUT 
  27:u8g2/csrc/u8x8_byte.c ****   NOT LIMITED TO, PROCUREMENT OF SUBSTITUTE GOODS OR SERVICES; 
  28:u8g2/csrc/u8x8_byte.c ****   LOSS OF USE, DATA, OR PROFITS; OR BUSINESS INTERRUPTION) HOWEVER 
  29:u8g2/csrc/u8x8_byte.c ****   CAUSED AND ON ANY THEORY OF LIABILITY, WHETHER IN CONTRACT, 
  30:u8g2/csrc/u8x8_byte.c ****   STRICT LIABILITY, OR TORT (INCLUDING NEGLIGENCE OR OTHERWISE) 
  31:u8g2/csrc/u8x8_byte.c ****   ARISING IN ANY WAY OUT OF THE USE OF THIS SOFTWARE, EVEN IF 
  32:u8g2/csrc/u8x8_byte.c ****   ADVISED OF THE POSSIBILITY OF SUCH DAMAGE.  
ARM GAS  C:\Users\behun\AppData\Local\Temp\ccMYhszQ.s 			page 2


  33:u8g2/csrc/u8x8_byte.c ****   
  34:u8g2/csrc/u8x8_byte.c ****   
  35:u8g2/csrc/u8x8_byte.c **** */
  36:u8g2/csrc/u8x8_byte.c **** 
  37:u8g2/csrc/u8x8_byte.c **** #include "u8x8.h"
  38:u8g2/csrc/u8x8_byte.c **** 
  39:u8g2/csrc/u8x8_byte.c **** uint8_t u8x8_byte_SetDC(u8x8_t *u8x8, uint8_t dc)
  40:u8g2/csrc/u8x8_byte.c **** {
  41:u8g2/csrc/u8x8_byte.c ****   return u8x8->byte_cb(u8x8, U8X8_MSG_BYTE_SET_DC, dc, NULL);
  42:u8g2/csrc/u8x8_byte.c **** }
  43:u8g2/csrc/u8x8_byte.c **** 
  44:u8g2/csrc/u8x8_byte.c **** uint8_t u8x8_byte_SendBytes(u8x8_t *u8x8, uint8_t cnt, uint8_t *data)
  45:u8g2/csrc/u8x8_byte.c **** {
  46:u8g2/csrc/u8x8_byte.c ****   return u8x8->byte_cb(u8x8, U8X8_MSG_BYTE_SEND, cnt, (void *)data);
  47:u8g2/csrc/u8x8_byte.c **** }
  48:u8g2/csrc/u8x8_byte.c **** 
  49:u8g2/csrc/u8x8_byte.c **** uint8_t u8x8_byte_SendByte(u8x8_t *u8x8, uint8_t byte)
  50:u8g2/csrc/u8x8_byte.c **** {
  51:u8g2/csrc/u8x8_byte.c ****   return u8x8_byte_SendBytes(u8x8, 1, &byte);
  52:u8g2/csrc/u8x8_byte.c **** }
  53:u8g2/csrc/u8x8_byte.c **** 
  54:u8g2/csrc/u8x8_byte.c **** uint8_t u8x8_byte_StartTransfer(u8x8_t *u8x8)
  55:u8g2/csrc/u8x8_byte.c **** {
  56:u8g2/csrc/u8x8_byte.c ****   return u8x8->byte_cb(u8x8, U8X8_MSG_BYTE_START_TRANSFER, 0, NULL);
  57:u8g2/csrc/u8x8_byte.c **** }
  58:u8g2/csrc/u8x8_byte.c **** 
  59:u8g2/csrc/u8x8_byte.c **** uint8_t u8x8_byte_EndTransfer(u8x8_t *u8x8)
  60:u8g2/csrc/u8x8_byte.c **** {
  61:u8g2/csrc/u8x8_byte.c ****   return u8x8->byte_cb(u8x8, U8X8_MSG_BYTE_END_TRANSFER, 0, NULL);
  62:u8g2/csrc/u8x8_byte.c **** }
  63:u8g2/csrc/u8x8_byte.c **** 
  64:u8g2/csrc/u8x8_byte.c **** 
  65:u8g2/csrc/u8x8_byte.c **** /*
  66:u8g2/csrc/u8x8_byte.c ****   Uses:
  67:u8g2/csrc/u8x8_byte.c ****     u8x8->display_info->sda_setup_time_ns
  68:u8g2/csrc/u8x8_byte.c ****     u8x8->display_info->sck_pulse_width_ns
  69:u8g2/csrc/u8x8_byte.c ****     u8x8->display_info->spi_mode
  70:u8g2/csrc/u8x8_byte.c ****     u8x8->display_info->chip_disable_level
  71:u8g2/csrc/u8x8_byte.c ****     u8x8->display_info->chip_enable_level
  72:u8g2/csrc/u8x8_byte.c ****     u8x8->display_info->post_chip_enable_wait_ns
  73:u8g2/csrc/u8x8_byte.c ****     u8x8->display_info->pre_chip_disable_wait_ns
  74:u8g2/csrc/u8x8_byte.c ****   Calls to GPIO and DELAY:
  75:u8g2/csrc/u8x8_byte.c ****     U8X8_MSG_DELAY_NANO
  76:u8g2/csrc/u8x8_byte.c ****     U8X8_MSG_GPIO_DC
  77:u8g2/csrc/u8x8_byte.c ****     U8X8_MSG_GPIO_CS
  78:u8g2/csrc/u8x8_byte.c ****     U8X8_MSG_GPIO_CLOCK
  79:u8g2/csrc/u8x8_byte.c ****     U8X8_MSG_GPIO_DATA
  80:u8g2/csrc/u8x8_byte.c ****   Handles:
  81:u8g2/csrc/u8x8_byte.c ****     U8X8_MSG_BYTE_INIT
  82:u8g2/csrc/u8x8_byte.c ****     U8X8_MSG_BYTE_SEND
  83:u8g2/csrc/u8x8_byte.c ****     U8X8_MSG_BYTE_SET_DC
  84:u8g2/csrc/u8x8_byte.c ****     U8X8_MSG_BYTE_START_TRANSFER
  85:u8g2/csrc/u8x8_byte.c ****     U8X8_MSG_BYTE_END_TRANSFER
  86:u8g2/csrc/u8x8_byte.c **** */
  87:u8g2/csrc/u8x8_byte.c **** 
  88:u8g2/csrc/u8x8_byte.c **** uint8_t u8x8_byte_4wire_sw_spi(u8x8_t *u8x8, uint8_t msg, uint8_t arg_int, void *arg_ptr)
  89:u8g2/csrc/u8x8_byte.c **** {
ARM GAS  C:\Users\behun\AppData\Local\Temp\ccMYhszQ.s 			page 3


  90:u8g2/csrc/u8x8_byte.c ****   uint8_t i, b;
  91:u8g2/csrc/u8x8_byte.c ****   uint8_t *data;
  92:u8g2/csrc/u8x8_byte.c ****   uint8_t takeover_edge = u8x8_GetSPIClockPhase(u8x8);
  93:u8g2/csrc/u8x8_byte.c ****   uint8_t not_takeover_edge = 1 - takeover_edge;
  94:u8g2/csrc/u8x8_byte.c ****  
  95:u8g2/csrc/u8x8_byte.c ****   switch(msg)
  96:u8g2/csrc/u8x8_byte.c ****   {
  97:u8g2/csrc/u8x8_byte.c ****     case U8X8_MSG_BYTE_SEND:
  98:u8g2/csrc/u8x8_byte.c ****       data = (uint8_t *)arg_ptr;
  99:u8g2/csrc/u8x8_byte.c ****       while( arg_int > 0 )
 100:u8g2/csrc/u8x8_byte.c ****       {
 101:u8g2/csrc/u8x8_byte.c **** 	b = *data;
 102:u8g2/csrc/u8x8_byte.c **** 	data++;
 103:u8g2/csrc/u8x8_byte.c **** 	arg_int--;
 104:u8g2/csrc/u8x8_byte.c **** 	for( i = 0; i < 8; i++ )
 105:u8g2/csrc/u8x8_byte.c **** 	{
 106:u8g2/csrc/u8x8_byte.c **** 	  if ( b & 128 )
 107:u8g2/csrc/u8x8_byte.c **** 	    u8x8_gpio_SetSPIData(u8x8, 1);
 108:u8g2/csrc/u8x8_byte.c **** 	  else
 109:u8g2/csrc/u8x8_byte.c **** 	    u8x8_gpio_SetSPIData(u8x8, 0);
 110:u8g2/csrc/u8x8_byte.c **** 	  b <<= 1;
 111:u8g2/csrc/u8x8_byte.c **** 	  
 112:u8g2/csrc/u8x8_byte.c **** 	  u8x8_gpio_SetSPIClock(u8x8, not_takeover_edge);
 113:u8g2/csrc/u8x8_byte.c **** 	  u8x8_gpio_Delay(u8x8, U8X8_MSG_DELAY_NANO, u8x8->display_info->sda_setup_time_ns);
 114:u8g2/csrc/u8x8_byte.c **** 	  u8x8_gpio_SetSPIClock(u8x8, takeover_edge);
 115:u8g2/csrc/u8x8_byte.c **** 	  u8x8_gpio_Delay(u8x8, U8X8_MSG_DELAY_NANO, u8x8->display_info->sck_pulse_width_ns);
 116:u8g2/csrc/u8x8_byte.c **** 	}    
 117:u8g2/csrc/u8x8_byte.c ****       }
 118:u8g2/csrc/u8x8_byte.c ****       break;
 119:u8g2/csrc/u8x8_byte.c ****       
 120:u8g2/csrc/u8x8_byte.c ****     case U8X8_MSG_BYTE_INIT:
 121:u8g2/csrc/u8x8_byte.c ****       /* disable chipselect */
 122:u8g2/csrc/u8x8_byte.c ****       u8x8_gpio_SetCS(u8x8, u8x8->display_info->chip_disable_level);
 123:u8g2/csrc/u8x8_byte.c ****       /* no wait required here */
 124:u8g2/csrc/u8x8_byte.c ****       
 125:u8g2/csrc/u8x8_byte.c ****       /* for SPI: setup correct level of the clock signal */
 126:u8g2/csrc/u8x8_byte.c ****       u8x8_gpio_SetSPIClock(u8x8, u8x8_GetSPIClockPhase(u8x8));
 127:u8g2/csrc/u8x8_byte.c ****       break;
 128:u8g2/csrc/u8x8_byte.c ****     case U8X8_MSG_BYTE_SET_DC:
 129:u8g2/csrc/u8x8_byte.c ****       u8x8_gpio_SetDC(u8x8, arg_int);
 130:u8g2/csrc/u8x8_byte.c ****       break;
 131:u8g2/csrc/u8x8_byte.c ****     case U8X8_MSG_BYTE_START_TRANSFER:
 132:u8g2/csrc/u8x8_byte.c ****       u8x8_gpio_SetCS(u8x8, u8x8->display_info->chip_enable_level);  
 133:u8g2/csrc/u8x8_byte.c ****       u8x8->gpio_and_delay_cb(u8x8, U8X8_MSG_DELAY_NANO, u8x8->display_info->post_chip_enable_wait_
 134:u8g2/csrc/u8x8_byte.c ****       break;
 135:u8g2/csrc/u8x8_byte.c ****     case U8X8_MSG_BYTE_END_TRANSFER:
 136:u8g2/csrc/u8x8_byte.c ****       u8x8->gpio_and_delay_cb(u8x8, U8X8_MSG_DELAY_NANO, u8x8->display_info->pre_chip_disable_wait_
 137:u8g2/csrc/u8x8_byte.c ****       u8x8_gpio_SetCS(u8x8, u8x8->display_info->chip_disable_level);
 138:u8g2/csrc/u8x8_byte.c ****       break;
 139:u8g2/csrc/u8x8_byte.c ****     default:
 140:u8g2/csrc/u8x8_byte.c ****       return 0;
 141:u8g2/csrc/u8x8_byte.c ****   }
 142:u8g2/csrc/u8x8_byte.c ****   return 1;
 143:u8g2/csrc/u8x8_byte.c **** }
 144:u8g2/csrc/u8x8_byte.c **** 
 145:u8g2/csrc/u8x8_byte.c **** /*=========================================*/
 146:u8g2/csrc/u8x8_byte.c **** 
ARM GAS  C:\Users\behun\AppData\Local\Temp\ccMYhszQ.s 			page 4


 147:u8g2/csrc/u8x8_byte.c **** uint8_t u8x8_byte_8bit_6800mode(u8x8_t *u8x8, uint8_t msg, uint8_t arg_int, void *arg_ptr)
 148:u8g2/csrc/u8x8_byte.c **** {
 149:u8g2/csrc/u8x8_byte.c ****   uint8_t i, b;
 150:u8g2/csrc/u8x8_byte.c ****   uint8_t *data;
 151:u8g2/csrc/u8x8_byte.c ****  
 152:u8g2/csrc/u8x8_byte.c ****   switch(msg)
 153:u8g2/csrc/u8x8_byte.c ****   {
 154:u8g2/csrc/u8x8_byte.c ****     case U8X8_MSG_BYTE_SEND:
 155:u8g2/csrc/u8x8_byte.c ****       data = (uint8_t *)arg_ptr;
 156:u8g2/csrc/u8x8_byte.c ****       while( arg_int > 0 )
 157:u8g2/csrc/u8x8_byte.c ****       {
 158:u8g2/csrc/u8x8_byte.c **** 	b = *data;
 159:u8g2/csrc/u8x8_byte.c **** 	data++;
 160:u8g2/csrc/u8x8_byte.c **** 	arg_int--;
 161:u8g2/csrc/u8x8_byte.c **** 	for( i = U8X8_MSG_GPIO_D0; i <= U8X8_MSG_GPIO_D7; i++ )
 162:u8g2/csrc/u8x8_byte.c **** 	{
 163:u8g2/csrc/u8x8_byte.c **** 	  u8x8_gpio_call(u8x8, i, b&1);
 164:u8g2/csrc/u8x8_byte.c **** 	  b >>= 1;
 165:u8g2/csrc/u8x8_byte.c **** 	}    
 166:u8g2/csrc/u8x8_byte.c **** 	
 167:u8g2/csrc/u8x8_byte.c **** 	u8x8_gpio_Delay(u8x8, U8X8_MSG_DELAY_NANO, u8x8->display_info->data_setup_time_ns);
 168:u8g2/csrc/u8x8_byte.c **** 	u8x8_gpio_call(u8x8, U8X8_MSG_GPIO_E, 1);
 169:u8g2/csrc/u8x8_byte.c **** 	u8x8_gpio_Delay(u8x8, U8X8_MSG_DELAY_NANO, u8x8->display_info->write_pulse_width_ns);
 170:u8g2/csrc/u8x8_byte.c **** 	u8x8_gpio_call(u8x8, U8X8_MSG_GPIO_E, 0);
 171:u8g2/csrc/u8x8_byte.c ****       }
 172:u8g2/csrc/u8x8_byte.c ****       break;
 173:u8g2/csrc/u8x8_byte.c ****       
 174:u8g2/csrc/u8x8_byte.c ****     case U8X8_MSG_BYTE_INIT:
 175:u8g2/csrc/u8x8_byte.c ****       /* disable chipselect */
 176:u8g2/csrc/u8x8_byte.c ****       u8x8_gpio_SetCS(u8x8, u8x8->display_info->chip_disable_level);    
 177:u8g2/csrc/u8x8_byte.c ****       /* ensure that the enable signal is high */
 178:u8g2/csrc/u8x8_byte.c ****       u8x8_gpio_call(u8x8, U8X8_MSG_GPIO_E, 0);
 179:u8g2/csrc/u8x8_byte.c ****       break;
 180:u8g2/csrc/u8x8_byte.c ****     case U8X8_MSG_BYTE_SET_DC:
 181:u8g2/csrc/u8x8_byte.c ****       u8x8_gpio_SetDC(u8x8, arg_int);
 182:u8g2/csrc/u8x8_byte.c ****       break;
 183:u8g2/csrc/u8x8_byte.c ****     case U8X8_MSG_BYTE_START_TRANSFER:
 184:u8g2/csrc/u8x8_byte.c ****       u8x8_gpio_SetCS(u8x8, u8x8->display_info->chip_enable_level);  
 185:u8g2/csrc/u8x8_byte.c ****       u8x8->gpio_and_delay_cb(u8x8, U8X8_MSG_DELAY_NANO, u8x8->display_info->post_chip_enable_wait_
 186:u8g2/csrc/u8x8_byte.c ****       break;
 187:u8g2/csrc/u8x8_byte.c ****     case U8X8_MSG_BYTE_END_TRANSFER:
 188:u8g2/csrc/u8x8_byte.c ****       u8x8->gpio_and_delay_cb(u8x8, U8X8_MSG_DELAY_NANO, u8x8->display_info->pre_chip_disable_wait_
 189:u8g2/csrc/u8x8_byte.c ****       u8x8_gpio_SetCS(u8x8, u8x8->display_info->chip_disable_level);
 190:u8g2/csrc/u8x8_byte.c ****       break;
 191:u8g2/csrc/u8x8_byte.c ****     default:
 192:u8g2/csrc/u8x8_byte.c ****       return 0;
 193:u8g2/csrc/u8x8_byte.c ****   }
 194:u8g2/csrc/u8x8_byte.c ****   return 1;
 195:u8g2/csrc/u8x8_byte.c **** }
 196:u8g2/csrc/u8x8_byte.c **** 
 197:u8g2/csrc/u8x8_byte.c **** uint8_t u8x8_byte_8bit_8080mode(u8x8_t *u8x8, uint8_t msg, uint8_t arg_int, void *arg_ptr)
 198:u8g2/csrc/u8x8_byte.c **** {
 199:u8g2/csrc/u8x8_byte.c ****   uint8_t i, b;
 200:u8g2/csrc/u8x8_byte.c ****   uint8_t *data;
 201:u8g2/csrc/u8x8_byte.c ****  
 202:u8g2/csrc/u8x8_byte.c ****   switch(msg)
 203:u8g2/csrc/u8x8_byte.c ****   {
ARM GAS  C:\Users\behun\AppData\Local\Temp\ccMYhszQ.s 			page 5


 204:u8g2/csrc/u8x8_byte.c ****     case U8X8_MSG_BYTE_SEND:
 205:u8g2/csrc/u8x8_byte.c ****       data = (uint8_t *)arg_ptr;
 206:u8g2/csrc/u8x8_byte.c ****       while( arg_int > 0 )
 207:u8g2/csrc/u8x8_byte.c ****       {
 208:u8g2/csrc/u8x8_byte.c **** 	b = *data;
 209:u8g2/csrc/u8x8_byte.c **** 	data++;
 210:u8g2/csrc/u8x8_byte.c **** 	arg_int--;
 211:u8g2/csrc/u8x8_byte.c **** 	for( i = U8X8_MSG_GPIO_D0; i <= U8X8_MSG_GPIO_D7; i++ )
 212:u8g2/csrc/u8x8_byte.c **** 	{
 213:u8g2/csrc/u8x8_byte.c **** 	  u8x8_gpio_call(u8x8, i, b&1);
 214:u8g2/csrc/u8x8_byte.c **** 	  b >>= 1;
 215:u8g2/csrc/u8x8_byte.c **** 	}    
 216:u8g2/csrc/u8x8_byte.c **** 	
 217:u8g2/csrc/u8x8_byte.c **** 	u8x8_gpio_Delay(u8x8, U8X8_MSG_DELAY_NANO, u8x8->display_info->data_setup_time_ns);
 218:u8g2/csrc/u8x8_byte.c **** 	u8x8_gpio_call(u8x8, U8X8_MSG_GPIO_E, 0);
 219:u8g2/csrc/u8x8_byte.c **** 	u8x8_gpio_Delay(u8x8, U8X8_MSG_DELAY_NANO, u8x8->display_info->write_pulse_width_ns);
 220:u8g2/csrc/u8x8_byte.c **** 	u8x8_gpio_call(u8x8, U8X8_MSG_GPIO_E, 1);
 221:u8g2/csrc/u8x8_byte.c ****       }
 222:u8g2/csrc/u8x8_byte.c ****       break;
 223:u8g2/csrc/u8x8_byte.c ****       
 224:u8g2/csrc/u8x8_byte.c ****     case U8X8_MSG_BYTE_INIT:
 225:u8g2/csrc/u8x8_byte.c ****       /* disable chipselect */
 226:u8g2/csrc/u8x8_byte.c ****       u8x8_gpio_SetCS(u8x8, u8x8->display_info->chip_disable_level);    
 227:u8g2/csrc/u8x8_byte.c ****       /* ensure that the enable signal is high */
 228:u8g2/csrc/u8x8_byte.c ****       u8x8_gpio_call(u8x8, U8X8_MSG_GPIO_E, 1);
 229:u8g2/csrc/u8x8_byte.c ****       break;
 230:u8g2/csrc/u8x8_byte.c ****     case U8X8_MSG_BYTE_SET_DC:
 231:u8g2/csrc/u8x8_byte.c ****       u8x8_gpio_SetDC(u8x8, arg_int);
 232:u8g2/csrc/u8x8_byte.c ****       break;
 233:u8g2/csrc/u8x8_byte.c ****     case U8X8_MSG_BYTE_START_TRANSFER:
 234:u8g2/csrc/u8x8_byte.c ****       u8x8_gpio_SetCS(u8x8, u8x8->display_info->chip_enable_level);  
 235:u8g2/csrc/u8x8_byte.c ****       u8x8->gpio_and_delay_cb(u8x8, U8X8_MSG_DELAY_NANO, u8x8->display_info->post_chip_enable_wait_
 236:u8g2/csrc/u8x8_byte.c ****       break;
 237:u8g2/csrc/u8x8_byte.c ****     case U8X8_MSG_BYTE_END_TRANSFER:
 238:u8g2/csrc/u8x8_byte.c ****       u8x8->gpio_and_delay_cb(u8x8, U8X8_MSG_DELAY_NANO, u8x8->display_info->pre_chip_disable_wait_
 239:u8g2/csrc/u8x8_byte.c ****       u8x8_gpio_SetCS(u8x8, u8x8->display_info->chip_disable_level);
 240:u8g2/csrc/u8x8_byte.c ****       break;
 241:u8g2/csrc/u8x8_byte.c ****     default:
 242:u8g2/csrc/u8x8_byte.c ****       return 0;
 243:u8g2/csrc/u8x8_byte.c ****   }
 244:u8g2/csrc/u8x8_byte.c ****   return 1;
 245:u8g2/csrc/u8x8_byte.c **** }
 246:u8g2/csrc/u8x8_byte.c **** 
 247:u8g2/csrc/u8x8_byte.c **** /*=========================================*/
 248:u8g2/csrc/u8x8_byte.c **** 
 249:u8g2/csrc/u8x8_byte.c **** uint8_t u8x8_byte_3wire_sw_spi(u8x8_t *u8x8, uint8_t msg, uint8_t arg_int, void *arg_ptr)
 250:u8g2/csrc/u8x8_byte.c **** {
 251:u8g2/csrc/u8x8_byte.c ****   uint8_t i;
 252:u8g2/csrc/u8x8_byte.c ****   uint8_t *data;
 253:u8g2/csrc/u8x8_byte.c ****   uint8_t takeover_edge = u8x8_GetSPIClockPhase(u8x8);
 254:u8g2/csrc/u8x8_byte.c ****   uint8_t not_takeover_edge = 1 - takeover_edge;
 255:u8g2/csrc/u8x8_byte.c ****   uint16_t b;
 256:u8g2/csrc/u8x8_byte.c ****   static uint8_t last_dc;
 257:u8g2/csrc/u8x8_byte.c ****  
 258:u8g2/csrc/u8x8_byte.c ****   switch(msg)
 259:u8g2/csrc/u8x8_byte.c ****   {
 260:u8g2/csrc/u8x8_byte.c ****     case U8X8_MSG_BYTE_SEND:
ARM GAS  C:\Users\behun\AppData\Local\Temp\ccMYhszQ.s 			page 6


 261:u8g2/csrc/u8x8_byte.c ****       data = (uint8_t *)arg_ptr;
 262:u8g2/csrc/u8x8_byte.c ****       while( arg_int > 0 )
 263:u8g2/csrc/u8x8_byte.c ****       {
 264:u8g2/csrc/u8x8_byte.c **** 	b = *data;
 265:u8g2/csrc/u8x8_byte.c **** 	if ( last_dc != 0 )
 266:u8g2/csrc/u8x8_byte.c **** 	  b |= 256;
 267:u8g2/csrc/u8x8_byte.c **** 	data++;
 268:u8g2/csrc/u8x8_byte.c **** 	arg_int--;
 269:u8g2/csrc/u8x8_byte.c **** 	for( i = 0; i < 9; i++ )
 270:u8g2/csrc/u8x8_byte.c **** 	{
 271:u8g2/csrc/u8x8_byte.c **** 	  if ( b & 256 )
 272:u8g2/csrc/u8x8_byte.c **** 	    u8x8_gpio_SetSPIData(u8x8, 1);
 273:u8g2/csrc/u8x8_byte.c **** 	  else
 274:u8g2/csrc/u8x8_byte.c **** 	    u8x8_gpio_SetSPIData(u8x8, 0);
 275:u8g2/csrc/u8x8_byte.c **** 	  b <<= 1;
 276:u8g2/csrc/u8x8_byte.c **** 	  
 277:u8g2/csrc/u8x8_byte.c **** 	  u8x8_gpio_SetSPIClock(u8x8, not_takeover_edge);
 278:u8g2/csrc/u8x8_byte.c **** 	  u8x8_gpio_Delay(u8x8, U8X8_MSG_DELAY_NANO, u8x8->display_info->sda_setup_time_ns);
 279:u8g2/csrc/u8x8_byte.c **** 	  u8x8_gpio_SetSPIClock(u8x8, takeover_edge);
 280:u8g2/csrc/u8x8_byte.c **** 	  u8x8_gpio_Delay(u8x8, U8X8_MSG_DELAY_NANO, u8x8->display_info->sck_pulse_width_ns);
 281:u8g2/csrc/u8x8_byte.c **** 	}    
 282:u8g2/csrc/u8x8_byte.c ****       }
 283:u8g2/csrc/u8x8_byte.c ****       break;
 284:u8g2/csrc/u8x8_byte.c ****       
 285:u8g2/csrc/u8x8_byte.c ****     case U8X8_MSG_BYTE_INIT:
 286:u8g2/csrc/u8x8_byte.c ****       /* disable chipselect */
 287:u8g2/csrc/u8x8_byte.c ****       u8x8_gpio_SetCS(u8x8, u8x8->display_info->chip_disable_level);
 288:u8g2/csrc/u8x8_byte.c ****       /* no wait required here */
 289:u8g2/csrc/u8x8_byte.c ****       
 290:u8g2/csrc/u8x8_byte.c ****       /* for SPI: setup correct level of the clock signal */
 291:u8g2/csrc/u8x8_byte.c ****       u8x8_gpio_SetSPIClock(u8x8, u8x8_GetSPIClockPhase(u8x8));
 292:u8g2/csrc/u8x8_byte.c ****       break;
 293:u8g2/csrc/u8x8_byte.c ****     case U8X8_MSG_BYTE_SET_DC:
 294:u8g2/csrc/u8x8_byte.c ****       last_dc = arg_int;
 295:u8g2/csrc/u8x8_byte.c ****       break;
 296:u8g2/csrc/u8x8_byte.c ****     case U8X8_MSG_BYTE_START_TRANSFER:
 297:u8g2/csrc/u8x8_byte.c ****       u8x8_gpio_SetCS(u8x8, u8x8->display_info->chip_enable_level);  
 298:u8g2/csrc/u8x8_byte.c ****       u8x8->gpio_and_delay_cb(u8x8, U8X8_MSG_DELAY_NANO, u8x8->display_info->post_chip_enable_wait_
 299:u8g2/csrc/u8x8_byte.c ****       break;
 300:u8g2/csrc/u8x8_byte.c ****     case U8X8_MSG_BYTE_END_TRANSFER:
 301:u8g2/csrc/u8x8_byte.c ****       u8x8->gpio_and_delay_cb(u8x8, U8X8_MSG_DELAY_NANO, u8x8->display_info->pre_chip_disable_wait_
 302:u8g2/csrc/u8x8_byte.c ****       u8x8_gpio_SetCS(u8x8, u8x8->display_info->chip_disable_level);
 303:u8g2/csrc/u8x8_byte.c ****       break;
 304:u8g2/csrc/u8x8_byte.c ****     default:
 305:u8g2/csrc/u8x8_byte.c ****       return 0;
 306:u8g2/csrc/u8x8_byte.c ****   }
 307:u8g2/csrc/u8x8_byte.c ****   return 1;
 308:u8g2/csrc/u8x8_byte.c **** }
 309:u8g2/csrc/u8x8_byte.c **** 
 310:u8g2/csrc/u8x8_byte.c **** /*=========================================*/
 311:u8g2/csrc/u8x8_byte.c **** 
 312:u8g2/csrc/u8x8_byte.c **** void u8x8_byte_set_ks0108_cs(u8x8_t *u8x8, uint8_t arg)
 313:u8g2/csrc/u8x8_byte.c **** {
 314:u8g2/csrc/u8x8_byte.c ****   u8x8_gpio_SetCS(u8x8, arg&1);
 315:u8g2/csrc/u8x8_byte.c ****   arg = arg >> 1;
 316:u8g2/csrc/u8x8_byte.c ****   u8x8_gpio_call(u8x8, U8X8_MSG_GPIO_CS1, arg&1);
 317:u8g2/csrc/u8x8_byte.c ****   arg = arg >> 2;
ARM GAS  C:\Users\behun\AppData\Local\Temp\ccMYhszQ.s 			page 7


 318:u8g2/csrc/u8x8_byte.c ****   u8x8_gpio_call(u8x8, U8X8_MSG_GPIO_CS2, arg&1);
 319:u8g2/csrc/u8x8_byte.c **** }
 320:u8g2/csrc/u8x8_byte.c **** 
 321:u8g2/csrc/u8x8_byte.c **** /* 6800 mode */
 322:u8g2/csrc/u8x8_byte.c **** uint8_t u8x8_byte_ks0108(u8x8_t *u8x8, uint8_t msg, uint8_t arg_int, void *arg_ptr)
 323:u8g2/csrc/u8x8_byte.c **** {
 324:u8g2/csrc/u8x8_byte.c ****   uint8_t i, b;
 325:u8g2/csrc/u8x8_byte.c ****   uint8_t *data;
 326:u8g2/csrc/u8x8_byte.c ****  
 327:u8g2/csrc/u8x8_byte.c ****   switch(msg)
 328:u8g2/csrc/u8x8_byte.c ****   {
 329:u8g2/csrc/u8x8_byte.c ****     case U8X8_MSG_BYTE_SEND:
 330:u8g2/csrc/u8x8_byte.c ****       data = (uint8_t *)arg_ptr;
 331:u8g2/csrc/u8x8_byte.c ****       while( arg_int > 0 )
 332:u8g2/csrc/u8x8_byte.c ****       {
 333:u8g2/csrc/u8x8_byte.c **** 	b = *data;
 334:u8g2/csrc/u8x8_byte.c **** 	data++;
 335:u8g2/csrc/u8x8_byte.c **** 	arg_int--;
 336:u8g2/csrc/u8x8_byte.c **** 	for( i = U8X8_MSG_GPIO_D0; i <= U8X8_MSG_GPIO_D7; i++ )
 337:u8g2/csrc/u8x8_byte.c **** 	{
 338:u8g2/csrc/u8x8_byte.c **** 	  u8x8_gpio_call(u8x8, i, b&1);
 339:u8g2/csrc/u8x8_byte.c **** 	  b >>= 1;
 340:u8g2/csrc/u8x8_byte.c **** 	}    
 341:u8g2/csrc/u8x8_byte.c **** 	
 342:u8g2/csrc/u8x8_byte.c **** 	u8x8_gpio_Delay(u8x8, U8X8_MSG_DELAY_NANO, u8x8->display_info->data_setup_time_ns);
 343:u8g2/csrc/u8x8_byte.c **** 	u8x8_gpio_call(u8x8, U8X8_MSG_GPIO_E, 1);
 344:u8g2/csrc/u8x8_byte.c **** 	u8x8_gpio_Delay(u8x8, U8X8_MSG_DELAY_NANO, u8x8->display_info->write_pulse_width_ns);
 345:u8g2/csrc/u8x8_byte.c **** 	u8x8_gpio_call(u8x8, U8X8_MSG_GPIO_E, 0);
 346:u8g2/csrc/u8x8_byte.c ****       }
 347:u8g2/csrc/u8x8_byte.c ****       break;
 348:u8g2/csrc/u8x8_byte.c ****       
 349:u8g2/csrc/u8x8_byte.c ****     case U8X8_MSG_BYTE_INIT:
 350:u8g2/csrc/u8x8_byte.c ****       /* disable chipselect */
 351:u8g2/csrc/u8x8_byte.c ****       u8x8_gpio_SetCS(u8x8, u8x8->display_info->chip_disable_level);    
 352:u8g2/csrc/u8x8_byte.c ****       /* ensure that the enable signal is low */
 353:u8g2/csrc/u8x8_byte.c ****       u8x8_gpio_call(u8x8, U8X8_MSG_GPIO_E, 0);
 354:u8g2/csrc/u8x8_byte.c ****       break;
 355:u8g2/csrc/u8x8_byte.c ****     case U8X8_MSG_BYTE_SET_DC:
 356:u8g2/csrc/u8x8_byte.c ****       u8x8_gpio_SetDC(u8x8, arg_int);
 357:u8g2/csrc/u8x8_byte.c ****       break;
 358:u8g2/csrc/u8x8_byte.c ****     case U8X8_MSG_BYTE_START_TRANSFER:
 359:u8g2/csrc/u8x8_byte.c ****       /* expects 3 bits in arg_int for the chip select lines */ 
 360:u8g2/csrc/u8x8_byte.c ****       u8x8_byte_set_ks0108_cs(u8x8, arg_int);
 361:u8g2/csrc/u8x8_byte.c ****       u8x8->gpio_and_delay_cb(u8x8, U8X8_MSG_DELAY_NANO, u8x8->display_info->post_chip_enable_wait_
 362:u8g2/csrc/u8x8_byte.c ****       break;
 363:u8g2/csrc/u8x8_byte.c ****     case U8X8_MSG_BYTE_END_TRANSFER:
 364:u8g2/csrc/u8x8_byte.c ****       u8x8->gpio_and_delay_cb(u8x8, U8X8_MSG_DELAY_NANO, u8x8->display_info->pre_chip_disable_wait_
 365:u8g2/csrc/u8x8_byte.c ****       u8x8_byte_set_ks0108_cs(u8x8, arg_int);
 366:u8g2/csrc/u8x8_byte.c ****       break;
 367:u8g2/csrc/u8x8_byte.c ****     default:
 368:u8g2/csrc/u8x8_byte.c ****       return 0;
 369:u8g2/csrc/u8x8_byte.c ****   }
 370:u8g2/csrc/u8x8_byte.c ****   return 1;
 371:u8g2/csrc/u8x8_byte.c **** }
 372:u8g2/csrc/u8x8_byte.c **** 
 373:u8g2/csrc/u8x8_byte.c **** 
 374:u8g2/csrc/u8x8_byte.c **** /* sed1520 or sbn1661 
ARM GAS  C:\Users\behun\AppData\Local\Temp\ccMYhszQ.s 			page 8


 375:u8g2/csrc/u8x8_byte.c ****   U8X8_MSG_GPIO_E --> E1
 376:u8g2/csrc/u8x8_byte.c ****   U8X8_MSG_GPIO_CS --> E2
 377:u8g2/csrc/u8x8_byte.c **** */
 378:u8g2/csrc/u8x8_byte.c **** uint8_t u8x8_byte_sed1520(u8x8_t *u8x8, uint8_t msg, uint8_t arg_int, void *arg_ptr)
 379:u8g2/csrc/u8x8_byte.c **** {
 380:u8g2/csrc/u8x8_byte.c ****   uint8_t i, b;
 381:u8g2/csrc/u8x8_byte.c ****   uint8_t *data;
 382:u8g2/csrc/u8x8_byte.c ****   static uint8_t enable_pin;
 383:u8g2/csrc/u8x8_byte.c ****  
 384:u8g2/csrc/u8x8_byte.c ****   switch(msg)
 385:u8g2/csrc/u8x8_byte.c ****   {
 386:u8g2/csrc/u8x8_byte.c ****     case U8X8_MSG_BYTE_SEND:
 387:u8g2/csrc/u8x8_byte.c ****       data = (uint8_t *)arg_ptr;
 388:u8g2/csrc/u8x8_byte.c ****       while( arg_int > 0 )
 389:u8g2/csrc/u8x8_byte.c ****       {
 390:u8g2/csrc/u8x8_byte.c **** 	b = *data;
 391:u8g2/csrc/u8x8_byte.c **** 	data++;
 392:u8g2/csrc/u8x8_byte.c **** 	arg_int--;
 393:u8g2/csrc/u8x8_byte.c **** 	for( i = U8X8_MSG_GPIO_D0; i <= U8X8_MSG_GPIO_D7; i++ )
 394:u8g2/csrc/u8x8_byte.c **** 	{
 395:u8g2/csrc/u8x8_byte.c **** 	  u8x8_gpio_call(u8x8, i, b&1);
 396:u8g2/csrc/u8x8_byte.c **** 	  b >>= 1;
 397:u8g2/csrc/u8x8_byte.c **** 	}    
 398:u8g2/csrc/u8x8_byte.c **** 	
 399:u8g2/csrc/u8x8_byte.c **** 	u8x8_gpio_Delay(u8x8, U8X8_MSG_DELAY_NANO, u8x8->display_info->data_setup_time_ns);
 400:u8g2/csrc/u8x8_byte.c **** 	u8x8_gpio_call(u8x8, enable_pin, 1);
 401:u8g2/csrc/u8x8_byte.c **** 	u8x8_gpio_Delay(u8x8, U8X8_MSG_DELAY_NANO, u8x8->display_info->write_pulse_width_ns);
 402:u8g2/csrc/u8x8_byte.c **** 	u8x8_gpio_call(u8x8, enable_pin, 0);
 403:u8g2/csrc/u8x8_byte.c ****       }
 404:u8g2/csrc/u8x8_byte.c ****       break;
 405:u8g2/csrc/u8x8_byte.c ****       
 406:u8g2/csrc/u8x8_byte.c ****     case U8X8_MSG_BYTE_INIT:
 407:u8g2/csrc/u8x8_byte.c ****       /* disable chipselect */
 408:u8g2/csrc/u8x8_byte.c ****       u8x8_gpio_SetCS(u8x8, u8x8->display_info->chip_disable_level);    
 409:u8g2/csrc/u8x8_byte.c ****       /* ensure that the enable signals are low */
 410:u8g2/csrc/u8x8_byte.c ****       u8x8_gpio_call(u8x8, U8X8_MSG_GPIO_E, 0);
 411:u8g2/csrc/u8x8_byte.c ****       u8x8_gpio_call(u8x8, U8X8_MSG_GPIO_CS, 0);
 412:u8g2/csrc/u8x8_byte.c ****       enable_pin = U8X8_MSG_GPIO_E;
 413:u8g2/csrc/u8x8_byte.c ****       break;
 414:u8g2/csrc/u8x8_byte.c ****     case U8X8_MSG_BYTE_SET_DC:
 415:u8g2/csrc/u8x8_byte.c ****       u8x8_gpio_SetDC(u8x8, arg_int);
 416:u8g2/csrc/u8x8_byte.c ****       break;
 417:u8g2/csrc/u8x8_byte.c ****     case U8X8_MSG_BYTE_START_TRANSFER:
 418:u8g2/csrc/u8x8_byte.c ****       /* cs lines are not supported for the SED1520/SBN1661 */
 419:u8g2/csrc/u8x8_byte.c ****       /* instead, this will select the E1 or E2 line */ 
 420:u8g2/csrc/u8x8_byte.c ****       enable_pin = U8X8_MSG_GPIO_E;
 421:u8g2/csrc/u8x8_byte.c ****       if ( arg_int != 0 )
 422:u8g2/csrc/u8x8_byte.c **** 	enable_pin = U8X8_MSG_GPIO_CS;
 423:u8g2/csrc/u8x8_byte.c ****       break;
 424:u8g2/csrc/u8x8_byte.c ****     case U8X8_MSG_BYTE_END_TRANSFER:
 425:u8g2/csrc/u8x8_byte.c ****       break;
 426:u8g2/csrc/u8x8_byte.c ****     default:
 427:u8g2/csrc/u8x8_byte.c ****       return 0;
 428:u8g2/csrc/u8x8_byte.c ****   }
 429:u8g2/csrc/u8x8_byte.c ****   return 1;
 430:u8g2/csrc/u8x8_byte.c **** }
 431:u8g2/csrc/u8x8_byte.c **** 
ARM GAS  C:\Users\behun\AppData\Local\Temp\ccMYhszQ.s 			page 9


 432:u8g2/csrc/u8x8_byte.c **** /*=========================================*/
 433:u8g2/csrc/u8x8_byte.c **** 
 434:u8g2/csrc/u8x8_byte.c **** 
 435:u8g2/csrc/u8x8_byte.c **** /*
 436:u8g2/csrc/u8x8_byte.c ****   software i2c,
 437:u8g2/csrc/u8x8_byte.c ****   ignores ACK response (which is anyway not provided by some displays)
 438:u8g2/csrc/u8x8_byte.c ****   also does not allow reading from the device
 439:u8g2/csrc/u8x8_byte.c **** */
 440:u8g2/csrc/u8x8_byte.c **** static void i2c_delay(u8x8_t *u8x8) U8X8_NOINLINE;
 441:u8g2/csrc/u8x8_byte.c **** static void i2c_delay(u8x8_t *u8x8)
 442:u8g2/csrc/u8x8_byte.c **** {
  27              		.loc 1 442 1 view -0
  28              		.cfi_startproc
  29              		@ args = 0, pretend = 0, frame = 0
  30              		@ frame_needed = 0, uses_anonymous_args = 0
  31              		.loc 1 442 1 is_stmt 0 view .LVU1
  32 0000 08B5     		push	{r3, lr}
  33              	.LCFI0:
  34              		.cfi_def_cfa_offset 8
  35              		.cfi_offset 3, -8
  36              		.cfi_offset 14, -4
 443:u8g2/csrc/u8x8_byte.c ****   //u8x8_gpio_Delay(u8x8, U8X8_MSG_DELAY_10MICRO, u8x8->display_info->i2c_bus_clock_100kHz);
 444:u8g2/csrc/u8x8_byte.c ****   u8x8_gpio_Delay(u8x8, U8X8_MSG_DELAY_I2C, u8x8->display_info->i2c_bus_clock_100kHz);
  37              		.loc 1 444 3 is_stmt 1 view .LVU2
  38 0002 0368     		ldr	r3, [r0]
  39 0004 5A7B     		ldrb	r2, [r3, #13]	@ zero_extendqisi2
  40 0006 2D21     		movs	r1, #45
  41 0008 FFF7FEFF 		bl	u8x8_gpio_call
  42              	.LVL1:
 445:u8g2/csrc/u8x8_byte.c **** }
  43              		.loc 1 445 1 is_stmt 0 view .LVU3
  44 000c 08BD     		pop	{r3, pc}
  45              		.cfi_endproc
  46              	.LFE12:
  48              		.section	.text.i2c_init,"ax",%progbits
  49              		.align	1
  50              		.syntax unified
  51              		.thumb
  52              		.thumb_func
  53              		.fpu softvfp
  55              	i2c_init:
  56              	.LVL2:
  57              	.LFB13:
 446:u8g2/csrc/u8x8_byte.c **** 
 447:u8g2/csrc/u8x8_byte.c **** static void i2c_init(u8x8_t *u8x8)
 448:u8g2/csrc/u8x8_byte.c **** {
  58              		.loc 1 448 1 is_stmt 1 view -0
  59              		.cfi_startproc
  60              		@ args = 0, pretend = 0, frame = 0
  61              		@ frame_needed = 0, uses_anonymous_args = 0
  62              		.loc 1 448 1 is_stmt 0 view .LVU5
  63 0000 10B5     		push	{r4, lr}
  64              	.LCFI1:
  65              		.cfi_def_cfa_offset 8
  66              		.cfi_offset 4, -8
  67              		.cfi_offset 14, -4
  68 0002 0446     		mov	r4, r0
ARM GAS  C:\Users\behun\AppData\Local\Temp\ccMYhszQ.s 			page 10


 449:u8g2/csrc/u8x8_byte.c ****   u8x8_gpio_SetI2CClock(u8x8, 1);
  69              		.loc 1 449 3 is_stmt 1 view .LVU6
  70 0004 0122     		movs	r2, #1
  71 0006 4C21     		movs	r1, #76
  72 0008 FFF7FEFF 		bl	u8x8_gpio_call
  73              	.LVL3:
 450:u8g2/csrc/u8x8_byte.c ****   u8x8_gpio_SetI2CData(u8x8, 1);
  74              		.loc 1 450 3 view .LVU7
  75 000c 0122     		movs	r2, #1
  76 000e 4D21     		movs	r1, #77
  77 0010 2046     		mov	r0, r4
  78 0012 FFF7FEFF 		bl	u8x8_gpio_call
  79              	.LVL4:
 451:u8g2/csrc/u8x8_byte.c ****   
 452:u8g2/csrc/u8x8_byte.c ****   i2c_delay(u8x8);
  80              		.loc 1 452 3 view .LVU8
  81 0016 2046     		mov	r0, r4
  82 0018 FFF7FEFF 		bl	i2c_delay
  83              	.LVL5:
 453:u8g2/csrc/u8x8_byte.c **** }
  84              		.loc 1 453 1 is_stmt 0 view .LVU9
  85 001c 10BD     		pop	{r4, pc}
  86              		.loc 1 453 1 view .LVU10
  87              		.cfi_endproc
  88              	.LFE13:
  90              		.section	.text.i2c_read_scl_and_delay,"ax",%progbits
  91              		.align	1
  92              		.syntax unified
  93              		.thumb
  94              		.thumb_func
  95              		.fpu softvfp
  97              	i2c_read_scl_and_delay:
  98              	.LVL6:
  99              	.LFB14:
 454:u8g2/csrc/u8x8_byte.c **** 
 455:u8g2/csrc/u8x8_byte.c **** /* actually, the scl line is not observed, so this procedure does not return a value */
 456:u8g2/csrc/u8x8_byte.c **** 
 457:u8g2/csrc/u8x8_byte.c **** static void i2c_read_scl_and_delay(u8x8_t *u8x8)
 458:u8g2/csrc/u8x8_byte.c **** {
 100              		.loc 1 458 1 is_stmt 1 view -0
 101              		.cfi_startproc
 102              		@ args = 0, pretend = 0, frame = 0
 103              		@ frame_needed = 0, uses_anonymous_args = 0
 104              		.loc 1 458 1 is_stmt 0 view .LVU12
 105 0000 10B5     		push	{r4, lr}
 106              	.LCFI2:
 107              		.cfi_def_cfa_offset 8
 108              		.cfi_offset 4, -8
 109              		.cfi_offset 14, -4
 110 0002 0446     		mov	r4, r0
 459:u8g2/csrc/u8x8_byte.c ****   /* set as input (line will be high) */
 460:u8g2/csrc/u8x8_byte.c ****   u8x8_gpio_SetI2CClock(u8x8, 1);
 111              		.loc 1 460 3 is_stmt 1 view .LVU13
 112 0004 0122     		movs	r2, #1
 113 0006 4C21     		movs	r1, #76
 114 0008 FFF7FEFF 		bl	u8x8_gpio_call
 115              	.LVL7:
ARM GAS  C:\Users\behun\AppData\Local\Temp\ccMYhszQ.s 			page 11


 461:u8g2/csrc/u8x8_byte.c **** 
 462:u8g2/csrc/u8x8_byte.c ****   i2c_delay(u8x8);
 116              		.loc 1 462 3 view .LVU14
 117 000c 2046     		mov	r0, r4
 118 000e FFF7FEFF 		bl	i2c_delay
 119              	.LVL8:
 463:u8g2/csrc/u8x8_byte.c **** }
 120              		.loc 1 463 1 is_stmt 0 view .LVU15
 121 0012 10BD     		pop	{r4, pc}
 122              		.loc 1 463 1 view .LVU16
 123              		.cfi_endproc
 124              	.LFE14:
 126              		.section	.text.i2c_read_sda,"ax",%progbits
 127              		.align	1
 128              		.syntax unified
 129              		.thumb
 130              		.thumb_func
 131              		.fpu softvfp
 133              	i2c_read_sda:
 134              	.LVL9:
 135              	.LFB16:
 464:u8g2/csrc/u8x8_byte.c **** 
 465:u8g2/csrc/u8x8_byte.c **** static void i2c_clear_scl(u8x8_t *u8x8)
 466:u8g2/csrc/u8x8_byte.c **** {
 467:u8g2/csrc/u8x8_byte.c ****   u8x8_gpio_SetI2CClock(u8x8, 0);
 468:u8g2/csrc/u8x8_byte.c **** }
 469:u8g2/csrc/u8x8_byte.c **** 
 470:u8g2/csrc/u8x8_byte.c **** static void i2c_read_sda(u8x8_t *u8x8)
 471:u8g2/csrc/u8x8_byte.c **** {
 136              		.loc 1 471 1 is_stmt 1 view -0
 137              		.cfi_startproc
 138              		@ args = 0, pretend = 0, frame = 0
 139              		@ frame_needed = 0, uses_anonymous_args = 0
 140              		.loc 1 471 1 is_stmt 0 view .LVU18
 141 0000 08B5     		push	{r3, lr}
 142              	.LCFI3:
 143              		.cfi_def_cfa_offset 8
 144              		.cfi_offset 3, -8
 145              		.cfi_offset 14, -4
 472:u8g2/csrc/u8x8_byte.c ****   /* set as input (line will be high) */
 473:u8g2/csrc/u8x8_byte.c ****   u8x8_gpio_SetI2CData(u8x8, 1);
 146              		.loc 1 473 3 is_stmt 1 view .LVU19
 147 0002 0122     		movs	r2, #1
 148 0004 4D21     		movs	r1, #77
 149 0006 FFF7FEFF 		bl	u8x8_gpio_call
 150              	.LVL10:
 474:u8g2/csrc/u8x8_byte.c **** }
 151              		.loc 1 474 1 is_stmt 0 view .LVU20
 152 000a 08BD     		pop	{r3, pc}
 153              		.cfi_endproc
 154              	.LFE16:
 156              		.section	.text.i2c_clear_sda,"ax",%progbits
 157              		.align	1
 158              		.syntax unified
 159              		.thumb
 160              		.thumb_func
 161              		.fpu softvfp
ARM GAS  C:\Users\behun\AppData\Local\Temp\ccMYhszQ.s 			page 12


 163              	i2c_clear_sda:
 164              	.LVL11:
 165              	.LFB17:
 475:u8g2/csrc/u8x8_byte.c **** 
 476:u8g2/csrc/u8x8_byte.c **** static void i2c_clear_sda(u8x8_t *u8x8)
 477:u8g2/csrc/u8x8_byte.c **** {
 166              		.loc 1 477 1 is_stmt 1 view -0
 167              		.cfi_startproc
 168              		@ args = 0, pretend = 0, frame = 0
 169              		@ frame_needed = 0, uses_anonymous_args = 0
 170              		.loc 1 477 1 is_stmt 0 view .LVU22
 171 0000 08B5     		push	{r3, lr}
 172              	.LCFI4:
 173              		.cfi_def_cfa_offset 8
 174              		.cfi_offset 3, -8
 175              		.cfi_offset 14, -4
 478:u8g2/csrc/u8x8_byte.c ****   /* set open collector and drive low */
 479:u8g2/csrc/u8x8_byte.c ****   u8x8_gpio_SetI2CData(u8x8, 0);
 176              		.loc 1 479 3 is_stmt 1 view .LVU23
 177 0002 0022     		movs	r2, #0
 178 0004 4D21     		movs	r1, #77
 179 0006 FFF7FEFF 		bl	u8x8_gpio_call
 180              	.LVL12:
 480:u8g2/csrc/u8x8_byte.c **** }
 181              		.loc 1 480 1 is_stmt 0 view .LVU24
 182 000a 08BD     		pop	{r3, pc}
 183              		.cfi_endproc
 184              	.LFE17:
 186              		.section	.text.i2c_stop,"ax",%progbits
 187              		.align	1
 188              		.syntax unified
 189              		.thumb
 190              		.thumb_func
 191              		.fpu softvfp
 193              	i2c_stop:
 194              	.LVL13:
 195              	.LFB19:
 481:u8g2/csrc/u8x8_byte.c **** 
 482:u8g2/csrc/u8x8_byte.c **** static void i2c_start(u8x8_t *u8x8)
 483:u8g2/csrc/u8x8_byte.c **** {
 484:u8g2/csrc/u8x8_byte.c ****   if ( u8x8->i2c_started != 0 )
 485:u8g2/csrc/u8x8_byte.c ****   {
 486:u8g2/csrc/u8x8_byte.c ****     /* if already started: do restart */
 487:u8g2/csrc/u8x8_byte.c ****     i2c_read_sda(u8x8);     /* SDA = 1 */
 488:u8g2/csrc/u8x8_byte.c ****     i2c_delay(u8x8);
 489:u8g2/csrc/u8x8_byte.c ****     i2c_read_scl_and_delay(u8x8);
 490:u8g2/csrc/u8x8_byte.c ****   }
 491:u8g2/csrc/u8x8_byte.c ****   i2c_read_sda(u8x8);
 492:u8g2/csrc/u8x8_byte.c ****   /* send the start condition, both lines go from 1 to 0 */
 493:u8g2/csrc/u8x8_byte.c ****   i2c_clear_sda(u8x8);
 494:u8g2/csrc/u8x8_byte.c ****   i2c_delay(u8x8);
 495:u8g2/csrc/u8x8_byte.c ****   i2c_clear_scl(u8x8);
 496:u8g2/csrc/u8x8_byte.c ****   u8x8->i2c_started = 1;
 497:u8g2/csrc/u8x8_byte.c **** }
 498:u8g2/csrc/u8x8_byte.c **** 
 499:u8g2/csrc/u8x8_byte.c **** 
 500:u8g2/csrc/u8x8_byte.c **** static void i2c_stop(u8x8_t *u8x8)
ARM GAS  C:\Users\behun\AppData\Local\Temp\ccMYhszQ.s 			page 13


 501:u8g2/csrc/u8x8_byte.c **** {
 196              		.loc 1 501 1 is_stmt 1 view -0
 197              		.cfi_startproc
 198              		@ args = 0, pretend = 0, frame = 0
 199              		@ frame_needed = 0, uses_anonymous_args = 0
 200              		.loc 1 501 1 is_stmt 0 view .LVU26
 201 0000 10B5     		push	{r4, lr}
 202              	.LCFI5:
 203              		.cfi_def_cfa_offset 8
 204              		.cfi_offset 4, -8
 205              		.cfi_offset 14, -4
 206 0002 0446     		mov	r4, r0
 502:u8g2/csrc/u8x8_byte.c ****   /* set SDA to 0 */
 503:u8g2/csrc/u8x8_byte.c ****   i2c_clear_sda(u8x8);  
 207              		.loc 1 503 3 is_stmt 1 view .LVU27
 208 0004 FFF7FEFF 		bl	i2c_clear_sda
 209              	.LVL14:
 504:u8g2/csrc/u8x8_byte.c ****   i2c_delay(u8x8);
 210              		.loc 1 504 3 view .LVU28
 211 0008 2046     		mov	r0, r4
 212 000a FFF7FEFF 		bl	i2c_delay
 213              	.LVL15:
 505:u8g2/csrc/u8x8_byte.c ****  
 506:u8g2/csrc/u8x8_byte.c ****   /* now release all lines */
 507:u8g2/csrc/u8x8_byte.c ****   i2c_read_scl_and_delay(u8x8);
 214              		.loc 1 507 3 view .LVU29
 215 000e 2046     		mov	r0, r4
 216 0010 FFF7FEFF 		bl	i2c_read_scl_and_delay
 217              	.LVL16:
 508:u8g2/csrc/u8x8_byte.c ****  
 509:u8g2/csrc/u8x8_byte.c ****   /* set SDA to 1 */
 510:u8g2/csrc/u8x8_byte.c ****   i2c_read_sda(u8x8);
 218              		.loc 1 510 3 view .LVU30
 219 0014 2046     		mov	r0, r4
 220 0016 FFF7FEFF 		bl	i2c_read_sda
 221              	.LVL17:
 511:u8g2/csrc/u8x8_byte.c ****   i2c_delay(u8x8);
 222              		.loc 1 511 3 view .LVU31
 223 001a 2046     		mov	r0, r4
 224 001c FFF7FEFF 		bl	i2c_delay
 225              	.LVL18:
 512:u8g2/csrc/u8x8_byte.c ****   u8x8->i2c_started = 0;
 226              		.loc 1 512 3 view .LVU32
 227              		.loc 1 512 21 is_stmt 0 view .LVU33
 228 0020 0023     		movs	r3, #0
 229 0022 84F82130 		strb	r3, [r4, #33]
 513:u8g2/csrc/u8x8_byte.c **** }
 230              		.loc 1 513 1 view .LVU34
 231 0026 10BD     		pop	{r4, pc}
 232              		.loc 1 513 1 view .LVU35
 233              		.cfi_endproc
 234              	.LFE19:
 236              		.section	.text.i2c_clear_scl,"ax",%progbits
 237              		.align	1
 238              		.syntax unified
 239              		.thumb
 240              		.thumb_func
ARM GAS  C:\Users\behun\AppData\Local\Temp\ccMYhszQ.s 			page 14


 241              		.fpu softvfp
 243              	i2c_clear_scl:
 244              	.LVL19:
 245              	.LFB15:
 466:u8g2/csrc/u8x8_byte.c ****   u8x8_gpio_SetI2CClock(u8x8, 0);
 246              		.loc 1 466 1 is_stmt 1 view -0
 247              		.cfi_startproc
 248              		@ args = 0, pretend = 0, frame = 0
 249              		@ frame_needed = 0, uses_anonymous_args = 0
 466:u8g2/csrc/u8x8_byte.c ****   u8x8_gpio_SetI2CClock(u8x8, 0);
 250              		.loc 1 466 1 is_stmt 0 view .LVU37
 251 0000 08B5     		push	{r3, lr}
 252              	.LCFI6:
 253              		.cfi_def_cfa_offset 8
 254              		.cfi_offset 3, -8
 255              		.cfi_offset 14, -4
 467:u8g2/csrc/u8x8_byte.c **** }
 256              		.loc 1 467 3 is_stmt 1 view .LVU38
 257 0002 0022     		movs	r2, #0
 258 0004 4C21     		movs	r1, #76
 259 0006 FFF7FEFF 		bl	u8x8_gpio_call
 260              	.LVL20:
 468:u8g2/csrc/u8x8_byte.c **** 
 261              		.loc 1 468 1 is_stmt 0 view .LVU39
 262 000a 08BD     		pop	{r3, pc}
 263              		.cfi_endproc
 264              	.LFE15:
 266              		.section	.text.i2c_start,"ax",%progbits
 267              		.align	1
 268              		.syntax unified
 269              		.thumb
 270              		.thumb_func
 271              		.fpu softvfp
 273              	i2c_start:
 274              	.LVL21:
 275              	.LFB18:
 483:u8g2/csrc/u8x8_byte.c ****   if ( u8x8->i2c_started != 0 )
 276              		.loc 1 483 1 is_stmt 1 view -0
 277              		.cfi_startproc
 278              		@ args = 0, pretend = 0, frame = 0
 279              		@ frame_needed = 0, uses_anonymous_args = 0
 483:u8g2/csrc/u8x8_byte.c ****   if ( u8x8->i2c_started != 0 )
 280              		.loc 1 483 1 is_stmt 0 view .LVU41
 281 0000 10B5     		push	{r4, lr}
 282              	.LCFI7:
 283              		.cfi_def_cfa_offset 8
 284              		.cfi_offset 4, -8
 285              		.cfi_offset 14, -4
 286 0002 0446     		mov	r4, r0
 484:u8g2/csrc/u8x8_byte.c ****   {
 287              		.loc 1 484 3 is_stmt 1 view .LVU42
 484:u8g2/csrc/u8x8_byte.c ****   {
 288              		.loc 1 484 12 is_stmt 0 view .LVU43
 289 0004 90F82130 		ldrb	r3, [r0, #33]	@ zero_extendqisi2
 484:u8g2/csrc/u8x8_byte.c ****   {
 290              		.loc 1 484 6 view .LVU44
 291 0008 7BB9     		cbnz	r3, .L18
ARM GAS  C:\Users\behun\AppData\Local\Temp\ccMYhszQ.s 			page 15


 292              	.LVL22:
 293              	.L16:
 491:u8g2/csrc/u8x8_byte.c ****   /* send the start condition, both lines go from 1 to 0 */
 294              		.loc 1 491 3 is_stmt 1 view .LVU45
 295 000a 2046     		mov	r0, r4
 296 000c FFF7FEFF 		bl	i2c_read_sda
 297              	.LVL23:
 493:u8g2/csrc/u8x8_byte.c ****   i2c_delay(u8x8);
 298              		.loc 1 493 3 view .LVU46
 299 0010 2046     		mov	r0, r4
 300 0012 FFF7FEFF 		bl	i2c_clear_sda
 301              	.LVL24:
 494:u8g2/csrc/u8x8_byte.c ****   i2c_clear_scl(u8x8);
 302              		.loc 1 494 3 view .LVU47
 303 0016 2046     		mov	r0, r4
 304 0018 FFF7FEFF 		bl	i2c_delay
 305              	.LVL25:
 495:u8g2/csrc/u8x8_byte.c ****   u8x8->i2c_started = 1;
 306              		.loc 1 495 3 view .LVU48
 307 001c 2046     		mov	r0, r4
 308 001e FFF7FEFF 		bl	i2c_clear_scl
 309              	.LVL26:
 496:u8g2/csrc/u8x8_byte.c **** }
 310              		.loc 1 496 3 view .LVU49
 496:u8g2/csrc/u8x8_byte.c **** }
 311              		.loc 1 496 21 is_stmt 0 view .LVU50
 312 0022 0123     		movs	r3, #1
 313 0024 84F82130 		strb	r3, [r4, #33]
 497:u8g2/csrc/u8x8_byte.c **** 
 314              		.loc 1 497 1 view .LVU51
 315 0028 10BD     		pop	{r4, pc}
 316              	.LVL27:
 317              	.L18:
 487:u8g2/csrc/u8x8_byte.c ****     i2c_delay(u8x8);
 318              		.loc 1 487 5 is_stmt 1 view .LVU52
 319 002a FFF7FEFF 		bl	i2c_read_sda
 320              	.LVL28:
 488:u8g2/csrc/u8x8_byte.c ****     i2c_read_scl_and_delay(u8x8);
 321              		.loc 1 488 5 view .LVU53
 322 002e 2046     		mov	r0, r4
 323 0030 FFF7FEFF 		bl	i2c_delay
 324              	.LVL29:
 489:u8g2/csrc/u8x8_byte.c ****   }
 325              		.loc 1 489 5 view .LVU54
 326 0034 2046     		mov	r0, r4
 327 0036 FFF7FEFF 		bl	i2c_read_scl_and_delay
 328              	.LVL30:
 329 003a E6E7     		b	.L16
 330              		.cfi_endproc
 331              	.LFE18:
 333              		.section	.text.i2c_write_bit,"ax",%progbits
 334              		.align	1
 335              		.syntax unified
 336              		.thumb
 337              		.thumb_func
 338              		.fpu softvfp
 340              	i2c_write_bit:
ARM GAS  C:\Users\behun\AppData\Local\Temp\ccMYhszQ.s 			page 16


 341              	.LVL31:
 342              	.LFB20:
 514:u8g2/csrc/u8x8_byte.c **** 
 515:u8g2/csrc/u8x8_byte.c **** static void i2c_write_bit(u8x8_t *u8x8, uint8_t val)
 516:u8g2/csrc/u8x8_byte.c **** {
 343              		.loc 1 516 1 view -0
 344              		.cfi_startproc
 345              		@ args = 0, pretend = 0, frame = 0
 346              		@ frame_needed = 0, uses_anonymous_args = 0
 347              		.loc 1 516 1 is_stmt 0 view .LVU56
 348 0000 10B5     		push	{r4, lr}
 349              	.LCFI8:
 350              		.cfi_def_cfa_offset 8
 351              		.cfi_offset 4, -8
 352              		.cfi_offset 14, -4
 353 0002 0446     		mov	r4, r0
 517:u8g2/csrc/u8x8_byte.c ****   if (val)
 354              		.loc 1 517 3 is_stmt 1 view .LVU57
 355              		.loc 1 517 6 is_stmt 0 view .LVU58
 356 0004 59B1     		cbz	r1, .L20
 518:u8g2/csrc/u8x8_byte.c ****     i2c_read_sda(u8x8);
 357              		.loc 1 518 5 is_stmt 1 view .LVU59
 358 0006 FFF7FEFF 		bl	i2c_read_sda
 359              	.LVL32:
 360              	.L21:
 519:u8g2/csrc/u8x8_byte.c ****   else
 520:u8g2/csrc/u8x8_byte.c ****     i2c_clear_sda(u8x8);
 521:u8g2/csrc/u8x8_byte.c ****  
 522:u8g2/csrc/u8x8_byte.c ****   i2c_delay(u8x8);
 361              		.loc 1 522 3 view .LVU60
 362 000a 2046     		mov	r0, r4
 363 000c FFF7FEFF 		bl	i2c_delay
 364              	.LVL33:
 523:u8g2/csrc/u8x8_byte.c ****   i2c_read_scl_and_delay(u8x8);
 365              		.loc 1 523 3 view .LVU61
 366 0010 2046     		mov	r0, r4
 367 0012 FFF7FEFF 		bl	i2c_read_scl_and_delay
 368              	.LVL34:
 524:u8g2/csrc/u8x8_byte.c ****   i2c_clear_scl(u8x8);
 369              		.loc 1 524 3 view .LVU62
 370 0016 2046     		mov	r0, r4
 371 0018 FFF7FEFF 		bl	i2c_clear_scl
 372              	.LVL35:
 525:u8g2/csrc/u8x8_byte.c **** }
 373              		.loc 1 525 1 is_stmt 0 view .LVU63
 374 001c 10BD     		pop	{r4, pc}
 375              	.LVL36:
 376              	.L20:
 520:u8g2/csrc/u8x8_byte.c ****  
 377              		.loc 1 520 5 is_stmt 1 view .LVU64
 378 001e FFF7FEFF 		bl	i2c_clear_sda
 379              	.LVL37:
 520:u8g2/csrc/u8x8_byte.c ****  
 380              		.loc 1 520 5 is_stmt 0 view .LVU65
 381 0022 F2E7     		b	.L21
 382              		.cfi_endproc
 383              	.LFE20:
ARM GAS  C:\Users\behun\AppData\Local\Temp\ccMYhszQ.s 			page 17


 385              		.section	.text.i2c_read_bit,"ax",%progbits
 386              		.align	1
 387              		.syntax unified
 388              		.thumb
 389              		.thumb_func
 390              		.fpu softvfp
 392              	i2c_read_bit:
 393              	.LVL38:
 394              	.LFB21:
 526:u8g2/csrc/u8x8_byte.c **** 
 527:u8g2/csrc/u8x8_byte.c **** static void i2c_read_bit(u8x8_t *u8x8)
 528:u8g2/csrc/u8x8_byte.c **** {
 395              		.loc 1 528 1 is_stmt 1 view -0
 396              		.cfi_startproc
 397              		@ args = 0, pretend = 0, frame = 0
 398              		@ frame_needed = 0, uses_anonymous_args = 0
 399              		.loc 1 528 1 is_stmt 0 view .LVU67
 400 0000 10B5     		push	{r4, lr}
 401              	.LCFI9:
 402              		.cfi_def_cfa_offset 8
 403              		.cfi_offset 4, -8
 404              		.cfi_offset 14, -4
 405 0002 0446     		mov	r4, r0
 529:u8g2/csrc/u8x8_byte.c ****   //uint8_t val;
 530:u8g2/csrc/u8x8_byte.c ****   /* do not drive SDA */
 531:u8g2/csrc/u8x8_byte.c ****   i2c_read_sda(u8x8);
 406              		.loc 1 531 3 is_stmt 1 view .LVU68
 407 0004 FFF7FEFF 		bl	i2c_read_sda
 408              	.LVL39:
 532:u8g2/csrc/u8x8_byte.c ****   i2c_delay(u8x8);
 409              		.loc 1 532 3 view .LVU69
 410 0008 2046     		mov	r0, r4
 411 000a FFF7FEFF 		bl	i2c_delay
 412              	.LVL40:
 533:u8g2/csrc/u8x8_byte.c ****   i2c_read_scl_and_delay(u8x8);
 413              		.loc 1 533 3 view .LVU70
 414 000e 2046     		mov	r0, r4
 415 0010 FFF7FEFF 		bl	i2c_read_scl_and_delay
 416              	.LVL41:
 534:u8g2/csrc/u8x8_byte.c ****   i2c_read_sda(u8x8);
 417              		.loc 1 534 3 view .LVU71
 418 0014 2046     		mov	r0, r4
 419 0016 FFF7FEFF 		bl	i2c_read_sda
 420              	.LVL42:
 535:u8g2/csrc/u8x8_byte.c ****   i2c_delay(u8x8);
 421              		.loc 1 535 3 view .LVU72
 422 001a 2046     		mov	r0, r4
 423 001c FFF7FEFF 		bl	i2c_delay
 424              	.LVL43:
 536:u8g2/csrc/u8x8_byte.c ****   i2c_clear_scl(u8x8);
 425              		.loc 1 536 3 view .LVU73
 426 0020 2046     		mov	r0, r4
 427 0022 FFF7FEFF 		bl	i2c_clear_scl
 428              	.LVL44:
 537:u8g2/csrc/u8x8_byte.c ****   //return val;
 538:u8g2/csrc/u8x8_byte.c **** }
 429              		.loc 1 538 1 is_stmt 0 view .LVU74
ARM GAS  C:\Users\behun\AppData\Local\Temp\ccMYhszQ.s 			page 18


 430 0026 10BD     		pop	{r4, pc}
 431              		.loc 1 538 1 view .LVU75
 432              		.cfi_endproc
 433              	.LFE21:
 435              		.section	.text.i2c_write_byte,"ax",%progbits
 436              		.align	1
 437              		.syntax unified
 438              		.thumb
 439              		.thumb_func
 440              		.fpu softvfp
 442              	i2c_write_byte:
 443              	.LVL45:
 444              	.LFB22:
 539:u8g2/csrc/u8x8_byte.c **** 
 540:u8g2/csrc/u8x8_byte.c **** static void i2c_write_byte(u8x8_t *u8x8, uint8_t b)
 541:u8g2/csrc/u8x8_byte.c **** {
 445              		.loc 1 541 1 is_stmt 1 view -0
 446              		.cfi_startproc
 447              		@ args = 0, pretend = 0, frame = 0
 448              		@ frame_needed = 0, uses_anonymous_args = 0
 449              		.loc 1 541 1 is_stmt 0 view .LVU77
 450 0000 38B5     		push	{r3, r4, r5, lr}
 451              	.LCFI10:
 452              		.cfi_def_cfa_offset 16
 453              		.cfi_offset 3, -16
 454              		.cfi_offset 4, -12
 455              		.cfi_offset 5, -8
 456              		.cfi_offset 14, -4
 457 0002 0446     		mov	r4, r0
 458 0004 0D46     		mov	r5, r1
 542:u8g2/csrc/u8x8_byte.c ****   i2c_write_bit(u8x8, b & 128);
 459              		.loc 1 542 3 is_stmt 1 view .LVU78
 460 0006 01F08001 		and	r1, r1, #128
 461              	.LVL46:
 462              		.loc 1 542 3 is_stmt 0 view .LVU79
 463 000a FFF7FEFF 		bl	i2c_write_bit
 464              	.LVL47:
 543:u8g2/csrc/u8x8_byte.c ****   i2c_write_bit(u8x8, b & 64);
 465              		.loc 1 543 3 is_stmt 1 view .LVU80
 466 000e 05F04001 		and	r1, r5, #64
 467 0012 2046     		mov	r0, r4
 468 0014 FFF7FEFF 		bl	i2c_write_bit
 469              	.LVL48:
 544:u8g2/csrc/u8x8_byte.c ****   i2c_write_bit(u8x8, b & 32);
 470              		.loc 1 544 3 view .LVU81
 471 0018 05F02001 		and	r1, r5, #32
 472 001c 2046     		mov	r0, r4
 473 001e FFF7FEFF 		bl	i2c_write_bit
 474              	.LVL49:
 545:u8g2/csrc/u8x8_byte.c ****   i2c_write_bit(u8x8, b & 16);
 475              		.loc 1 545 3 view .LVU82
 476 0022 05F01001 		and	r1, r5, #16
 477 0026 2046     		mov	r0, r4
 478 0028 FFF7FEFF 		bl	i2c_write_bit
 479              	.LVL50:
 546:u8g2/csrc/u8x8_byte.c ****   i2c_write_bit(u8x8, b & 8);
 480              		.loc 1 546 3 view .LVU83
ARM GAS  C:\Users\behun\AppData\Local\Temp\ccMYhszQ.s 			page 19


 481 002c 05F00801 		and	r1, r5, #8
 482 0030 2046     		mov	r0, r4
 483 0032 FFF7FEFF 		bl	i2c_write_bit
 484              	.LVL51:
 547:u8g2/csrc/u8x8_byte.c ****   i2c_write_bit(u8x8, b & 4);
 485              		.loc 1 547 3 view .LVU84
 486 0036 05F00401 		and	r1, r5, #4
 487 003a 2046     		mov	r0, r4
 488 003c FFF7FEFF 		bl	i2c_write_bit
 489              	.LVL52:
 548:u8g2/csrc/u8x8_byte.c ****   i2c_write_bit(u8x8, b & 2);
 490              		.loc 1 548 3 view .LVU85
 491 0040 05F00201 		and	r1, r5, #2
 492 0044 2046     		mov	r0, r4
 493 0046 FFF7FEFF 		bl	i2c_write_bit
 494              	.LVL53:
 549:u8g2/csrc/u8x8_byte.c ****   i2c_write_bit(u8x8, b & 1);
 495              		.loc 1 549 3 view .LVU86
 496 004a 05F00101 		and	r1, r5, #1
 497 004e 2046     		mov	r0, r4
 498 0050 FFF7FEFF 		bl	i2c_write_bit
 499              	.LVL54:
 550:u8g2/csrc/u8x8_byte.c ****     
 551:u8g2/csrc/u8x8_byte.c ****   /* read ack from client */
 552:u8g2/csrc/u8x8_byte.c ****   /* 0: ack was given by client */
 553:u8g2/csrc/u8x8_byte.c ****   /* 1: nothing happend during ack cycle */  
 554:u8g2/csrc/u8x8_byte.c ****   i2c_read_bit(u8x8);
 500              		.loc 1 554 3 view .LVU87
 501 0054 2046     		mov	r0, r4
 502 0056 FFF7FEFF 		bl	i2c_read_bit
 503              	.LVL55:
 555:u8g2/csrc/u8x8_byte.c **** }
 504              		.loc 1 555 1 is_stmt 0 view .LVU88
 505 005a 38BD     		pop	{r3, r4, r5, pc}
 506              		.loc 1 555 1 view .LVU89
 507              		.cfi_endproc
 508              	.LFE22:
 510              		.section	.text.u8x8_byte_SetDC,"ax",%progbits
 511              		.align	1
 512              		.global	u8x8_byte_SetDC
 513              		.syntax unified
 514              		.thumb
 515              		.thumb_func
 516              		.fpu softvfp
 518              	u8x8_byte_SetDC:
 519              	.LVL56:
 520              	.LFB0:
  40:u8g2/csrc/u8x8_byte.c ****   return u8x8->byte_cb(u8x8, U8X8_MSG_BYTE_SET_DC, dc, NULL);
 521              		.loc 1 40 1 is_stmt 1 view -0
 522              		.cfi_startproc
 523              		@ args = 0, pretend = 0, frame = 0
 524              		@ frame_needed = 0, uses_anonymous_args = 0
  40:u8g2/csrc/u8x8_byte.c ****   return u8x8->byte_cb(u8x8, U8X8_MSG_BYTE_SET_DC, dc, NULL);
 525              		.loc 1 40 1 is_stmt 0 view .LVU91
 526 0000 10B5     		push	{r4, lr}
 527              	.LCFI11:
 528              		.cfi_def_cfa_offset 8
ARM GAS  C:\Users\behun\AppData\Local\Temp\ccMYhszQ.s 			page 20


 529              		.cfi_offset 4, -8
 530              		.cfi_offset 14, -4
  41:u8g2/csrc/u8x8_byte.c **** }
 531              		.loc 1 41 3 is_stmt 1 view .LVU92
  41:u8g2/csrc/u8x8_byte.c **** }
 532              		.loc 1 41 14 is_stmt 0 view .LVU93
 533 0002 0469     		ldr	r4, [r0, #16]
  41:u8g2/csrc/u8x8_byte.c **** }
 534              		.loc 1 41 10 view .LVU94
 535 0004 0023     		movs	r3, #0
 536 0006 0A46     		mov	r2, r1
 537 0008 2021     		movs	r1, #32
 538              	.LVL57:
  41:u8g2/csrc/u8x8_byte.c **** }
 539              		.loc 1 41 10 view .LVU95
 540 000a A047     		blx	r4
 541              	.LVL58:
  42:u8g2/csrc/u8x8_byte.c **** 
 542              		.loc 1 42 1 view .LVU96
 543 000c 10BD     		pop	{r4, pc}
 544              		.cfi_endproc
 545              	.LFE0:
 547              		.section	.text.u8x8_byte_SendBytes,"ax",%progbits
 548              		.align	1
 549              		.global	u8x8_byte_SendBytes
 550              		.syntax unified
 551              		.thumb
 552              		.thumb_func
 553              		.fpu softvfp
 555              	u8x8_byte_SendBytes:
 556              	.LVL59:
 557              	.LFB1:
  45:u8g2/csrc/u8x8_byte.c ****   return u8x8->byte_cb(u8x8, U8X8_MSG_BYTE_SEND, cnt, (void *)data);
 558              		.loc 1 45 1 is_stmt 1 view -0
 559              		.cfi_startproc
 560              		@ args = 0, pretend = 0, frame = 0
 561              		@ frame_needed = 0, uses_anonymous_args = 0
  45:u8g2/csrc/u8x8_byte.c ****   return u8x8->byte_cb(u8x8, U8X8_MSG_BYTE_SEND, cnt, (void *)data);
 562              		.loc 1 45 1 is_stmt 0 view .LVU98
 563 0000 10B5     		push	{r4, lr}
 564              	.LCFI12:
 565              		.cfi_def_cfa_offset 8
 566              		.cfi_offset 4, -8
 567              		.cfi_offset 14, -4
  46:u8g2/csrc/u8x8_byte.c **** }
 568              		.loc 1 46 3 is_stmt 1 view .LVU99
  46:u8g2/csrc/u8x8_byte.c **** }
 569              		.loc 1 46 14 is_stmt 0 view .LVU100
 570 0002 0469     		ldr	r4, [r0, #16]
  46:u8g2/csrc/u8x8_byte.c **** }
 571              		.loc 1 46 10 view .LVU101
 572 0004 1346     		mov	r3, r2
 573 0006 0A46     		mov	r2, r1
 574              	.LVL60:
  46:u8g2/csrc/u8x8_byte.c **** }
 575              		.loc 1 46 10 view .LVU102
 576 0008 1721     		movs	r1, #23
ARM GAS  C:\Users\behun\AppData\Local\Temp\ccMYhszQ.s 			page 21


 577              	.LVL61:
  46:u8g2/csrc/u8x8_byte.c **** }
 578              		.loc 1 46 10 view .LVU103
 579 000a A047     		blx	r4
 580              	.LVL62:
  47:u8g2/csrc/u8x8_byte.c **** 
 581              		.loc 1 47 1 view .LVU104
 582 000c 10BD     		pop	{r4, pc}
 583              		.cfi_endproc
 584              	.LFE1:
 586              		.section	.text.u8x8_byte_SendByte,"ax",%progbits
 587              		.align	1
 588              		.global	u8x8_byte_SendByte
 589              		.syntax unified
 590              		.thumb
 591              		.thumb_func
 592              		.fpu softvfp
 594              	u8x8_byte_SendByte:
 595              	.LVL63:
 596              	.LFB2:
  50:u8g2/csrc/u8x8_byte.c ****   return u8x8_byte_SendBytes(u8x8, 1, &byte);
 597              		.loc 1 50 1 is_stmt 1 view -0
 598              		.cfi_startproc
 599              		@ args = 0, pretend = 0, frame = 8
 600              		@ frame_needed = 0, uses_anonymous_args = 0
  50:u8g2/csrc/u8x8_byte.c ****   return u8x8_byte_SendBytes(u8x8, 1, &byte);
 601              		.loc 1 50 1 is_stmt 0 view .LVU106
 602 0000 00B5     		push	{lr}
 603              	.LCFI13:
 604              		.cfi_def_cfa_offset 4
 605              		.cfi_offset 14, -4
 606 0002 83B0     		sub	sp, sp, #12
 607              	.LCFI14:
 608              		.cfi_def_cfa_offset 16
 609 0004 8DF80710 		strb	r1, [sp, #7]
  51:u8g2/csrc/u8x8_byte.c **** }
 610              		.loc 1 51 3 is_stmt 1 view .LVU107
  51:u8g2/csrc/u8x8_byte.c **** }
 611              		.loc 1 51 10 is_stmt 0 view .LVU108
 612 0008 0DF10702 		add	r2, sp, #7
 613 000c 0121     		movs	r1, #1
 614              	.LVL64:
  51:u8g2/csrc/u8x8_byte.c **** }
 615              		.loc 1 51 10 view .LVU109
 616 000e FFF7FEFF 		bl	u8x8_byte_SendBytes
 617              	.LVL65:
  52:u8g2/csrc/u8x8_byte.c **** 
 618              		.loc 1 52 1 view .LVU110
 619 0012 03B0     		add	sp, sp, #12
 620              	.LCFI15:
 621              		.cfi_def_cfa_offset 4
 622              		@ sp needed
 623 0014 5DF804FB 		ldr	pc, [sp], #4
 624              		.cfi_endproc
 625              	.LFE2:
 627              		.section	.text.u8x8_byte_StartTransfer,"ax",%progbits
 628              		.align	1
ARM GAS  C:\Users\behun\AppData\Local\Temp\ccMYhszQ.s 			page 22


 629              		.global	u8x8_byte_StartTransfer
 630              		.syntax unified
 631              		.thumb
 632              		.thumb_func
 633              		.fpu softvfp
 635              	u8x8_byte_StartTransfer:
 636              	.LVL66:
 637              	.LFB3:
  55:u8g2/csrc/u8x8_byte.c ****   return u8x8->byte_cb(u8x8, U8X8_MSG_BYTE_START_TRANSFER, 0, NULL);
 638              		.loc 1 55 1 is_stmt 1 view -0
 639              		.cfi_startproc
 640              		@ args = 0, pretend = 0, frame = 0
 641              		@ frame_needed = 0, uses_anonymous_args = 0
  55:u8g2/csrc/u8x8_byte.c ****   return u8x8->byte_cb(u8x8, U8X8_MSG_BYTE_START_TRANSFER, 0, NULL);
 642              		.loc 1 55 1 is_stmt 0 view .LVU112
 643 0000 10B5     		push	{r4, lr}
 644              	.LCFI16:
 645              		.cfi_def_cfa_offset 8
 646              		.cfi_offset 4, -8
 647              		.cfi_offset 14, -4
  56:u8g2/csrc/u8x8_byte.c **** }
 648              		.loc 1 56 3 is_stmt 1 view .LVU113
  56:u8g2/csrc/u8x8_byte.c **** }
 649              		.loc 1 56 14 is_stmt 0 view .LVU114
 650 0002 0469     		ldr	r4, [r0, #16]
  56:u8g2/csrc/u8x8_byte.c **** }
 651              		.loc 1 56 10 view .LVU115
 652 0004 0023     		movs	r3, #0
 653 0006 1A46     		mov	r2, r3
 654 0008 1821     		movs	r1, #24
 655 000a A047     		blx	r4
 656              	.LVL67:
  57:u8g2/csrc/u8x8_byte.c **** 
 657              		.loc 1 57 1 view .LVU116
 658 000c 10BD     		pop	{r4, pc}
 659              		.cfi_endproc
 660              	.LFE3:
 662              		.section	.text.u8x8_byte_EndTransfer,"ax",%progbits
 663              		.align	1
 664              		.global	u8x8_byte_EndTransfer
 665              		.syntax unified
 666              		.thumb
 667              		.thumb_func
 668              		.fpu softvfp
 670              	u8x8_byte_EndTransfer:
 671              	.LVL68:
 672              	.LFB4:
  60:u8g2/csrc/u8x8_byte.c ****   return u8x8->byte_cb(u8x8, U8X8_MSG_BYTE_END_TRANSFER, 0, NULL);
 673              		.loc 1 60 1 is_stmt 1 view -0
 674              		.cfi_startproc
 675              		@ args = 0, pretend = 0, frame = 0
 676              		@ frame_needed = 0, uses_anonymous_args = 0
  60:u8g2/csrc/u8x8_byte.c ****   return u8x8->byte_cb(u8x8, U8X8_MSG_BYTE_END_TRANSFER, 0, NULL);
 677              		.loc 1 60 1 is_stmt 0 view .LVU118
 678 0000 10B5     		push	{r4, lr}
 679              	.LCFI17:
 680              		.cfi_def_cfa_offset 8
ARM GAS  C:\Users\behun\AppData\Local\Temp\ccMYhszQ.s 			page 23


 681              		.cfi_offset 4, -8
 682              		.cfi_offset 14, -4
  61:u8g2/csrc/u8x8_byte.c **** }
 683              		.loc 1 61 3 is_stmt 1 view .LVU119
  61:u8g2/csrc/u8x8_byte.c **** }
 684              		.loc 1 61 14 is_stmt 0 view .LVU120
 685 0002 0469     		ldr	r4, [r0, #16]
  61:u8g2/csrc/u8x8_byte.c **** }
 686              		.loc 1 61 10 view .LVU121
 687 0004 0023     		movs	r3, #0
 688 0006 1A46     		mov	r2, r3
 689 0008 1921     		movs	r1, #25
 690 000a A047     		blx	r4
 691              	.LVL69:
  62:u8g2/csrc/u8x8_byte.c **** 
 692              		.loc 1 62 1 view .LVU122
 693 000c 10BD     		pop	{r4, pc}
 694              		.cfi_endproc
 695              	.LFE4:
 697              		.section	.text.u8x8_byte_4wire_sw_spi,"ax",%progbits
 698              		.align	1
 699              		.global	u8x8_byte_4wire_sw_spi
 700              		.syntax unified
 701              		.thumb
 702              		.thumb_func
 703              		.fpu softvfp
 705              	u8x8_byte_4wire_sw_spi:
 706              	.LVL70:
 707              	.LFB5:
  89:u8g2/csrc/u8x8_byte.c ****   uint8_t i, b;
 708              		.loc 1 89 1 is_stmt 1 view -0
 709              		.cfi_startproc
 710              		@ args = 0, pretend = 0, frame = 0
 711              		@ frame_needed = 0, uses_anonymous_args = 0
  89:u8g2/csrc/u8x8_byte.c ****   uint8_t i, b;
 712              		.loc 1 89 1 is_stmt 0 view .LVU124
 713 0000 2DE9F047 		push	{r4, r5, r6, r7, r8, r9, r10, lr}
 714              	.LCFI18:
 715              		.cfi_def_cfa_offset 32
 716              		.cfi_offset 4, -32
 717              		.cfi_offset 5, -28
 718              		.cfi_offset 6, -24
 719              		.cfi_offset 7, -20
 720              		.cfi_offset 8, -16
 721              		.cfi_offset 9, -12
 722              		.cfi_offset 10, -8
 723              		.cfi_offset 14, -4
 724 0004 0446     		mov	r4, r0
 725 0006 9146     		mov	r9, r2
 726 0008 9A46     		mov	r10, r3
  90:u8g2/csrc/u8x8_byte.c ****   uint8_t *data;
 727              		.loc 1 90 3 is_stmt 1 view .LVU125
  91:u8g2/csrc/u8x8_byte.c ****   uint8_t takeover_edge = u8x8_GetSPIClockPhase(u8x8);
 728              		.loc 1 91 3 view .LVU126
  92:u8g2/csrc/u8x8_byte.c ****   uint8_t not_takeover_edge = 1 - takeover_edge;
 729              		.loc 1 92 3 view .LVU127
  92:u8g2/csrc/u8x8_byte.c ****   uint8_t not_takeover_edge = 1 - takeover_edge;
ARM GAS  C:\Users\behun\AppData\Local\Temp\ccMYhszQ.s 			page 24


 730              		.loc 1 92 27 is_stmt 0 view .LVU128
 731 000a 0268     		ldr	r2, [r0]
 732              	.LVL71:
  92:u8g2/csrc/u8x8_byte.c ****   uint8_t not_takeover_edge = 1 - takeover_edge;
 733              		.loc 1 92 27 view .LVU129
 734 000c 177B     		ldrb	r7, [r2, #12]	@ zero_extendqisi2
  92:u8g2/csrc/u8x8_byte.c ****   uint8_t not_takeover_edge = 1 - takeover_edge;
 735              		.loc 1 92 11 view .LVU130
 736 000e 07F00107 		and	r7, r7, #1
 737              	.LVL72:
  93:u8g2/csrc/u8x8_byte.c ****  
 738              		.loc 1 93 3 is_stmt 1 view .LVU131
  93:u8g2/csrc/u8x8_byte.c ****  
 739              		.loc 1 93 11 is_stmt 0 view .LVU132
 740 0012 87F00108 		eor	r8, r7, #1
 741              	.LVL73:
  95:u8g2/csrc/u8x8_byte.c ****   {
 742              		.loc 1 95 3 is_stmt 1 view .LVU133
 743 0016 1439     		subs	r1, r1, #20
 744              	.LVL74:
  95:u8g2/csrc/u8x8_byte.c ****   {
 745              		.loc 1 95 3 is_stmt 0 view .LVU134
 746 0018 0C29     		cmp	r1, #12
 747 001a 6ED8     		bhi	.L50
 748 001c DFE801F0 		tbb	[pc, r1]
 749              	.LVL75:
 750              	.L40:
 751 0020 3F       		.byte	(.L44-.L40)/2
 752 0021 6D       		.byte	(.L50-.L40)/2
 753 0022 6D       		.byte	(.L50-.L40)/2
 754 0023 31       		.byte	(.L43-.L40)/2
 755 0024 53       		.byte	(.L42-.L40)/2
 756 0025 60       		.byte	(.L41-.L40)/2
 757 0026 6D       		.byte	(.L50-.L40)/2
 758 0027 6D       		.byte	(.L50-.L40)/2
 759 0028 6D       		.byte	(.L50-.L40)/2
 760 0029 6D       		.byte	(.L50-.L40)/2
 761 002a 6D       		.byte	(.L50-.L40)/2
 762 002b 6D       		.byte	(.L50-.L40)/2
 763 002c 4D       		.byte	(.L39-.L40)/2
 764 002d 00       		.p2align 1
 765              	.L52:
 107:u8g2/csrc/u8x8_byte.c **** 	  else
 766              		.loc 1 107 6 is_stmt 1 view .LVU135
 767 002e 0122     		movs	r2, #1
 768 0030 4121     		movs	r1, #65
 769 0032 2046     		mov	r0, r4
 770 0034 FFF7FEFF 		bl	u8x8_gpio_call
 771              	.LVL76:
 772              	.L47:
 110:u8g2/csrc/u8x8_byte.c **** 	  
 773              		.loc 1 110 4 discriminator 2 view .LVU136
 110:u8g2/csrc/u8x8_byte.c **** 	  
 774              		.loc 1 110 6 is_stmt 0 discriminator 2 view .LVU137
 775 0038 7600     		lsls	r6, r6, #1
 776              	.LVL77:
 110:u8g2/csrc/u8x8_byte.c **** 	  
ARM GAS  C:\Users\behun\AppData\Local\Temp\ccMYhszQ.s 			page 25


 777              		.loc 1 110 6 discriminator 2 view .LVU138
 778 003a F6B2     		uxtb	r6, r6
 779              	.LVL78:
 112:u8g2/csrc/u8x8_byte.c **** 	  u8x8_gpio_Delay(u8x8, U8X8_MSG_DELAY_NANO, u8x8->display_info->sda_setup_time_ns);
 780              		.loc 1 112 4 is_stmt 1 discriminator 2 view .LVU139
 781 003c 4246     		mov	r2, r8
 782 003e 4021     		movs	r1, #64
 783 0040 2046     		mov	r0, r4
 784 0042 FFF7FEFF 		bl	u8x8_gpio_call
 785              	.LVL79:
 113:u8g2/csrc/u8x8_byte.c **** 	  u8x8_gpio_SetSPIClock(u8x8, takeover_edge);
 786              		.loc 1 113 4 discriminator 2 view .LVU140
 787 0046 2368     		ldr	r3, [r4]
 788 0048 9A79     		ldrb	r2, [r3, #6]	@ zero_extendqisi2
 789 004a 2C21     		movs	r1, #44
 790 004c 2046     		mov	r0, r4
 791 004e FFF7FEFF 		bl	u8x8_gpio_call
 792              	.LVL80:
 114:u8g2/csrc/u8x8_byte.c **** 	  u8x8_gpio_Delay(u8x8, U8X8_MSG_DELAY_NANO, u8x8->display_info->sck_pulse_width_ns);
 793              		.loc 1 114 4 discriminator 2 view .LVU141
 794 0052 3A46     		mov	r2, r7
 795 0054 4021     		movs	r1, #64
 796 0056 2046     		mov	r0, r4
 797 0058 FFF7FEFF 		bl	u8x8_gpio_call
 798              	.LVL81:
 115:u8g2/csrc/u8x8_byte.c **** 	}    
 799              		.loc 1 115 4 discriminator 2 view .LVU142
 800 005c 2368     		ldr	r3, [r4]
 801 005e DA79     		ldrb	r2, [r3, #7]	@ zero_extendqisi2
 802 0060 2C21     		movs	r1, #44
 803 0062 2046     		mov	r0, r4
 804 0064 FFF7FEFF 		bl	u8x8_gpio_call
 805              	.LVL82:
 104:u8g2/csrc/u8x8_byte.c **** 	{
 806              		.loc 1 104 22 is_stmt 0 discriminator 2 view .LVU143
 807 0068 0135     		adds	r5, r5, #1
 808              	.LVL83:
 104:u8g2/csrc/u8x8_byte.c **** 	{
 809              		.loc 1 104 22 discriminator 2 view .LVU144
 810 006a EDB2     		uxtb	r5, r5
 811              	.LVL84:
 812              	.L45:
 104:u8g2/csrc/u8x8_byte.c **** 	{
 813              		.loc 1 104 2 discriminator 1 view .LVU145
 814 006c 072D     		cmp	r5, #7
 815 006e 08D8     		bhi	.L43
 106:u8g2/csrc/u8x8_byte.c **** 	    u8x8_gpio_SetSPIData(u8x8, 1);
 816              		.loc 1 106 4 is_stmt 1 view .LVU146
 106:u8g2/csrc/u8x8_byte.c **** 	    u8x8_gpio_SetSPIData(u8x8, 1);
 817              		.loc 1 106 7 is_stmt 0 view .LVU147
 818 0070 16F0800F 		tst	r6, #128
 819 0074 DBD1     		bne	.L52
 109:u8g2/csrc/u8x8_byte.c **** 	  b <<= 1;
 820              		.loc 1 109 6 is_stmt 1 view .LVU148
 821 0076 0022     		movs	r2, #0
 822 0078 4121     		movs	r1, #65
 823 007a 2046     		mov	r0, r4
ARM GAS  C:\Users\behun\AppData\Local\Temp\ccMYhszQ.s 			page 26


 824 007c FFF7FEFF 		bl	u8x8_gpio_call
 825              	.LVL85:
 826 0080 DAE7     		b	.L47
 827              	.LVL86:
 828              	.L43:
  99:u8g2/csrc/u8x8_byte.c ****       {
 829              		.loc 1 99 12 is_stmt 0 view .LVU149
 830 0082 B9F1000F 		cmp	r9, #0
 831 0086 07D0     		beq	.L53
 101:u8g2/csrc/u8x8_byte.c **** 	data++;
 832              		.loc 1 101 2 is_stmt 1 view .LVU150
 101:u8g2/csrc/u8x8_byte.c **** 	data++;
 833              		.loc 1 101 4 is_stmt 0 view .LVU151
 834 0088 1AF8016B 		ldrb	r6, [r10], #1	@ zero_extendqisi2
 835              	.LVL87:
 102:u8g2/csrc/u8x8_byte.c **** 	arg_int--;
 836              		.loc 1 102 2 is_stmt 1 view .LVU152
 103:u8g2/csrc/u8x8_byte.c **** 	for( i = 0; i < 8; i++ )
 837              		.loc 1 103 2 view .LVU153
 103:u8g2/csrc/u8x8_byte.c **** 	for( i = 0; i < 8; i++ )
 838              		.loc 1 103 9 is_stmt 0 view .LVU154
 839 008c 09F1FF39 		add	r9, r9, #-1
 840              	.LVL88:
 103:u8g2/csrc/u8x8_byte.c **** 	for( i = 0; i < 8; i++ )
 841              		.loc 1 103 9 view .LVU155
 842 0090 5FFA89F9 		uxtb	r9, r9
 843              	.LVL89:
 104:u8g2/csrc/u8x8_byte.c **** 	{
 844              		.loc 1 104 2 is_stmt 1 view .LVU156
 104:u8g2/csrc/u8x8_byte.c **** 	{
 845              		.loc 1 104 9 is_stmt 0 view .LVU157
 846 0094 0025     		movs	r5, #0
 104:u8g2/csrc/u8x8_byte.c **** 	{
 847              		.loc 1 104 2 view .LVU158
 848 0096 E9E7     		b	.L45
 849              	.LVL90:
 850              	.L53:
 142:u8g2/csrc/u8x8_byte.c **** }
 851              		.loc 1 142 10 view .LVU159
 852 0098 0120     		movs	r0, #1
 853              	.LVL91:
 854              	.L38:
 143:u8g2/csrc/u8x8_byte.c **** 
 855              		.loc 1 143 1 view .LVU160
 856 009a BDE8F087 		pop	{r4, r5, r6, r7, r8, r9, r10, pc}
 857              	.LVL92:
 858              	.L44:
 122:u8g2/csrc/u8x8_byte.c ****       /* no wait required here */
 859              		.loc 1 122 7 is_stmt 1 view .LVU161
 860 009e 5278     		ldrb	r2, [r2, #1]	@ zero_extendqisi2
 861 00a0 4921     		movs	r1, #73
 862 00a2 FFF7FEFF 		bl	u8x8_gpio_call
 863              	.LVL93:
 126:u8g2/csrc/u8x8_byte.c ****       break;
 864              		.loc 1 126 7 view .LVU162
 865 00a6 2368     		ldr	r3, [r4]
 866 00a8 1A7B     		ldrb	r2, [r3, #12]	@ zero_extendqisi2
ARM GAS  C:\Users\behun\AppData\Local\Temp\ccMYhszQ.s 			page 27


 867 00aa 02F00102 		and	r2, r2, #1
 868 00ae 4021     		movs	r1, #64
 869 00b0 2046     		mov	r0, r4
 870 00b2 FFF7FEFF 		bl	u8x8_gpio_call
 871              	.LVL94:
 127:u8g2/csrc/u8x8_byte.c ****     case U8X8_MSG_BYTE_SET_DC:
 872              		.loc 1 127 7 view .LVU163
 142:u8g2/csrc/u8x8_byte.c **** }
 873              		.loc 1 142 10 is_stmt 0 view .LVU164
 874 00b6 0120     		movs	r0, #1
 127:u8g2/csrc/u8x8_byte.c ****     case U8X8_MSG_BYTE_SET_DC:
 875              		.loc 1 127 7 view .LVU165
 876 00b8 EFE7     		b	.L38
 877              	.LVL95:
 878              	.L39:
 129:u8g2/csrc/u8x8_byte.c ****       break;
 879              		.loc 1 129 7 is_stmt 1 view .LVU166
 880 00ba 4A46     		mov	r2, r9
 881 00bc 4A21     		movs	r1, #74
 882 00be FFF7FEFF 		bl	u8x8_gpio_call
 883              	.LVL96:
 130:u8g2/csrc/u8x8_byte.c ****     case U8X8_MSG_BYTE_START_TRANSFER:
 884              		.loc 1 130 7 view .LVU167
 142:u8g2/csrc/u8x8_byte.c **** }
 885              		.loc 1 142 10 is_stmt 0 view .LVU168
 886 00c2 0120     		movs	r0, #1
 130:u8g2/csrc/u8x8_byte.c ****     case U8X8_MSG_BYTE_START_TRANSFER:
 887              		.loc 1 130 7 view .LVU169
 888 00c4 E9E7     		b	.L38
 889              	.LVL97:
 890              	.L42:
 132:u8g2/csrc/u8x8_byte.c ****       u8x8->gpio_and_delay_cb(u8x8, U8X8_MSG_DELAY_NANO, u8x8->display_info->post_chip_enable_wait_
 891              		.loc 1 132 7 is_stmt 1 view .LVU170
 892 00c6 1278     		ldrb	r2, [r2]	@ zero_extendqisi2
 893 00c8 4921     		movs	r1, #73
 894 00ca FFF7FEFF 		bl	u8x8_gpio_call
 895              	.LVL98:
 133:u8g2/csrc/u8x8_byte.c ****       break;
 896              		.loc 1 133 7 view .LVU171
 133:u8g2/csrc/u8x8_byte.c ****       break;
 897              		.loc 1 133 11 is_stmt 0 view .LVU172
 898 00ce 6569     		ldr	r5, [r4, #20]
 133:u8g2/csrc/u8x8_byte.c ****       break;
 899              		.loc 1 133 62 view .LVU173
 900 00d0 2268     		ldr	r2, [r4]
 133:u8g2/csrc/u8x8_byte.c ****       break;
 901              		.loc 1 133 7 view .LVU174
 902 00d2 0023     		movs	r3, #0
 903 00d4 9278     		ldrb	r2, [r2, #2]	@ zero_extendqisi2
 904 00d6 2C21     		movs	r1, #44
 905 00d8 2046     		mov	r0, r4
 906 00da A847     		blx	r5
 907              	.LVL99:
 134:u8g2/csrc/u8x8_byte.c ****     case U8X8_MSG_BYTE_END_TRANSFER:
 908              		.loc 1 134 7 is_stmt 1 view .LVU175
 142:u8g2/csrc/u8x8_byte.c **** }
 909              		.loc 1 142 10 is_stmt 0 view .LVU176
ARM GAS  C:\Users\behun\AppData\Local\Temp\ccMYhszQ.s 			page 28


 910 00dc 0120     		movs	r0, #1
 134:u8g2/csrc/u8x8_byte.c ****     case U8X8_MSG_BYTE_END_TRANSFER:
 911              		.loc 1 134 7 view .LVU177
 912 00de DCE7     		b	.L38
 913              	.LVL100:
 914              	.L41:
 136:u8g2/csrc/u8x8_byte.c ****       u8x8_gpio_SetCS(u8x8, u8x8->display_info->chip_disable_level);
 915              		.loc 1 136 7 is_stmt 1 view .LVU178
 136:u8g2/csrc/u8x8_byte.c ****       u8x8_gpio_SetCS(u8x8, u8x8->display_info->chip_disable_level);
 916              		.loc 1 136 11 is_stmt 0 view .LVU179
 917 00e0 4569     		ldr	r5, [r0, #20]
 136:u8g2/csrc/u8x8_byte.c ****       u8x8_gpio_SetCS(u8x8, u8x8->display_info->chip_disable_level);
 918              		.loc 1 136 7 view .LVU180
 919 00e2 0023     		movs	r3, #0
 920 00e4 D278     		ldrb	r2, [r2, #3]	@ zero_extendqisi2
 921 00e6 2C21     		movs	r1, #44
 922 00e8 A847     		blx	r5
 923              	.LVL101:
 137:u8g2/csrc/u8x8_byte.c ****       break;
 924              		.loc 1 137 7 is_stmt 1 view .LVU181
 925 00ea 2368     		ldr	r3, [r4]
 926 00ec 5A78     		ldrb	r2, [r3, #1]	@ zero_extendqisi2
 927 00ee 4921     		movs	r1, #73
 928 00f0 2046     		mov	r0, r4
 929 00f2 FFF7FEFF 		bl	u8x8_gpio_call
 930              	.LVL102:
 138:u8g2/csrc/u8x8_byte.c ****     default:
 931              		.loc 1 138 7 view .LVU182
 142:u8g2/csrc/u8x8_byte.c **** }
 932              		.loc 1 142 10 is_stmt 0 view .LVU183
 933 00f6 0120     		movs	r0, #1
 138:u8g2/csrc/u8x8_byte.c ****     default:
 934              		.loc 1 138 7 view .LVU184
 935 00f8 CFE7     		b	.L38
 936              	.LVL103:
 937              	.L50:
 140:u8g2/csrc/u8x8_byte.c ****   }
 938              		.loc 1 140 14 view .LVU185
 939 00fa 0020     		movs	r0, #0
 940              	.LVL104:
 140:u8g2/csrc/u8x8_byte.c ****   }
 941              		.loc 1 140 14 view .LVU186
 942 00fc CDE7     		b	.L38
 943              		.cfi_endproc
 944              	.LFE5:
 946              		.section	.text.u8x8_byte_8bit_6800mode,"ax",%progbits
 947              		.align	1
 948              		.global	u8x8_byte_8bit_6800mode
 949              		.syntax unified
 950              		.thumb
 951              		.thumb_func
 952              		.fpu softvfp
 954              	u8x8_byte_8bit_6800mode:
 955              	.LVL105:
 956              	.LFB6:
 148:u8g2/csrc/u8x8_byte.c ****   uint8_t i, b;
 957              		.loc 1 148 1 is_stmt 1 view -0
ARM GAS  C:\Users\behun\AppData\Local\Temp\ccMYhszQ.s 			page 29


 958              		.cfi_startproc
 959              		@ args = 0, pretend = 0, frame = 0
 960              		@ frame_needed = 0, uses_anonymous_args = 0
 148:u8g2/csrc/u8x8_byte.c ****   uint8_t i, b;
 961              		.loc 1 148 1 is_stmt 0 view .LVU188
 962 0000 2DE9F041 		push	{r4, r5, r6, r7, r8, lr}
 963              	.LCFI19:
 964              		.cfi_def_cfa_offset 24
 965              		.cfi_offset 4, -24
 966              		.cfi_offset 5, -20
 967              		.cfi_offset 6, -16
 968              		.cfi_offset 7, -12
 969              		.cfi_offset 8, -8
 970              		.cfi_offset 14, -4
 971 0004 0646     		mov	r6, r0
 972 0006 1746     		mov	r7, r2
 973 0008 9846     		mov	r8, r3
 149:u8g2/csrc/u8x8_byte.c ****   uint8_t *data;
 974              		.loc 1 149 3 is_stmt 1 view .LVU189
 150:u8g2/csrc/u8x8_byte.c ****  
 975              		.loc 1 150 3 view .LVU190
 152:u8g2/csrc/u8x8_byte.c ****   {
 976              		.loc 1 152 3 view .LVU191
 977 000a 1439     		subs	r1, r1, #20
 978              	.LVL106:
 152:u8g2/csrc/u8x8_byte.c ****   {
 979              		.loc 1 152 3 is_stmt 0 view .LVU192
 980 000c 0C29     		cmp	r1, #12
 981 000e 60D8     		bhi	.L65
 982 0010 DFE801F0 		tbb	[pc, r1]
 983              	.LVL107:
 984              	.L57:
 985 0014 32       		.byte	(.L61-.L57)/2
 986 0015 5F       		.byte	(.L65-.L57)/2
 987 0016 5F       		.byte	(.L65-.L57)/2
 988 0017 28       		.byte	(.L60-.L57)/2
 989 0018 43       		.byte	(.L59-.L57)/2
 990 0019 51       		.byte	(.L58-.L57)/2
 991 001a 5F       		.byte	(.L65-.L57)/2
 992 001b 5F       		.byte	(.L65-.L57)/2
 993 001c 5F       		.byte	(.L65-.L57)/2
 994 001d 5F       		.byte	(.L65-.L57)/2
 995 001e 5F       		.byte	(.L65-.L57)/2
 996 001f 5F       		.byte	(.L65-.L57)/2
 997 0020 3E       		.byte	(.L56-.L57)/2
 998 0021 00       		.p2align 1
 999              	.L63:
 163:u8g2/csrc/u8x8_byte.c **** 	  b >>= 1;
 1000              		.loc 1 163 4 is_stmt 1 discriminator 3 view .LVU193
 1001 0022 05F00102 		and	r2, r5, #1
 1002 0026 2146     		mov	r1, r4
 1003 0028 3046     		mov	r0, r6
 1004 002a FFF7FEFF 		bl	u8x8_gpio_call
 1005              	.LVL108:
 164:u8g2/csrc/u8x8_byte.c **** 	}    
 1006              		.loc 1 164 4 discriminator 3 view .LVU194
 164:u8g2/csrc/u8x8_byte.c **** 	}    
ARM GAS  C:\Users\behun\AppData\Local\Temp\ccMYhszQ.s 			page 30


 1007              		.loc 1 164 6 is_stmt 0 discriminator 3 view .LVU195
 1008 002e 6D08     		lsrs	r5, r5, #1
 1009              	.LVL109:
 161:u8g2/csrc/u8x8_byte.c **** 	{
 1010              		.loc 1 161 53 discriminator 3 view .LVU196
 1011 0030 0134     		adds	r4, r4, #1
 1012              	.LVL110:
 161:u8g2/csrc/u8x8_byte.c **** 	{
 1013              		.loc 1 161 53 discriminator 3 view .LVU197
 1014 0032 E4B2     		uxtb	r4, r4
 1015              	.LVL111:
 1016              	.L62:
 161:u8g2/csrc/u8x8_byte.c **** 	{
 1017              		.loc 1 161 2 discriminator 1 view .LVU198
 1018 0034 472C     		cmp	r4, #71
 1019 0036 F4D9     		bls	.L63
 167:u8g2/csrc/u8x8_byte.c **** 	u8x8_gpio_call(u8x8, U8X8_MSG_GPIO_E, 1);
 1020              		.loc 1 167 2 is_stmt 1 view .LVU199
 1021 0038 3368     		ldr	r3, [r6]
 1022 003a 9A7B     		ldrb	r2, [r3, #14]	@ zero_extendqisi2
 1023 003c 2C21     		movs	r1, #44
 1024 003e 3046     		mov	r0, r6
 1025 0040 FFF7FEFF 		bl	u8x8_gpio_call
 1026              	.LVL112:
 168:u8g2/csrc/u8x8_byte.c **** 	u8x8_gpio_Delay(u8x8, U8X8_MSG_DELAY_NANO, u8x8->display_info->write_pulse_width_ns);
 1027              		.loc 1 168 2 view .LVU200
 1028 0044 0122     		movs	r2, #1
 1029 0046 4821     		movs	r1, #72
 1030 0048 3046     		mov	r0, r6
 1031 004a FFF7FEFF 		bl	u8x8_gpio_call
 1032              	.LVL113:
 169:u8g2/csrc/u8x8_byte.c **** 	u8x8_gpio_call(u8x8, U8X8_MSG_GPIO_E, 0);
 1033              		.loc 1 169 2 view .LVU201
 1034 004e 3368     		ldr	r3, [r6]
 1035 0050 DA7B     		ldrb	r2, [r3, #15]	@ zero_extendqisi2
 1036 0052 2C21     		movs	r1, #44
 1037 0054 3046     		mov	r0, r6
 1038 0056 FFF7FEFF 		bl	u8x8_gpio_call
 1039              	.LVL114:
 170:u8g2/csrc/u8x8_byte.c ****       }
 1040              		.loc 1 170 2 view .LVU202
 1041 005a 0022     		movs	r2, #0
 1042 005c 4821     		movs	r1, #72
 1043 005e 3046     		mov	r0, r6
 1044 0060 FFF7FEFF 		bl	u8x8_gpio_call
 1045              	.LVL115:
 1046              	.L60:
 156:u8g2/csrc/u8x8_byte.c ****       {
 1047              		.loc 1 156 12 is_stmt 0 view .LVU203
 1048 0064 2FB1     		cbz	r7, .L67
 158:u8g2/csrc/u8x8_byte.c **** 	data++;
 1049              		.loc 1 158 2 is_stmt 1 view .LVU204
 158:u8g2/csrc/u8x8_byte.c **** 	data++;
 1050              		.loc 1 158 4 is_stmt 0 view .LVU205
 1051 0066 18F8015B 		ldrb	r5, [r8], #1	@ zero_extendqisi2
 1052              	.LVL116:
 159:u8g2/csrc/u8x8_byte.c **** 	arg_int--;
ARM GAS  C:\Users\behun\AppData\Local\Temp\ccMYhszQ.s 			page 31


 1053              		.loc 1 159 2 is_stmt 1 view .LVU206
 160:u8g2/csrc/u8x8_byte.c **** 	for( i = U8X8_MSG_GPIO_D0; i <= U8X8_MSG_GPIO_D7; i++ )
 1054              		.loc 1 160 2 view .LVU207
 160:u8g2/csrc/u8x8_byte.c **** 	for( i = U8X8_MSG_GPIO_D0; i <= U8X8_MSG_GPIO_D7; i++ )
 1055              		.loc 1 160 9 is_stmt 0 view .LVU208
 1056 006a 013F     		subs	r7, r7, #1
 1057              	.LVL117:
 160:u8g2/csrc/u8x8_byte.c **** 	for( i = U8X8_MSG_GPIO_D0; i <= U8X8_MSG_GPIO_D7; i++ )
 1058              		.loc 1 160 9 view .LVU209
 1059 006c FFB2     		uxtb	r7, r7
 1060              	.LVL118:
 161:u8g2/csrc/u8x8_byte.c **** 	{
 1061              		.loc 1 161 2 is_stmt 1 view .LVU210
 161:u8g2/csrc/u8x8_byte.c **** 	{
 1062              		.loc 1 161 9 is_stmt 0 view .LVU211
 1063 006e 4024     		movs	r4, #64
 161:u8g2/csrc/u8x8_byte.c **** 	{
 1064              		.loc 1 161 2 view .LVU212
 1065 0070 E0E7     		b	.L62
 1066              	.LVL119:
 1067              	.L67:
 194:u8g2/csrc/u8x8_byte.c **** }
 1068              		.loc 1 194 10 view .LVU213
 1069 0072 0120     		movs	r0, #1
 1070              	.LVL120:
 1071              	.L55:
 195:u8g2/csrc/u8x8_byte.c **** 
 1072              		.loc 1 195 1 view .LVU214
 1073 0074 BDE8F081 		pop	{r4, r5, r6, r7, r8, pc}
 1074              	.LVL121:
 1075              	.L61:
 176:u8g2/csrc/u8x8_byte.c ****       /* ensure that the enable signal is high */
 1076              		.loc 1 176 7 is_stmt 1 view .LVU215
 1077 0078 0368     		ldr	r3, [r0]
 1078 007a 5A78     		ldrb	r2, [r3, #1]	@ zero_extendqisi2
 1079              	.LVL122:
 176:u8g2/csrc/u8x8_byte.c ****       /* ensure that the enable signal is high */
 1080              		.loc 1 176 7 is_stmt 0 view .LVU216
 1081 007c 4921     		movs	r1, #73
 1082 007e FFF7FEFF 		bl	u8x8_gpio_call
 1083              	.LVL123:
 178:u8g2/csrc/u8x8_byte.c ****       break;
 1084              		.loc 1 178 7 is_stmt 1 view .LVU217
 1085 0082 0022     		movs	r2, #0
 1086 0084 4821     		movs	r1, #72
 1087 0086 3046     		mov	r0, r6
 1088 0088 FFF7FEFF 		bl	u8x8_gpio_call
 1089              	.LVL124:
 179:u8g2/csrc/u8x8_byte.c ****     case U8X8_MSG_BYTE_SET_DC:
 1090              		.loc 1 179 7 view .LVU218
 194:u8g2/csrc/u8x8_byte.c **** }
 1091              		.loc 1 194 10 is_stmt 0 view .LVU219
 1092 008c 0120     		movs	r0, #1
 179:u8g2/csrc/u8x8_byte.c ****     case U8X8_MSG_BYTE_SET_DC:
 1093              		.loc 1 179 7 view .LVU220
 1094 008e F1E7     		b	.L55
 1095              	.LVL125:
ARM GAS  C:\Users\behun\AppData\Local\Temp\ccMYhszQ.s 			page 32


 1096              	.L56:
 181:u8g2/csrc/u8x8_byte.c ****       break;
 1097              		.loc 1 181 7 is_stmt 1 view .LVU221
 1098 0090 4A21     		movs	r1, #74
 1099 0092 FFF7FEFF 		bl	u8x8_gpio_call
 1100              	.LVL126:
 182:u8g2/csrc/u8x8_byte.c ****     case U8X8_MSG_BYTE_START_TRANSFER:
 1101              		.loc 1 182 7 view .LVU222
 194:u8g2/csrc/u8x8_byte.c **** }
 1102              		.loc 1 194 10 is_stmt 0 view .LVU223
 1103 0096 0120     		movs	r0, #1
 182:u8g2/csrc/u8x8_byte.c ****     case U8X8_MSG_BYTE_START_TRANSFER:
 1104              		.loc 1 182 7 view .LVU224
 1105 0098 ECE7     		b	.L55
 1106              	.LVL127:
 1107              	.L59:
 184:u8g2/csrc/u8x8_byte.c ****       u8x8->gpio_and_delay_cb(u8x8, U8X8_MSG_DELAY_NANO, u8x8->display_info->post_chip_enable_wait_
 1108              		.loc 1 184 7 is_stmt 1 view .LVU225
 1109 009a 0368     		ldr	r3, [r0]
 1110 009c 1A78     		ldrb	r2, [r3]	@ zero_extendqisi2
 1111              	.LVL128:
 184:u8g2/csrc/u8x8_byte.c ****       u8x8->gpio_and_delay_cb(u8x8, U8X8_MSG_DELAY_NANO, u8x8->display_info->post_chip_enable_wait_
 1112              		.loc 1 184 7 is_stmt 0 view .LVU226
 1113 009e 4921     		movs	r1, #73
 1114 00a0 FFF7FEFF 		bl	u8x8_gpio_call
 1115              	.LVL129:
 185:u8g2/csrc/u8x8_byte.c ****       break;
 1116              		.loc 1 185 7 is_stmt 1 view .LVU227
 185:u8g2/csrc/u8x8_byte.c ****       break;
 1117              		.loc 1 185 11 is_stmt 0 view .LVU228
 1118 00a4 7469     		ldr	r4, [r6, #20]
 185:u8g2/csrc/u8x8_byte.c ****       break;
 1119              		.loc 1 185 62 view .LVU229
 1120 00a6 3268     		ldr	r2, [r6]
 185:u8g2/csrc/u8x8_byte.c ****       break;
 1121              		.loc 1 185 7 view .LVU230
 1122 00a8 0023     		movs	r3, #0
 1123 00aa 9278     		ldrb	r2, [r2, #2]	@ zero_extendqisi2
 1124 00ac 2C21     		movs	r1, #44
 1125 00ae 3046     		mov	r0, r6
 1126 00b0 A047     		blx	r4
 1127              	.LVL130:
 186:u8g2/csrc/u8x8_byte.c ****     case U8X8_MSG_BYTE_END_TRANSFER:
 1128              		.loc 1 186 7 is_stmt 1 view .LVU231
 194:u8g2/csrc/u8x8_byte.c **** }
 1129              		.loc 1 194 10 is_stmt 0 view .LVU232
 1130 00b2 0120     		movs	r0, #1
 186:u8g2/csrc/u8x8_byte.c ****     case U8X8_MSG_BYTE_END_TRANSFER:
 1131              		.loc 1 186 7 view .LVU233
 1132 00b4 DEE7     		b	.L55
 1133              	.LVL131:
 1134              	.L58:
 188:u8g2/csrc/u8x8_byte.c ****       u8x8_gpio_SetCS(u8x8, u8x8->display_info->chip_disable_level);
 1135              		.loc 1 188 7 is_stmt 1 view .LVU234
 188:u8g2/csrc/u8x8_byte.c ****       u8x8_gpio_SetCS(u8x8, u8x8->display_info->chip_disable_level);
 1136              		.loc 1 188 11 is_stmt 0 view .LVU235
 1137 00b6 4469     		ldr	r4, [r0, #20]
ARM GAS  C:\Users\behun\AppData\Local\Temp\ccMYhszQ.s 			page 33


 188:u8g2/csrc/u8x8_byte.c ****       u8x8_gpio_SetCS(u8x8, u8x8->display_info->chip_disable_level);
 1138              		.loc 1 188 62 view .LVU236
 1139 00b8 0268     		ldr	r2, [r0]
 1140              	.LVL132:
 188:u8g2/csrc/u8x8_byte.c ****       u8x8_gpio_SetCS(u8x8, u8x8->display_info->chip_disable_level);
 1141              		.loc 1 188 7 view .LVU237
 1142 00ba 0023     		movs	r3, #0
 1143 00bc D278     		ldrb	r2, [r2, #3]	@ zero_extendqisi2
 1144 00be 2C21     		movs	r1, #44
 1145 00c0 A047     		blx	r4
 1146              	.LVL133:
 189:u8g2/csrc/u8x8_byte.c ****       break;
 1147              		.loc 1 189 7 is_stmt 1 view .LVU238
 1148 00c2 3368     		ldr	r3, [r6]
 1149 00c4 5A78     		ldrb	r2, [r3, #1]	@ zero_extendqisi2
 1150 00c6 4921     		movs	r1, #73
 1151 00c8 3046     		mov	r0, r6
 1152 00ca FFF7FEFF 		bl	u8x8_gpio_call
 1153              	.LVL134:
 190:u8g2/csrc/u8x8_byte.c ****     default:
 1154              		.loc 1 190 7 view .LVU239
 194:u8g2/csrc/u8x8_byte.c **** }
 1155              		.loc 1 194 10 is_stmt 0 view .LVU240
 1156 00ce 0120     		movs	r0, #1
 190:u8g2/csrc/u8x8_byte.c ****     default:
 1157              		.loc 1 190 7 view .LVU241
 1158 00d0 D0E7     		b	.L55
 1159              	.LVL135:
 1160              	.L65:
 192:u8g2/csrc/u8x8_byte.c ****   }
 1161              		.loc 1 192 14 view .LVU242
 1162 00d2 0020     		movs	r0, #0
 1163              	.LVL136:
 192:u8g2/csrc/u8x8_byte.c ****   }
 1164              		.loc 1 192 14 view .LVU243
 1165 00d4 CEE7     		b	.L55
 1166              		.cfi_endproc
 1167              	.LFE6:
 1169              		.section	.text.u8x8_byte_8bit_8080mode,"ax",%progbits
 1170              		.align	1
 1171              		.global	u8x8_byte_8bit_8080mode
 1172              		.syntax unified
 1173              		.thumb
 1174              		.thumb_func
 1175              		.fpu softvfp
 1177              	u8x8_byte_8bit_8080mode:
 1178              	.LVL137:
 1179              	.LFB7:
 198:u8g2/csrc/u8x8_byte.c ****   uint8_t i, b;
 1180              		.loc 1 198 1 is_stmt 1 view -0
 1181              		.cfi_startproc
 1182              		@ args = 0, pretend = 0, frame = 0
 1183              		@ frame_needed = 0, uses_anonymous_args = 0
 198:u8g2/csrc/u8x8_byte.c ****   uint8_t i, b;
 1184              		.loc 1 198 1 is_stmt 0 view .LVU245
 1185 0000 2DE9F041 		push	{r4, r5, r6, r7, r8, lr}
 1186              	.LCFI20:
ARM GAS  C:\Users\behun\AppData\Local\Temp\ccMYhszQ.s 			page 34


 1187              		.cfi_def_cfa_offset 24
 1188              		.cfi_offset 4, -24
 1189              		.cfi_offset 5, -20
 1190              		.cfi_offset 6, -16
 1191              		.cfi_offset 7, -12
 1192              		.cfi_offset 8, -8
 1193              		.cfi_offset 14, -4
 1194 0004 0646     		mov	r6, r0
 1195 0006 1746     		mov	r7, r2
 1196 0008 9846     		mov	r8, r3
 199:u8g2/csrc/u8x8_byte.c ****   uint8_t *data;
 1197              		.loc 1 199 3 is_stmt 1 view .LVU246
 200:u8g2/csrc/u8x8_byte.c ****  
 1198              		.loc 1 200 3 view .LVU247
 202:u8g2/csrc/u8x8_byte.c ****   {
 1199              		.loc 1 202 3 view .LVU248
 1200 000a 1439     		subs	r1, r1, #20
 1201              	.LVL138:
 202:u8g2/csrc/u8x8_byte.c ****   {
 1202              		.loc 1 202 3 is_stmt 0 view .LVU249
 1203 000c 0C29     		cmp	r1, #12
 1204 000e 60D8     		bhi	.L79
 1205 0010 DFE801F0 		tbb	[pc, r1]
 1206              	.LVL139:
 1207              	.L71:
 1208 0014 32       		.byte	(.L75-.L71)/2
 1209 0015 5F       		.byte	(.L79-.L71)/2
 1210 0016 5F       		.byte	(.L79-.L71)/2
 1211 0017 28       		.byte	(.L74-.L71)/2
 1212 0018 43       		.byte	(.L73-.L71)/2
 1213 0019 51       		.byte	(.L72-.L71)/2
 1214 001a 5F       		.byte	(.L79-.L71)/2
 1215 001b 5F       		.byte	(.L79-.L71)/2
 1216 001c 5F       		.byte	(.L79-.L71)/2
 1217 001d 5F       		.byte	(.L79-.L71)/2
 1218 001e 5F       		.byte	(.L79-.L71)/2
 1219 001f 5F       		.byte	(.L79-.L71)/2
 1220 0020 3E       		.byte	(.L70-.L71)/2
 1221 0021 00       		.p2align 1
 1222              	.L77:
 213:u8g2/csrc/u8x8_byte.c **** 	  b >>= 1;
 1223              		.loc 1 213 4 is_stmt 1 discriminator 3 view .LVU250
 1224 0022 05F00102 		and	r2, r5, #1
 1225 0026 2146     		mov	r1, r4
 1226 0028 3046     		mov	r0, r6
 1227 002a FFF7FEFF 		bl	u8x8_gpio_call
 1228              	.LVL140:
 214:u8g2/csrc/u8x8_byte.c **** 	}    
 1229              		.loc 1 214 4 discriminator 3 view .LVU251
 214:u8g2/csrc/u8x8_byte.c **** 	}    
 1230              		.loc 1 214 6 is_stmt 0 discriminator 3 view .LVU252
 1231 002e 6D08     		lsrs	r5, r5, #1
 1232              	.LVL141:
 211:u8g2/csrc/u8x8_byte.c **** 	{
 1233              		.loc 1 211 53 discriminator 3 view .LVU253
 1234 0030 0134     		adds	r4, r4, #1
 1235              	.LVL142:
ARM GAS  C:\Users\behun\AppData\Local\Temp\ccMYhszQ.s 			page 35


 211:u8g2/csrc/u8x8_byte.c **** 	{
 1236              		.loc 1 211 53 discriminator 3 view .LVU254
 1237 0032 E4B2     		uxtb	r4, r4
 1238              	.LVL143:
 1239              	.L76:
 211:u8g2/csrc/u8x8_byte.c **** 	{
 1240              		.loc 1 211 2 discriminator 1 view .LVU255
 1241 0034 472C     		cmp	r4, #71
 1242 0036 F4D9     		bls	.L77
 217:u8g2/csrc/u8x8_byte.c **** 	u8x8_gpio_call(u8x8, U8X8_MSG_GPIO_E, 0);
 1243              		.loc 1 217 2 is_stmt 1 view .LVU256
 1244 0038 3368     		ldr	r3, [r6]
 1245 003a 9A7B     		ldrb	r2, [r3, #14]	@ zero_extendqisi2
 1246 003c 2C21     		movs	r1, #44
 1247 003e 3046     		mov	r0, r6
 1248 0040 FFF7FEFF 		bl	u8x8_gpio_call
 1249              	.LVL144:
 218:u8g2/csrc/u8x8_byte.c **** 	u8x8_gpio_Delay(u8x8, U8X8_MSG_DELAY_NANO, u8x8->display_info->write_pulse_width_ns);
 1250              		.loc 1 218 2 view .LVU257
 1251 0044 0022     		movs	r2, #0
 1252 0046 4821     		movs	r1, #72
 1253 0048 3046     		mov	r0, r6
 1254 004a FFF7FEFF 		bl	u8x8_gpio_call
 1255              	.LVL145:
 219:u8g2/csrc/u8x8_byte.c **** 	u8x8_gpio_call(u8x8, U8X8_MSG_GPIO_E, 1);
 1256              		.loc 1 219 2 view .LVU258
 1257 004e 3368     		ldr	r3, [r6]
 1258 0050 DA7B     		ldrb	r2, [r3, #15]	@ zero_extendqisi2
 1259 0052 2C21     		movs	r1, #44
 1260 0054 3046     		mov	r0, r6
 1261 0056 FFF7FEFF 		bl	u8x8_gpio_call
 1262              	.LVL146:
 220:u8g2/csrc/u8x8_byte.c ****       }
 1263              		.loc 1 220 2 view .LVU259
 1264 005a 0122     		movs	r2, #1
 1265 005c 4821     		movs	r1, #72
 1266 005e 3046     		mov	r0, r6
 1267 0060 FFF7FEFF 		bl	u8x8_gpio_call
 1268              	.LVL147:
 1269              	.L74:
 206:u8g2/csrc/u8x8_byte.c ****       {
 1270              		.loc 1 206 12 is_stmt 0 view .LVU260
 1271 0064 2FB1     		cbz	r7, .L81
 208:u8g2/csrc/u8x8_byte.c **** 	data++;
 1272              		.loc 1 208 2 is_stmt 1 view .LVU261
 208:u8g2/csrc/u8x8_byte.c **** 	data++;
 1273              		.loc 1 208 4 is_stmt 0 view .LVU262
 1274 0066 18F8015B 		ldrb	r5, [r8], #1	@ zero_extendqisi2
 1275              	.LVL148:
 209:u8g2/csrc/u8x8_byte.c **** 	arg_int--;
 1276              		.loc 1 209 2 is_stmt 1 view .LVU263
 210:u8g2/csrc/u8x8_byte.c **** 	for( i = U8X8_MSG_GPIO_D0; i <= U8X8_MSG_GPIO_D7; i++ )
 1277              		.loc 1 210 2 view .LVU264
 210:u8g2/csrc/u8x8_byte.c **** 	for( i = U8X8_MSG_GPIO_D0; i <= U8X8_MSG_GPIO_D7; i++ )
 1278              		.loc 1 210 9 is_stmt 0 view .LVU265
 1279 006a 013F     		subs	r7, r7, #1
 1280              	.LVL149:
ARM GAS  C:\Users\behun\AppData\Local\Temp\ccMYhszQ.s 			page 36


 210:u8g2/csrc/u8x8_byte.c **** 	for( i = U8X8_MSG_GPIO_D0; i <= U8X8_MSG_GPIO_D7; i++ )
 1281              		.loc 1 210 9 view .LVU266
 1282 006c FFB2     		uxtb	r7, r7
 1283              	.LVL150:
 211:u8g2/csrc/u8x8_byte.c **** 	{
 1284              		.loc 1 211 2 is_stmt 1 view .LVU267
 211:u8g2/csrc/u8x8_byte.c **** 	{
 1285              		.loc 1 211 9 is_stmt 0 view .LVU268
 1286 006e 4024     		movs	r4, #64
 211:u8g2/csrc/u8x8_byte.c **** 	{
 1287              		.loc 1 211 2 view .LVU269
 1288 0070 E0E7     		b	.L76
 1289              	.LVL151:
 1290              	.L81:
 244:u8g2/csrc/u8x8_byte.c **** }
 1291              		.loc 1 244 10 view .LVU270
 1292 0072 0120     		movs	r0, #1
 1293              	.LVL152:
 1294              	.L69:
 245:u8g2/csrc/u8x8_byte.c **** 
 1295              		.loc 1 245 1 view .LVU271
 1296 0074 BDE8F081 		pop	{r4, r5, r6, r7, r8, pc}
 1297              	.LVL153:
 1298              	.L75:
 226:u8g2/csrc/u8x8_byte.c ****       /* ensure that the enable signal is high */
 1299              		.loc 1 226 7 is_stmt 1 view .LVU272
 1300 0078 0368     		ldr	r3, [r0]
 1301 007a 5A78     		ldrb	r2, [r3, #1]	@ zero_extendqisi2
 1302              	.LVL154:
 226:u8g2/csrc/u8x8_byte.c ****       /* ensure that the enable signal is high */
 1303              		.loc 1 226 7 is_stmt 0 view .LVU273
 1304 007c 4921     		movs	r1, #73
 1305 007e FFF7FEFF 		bl	u8x8_gpio_call
 1306              	.LVL155:
 228:u8g2/csrc/u8x8_byte.c ****       break;
 1307              		.loc 1 228 7 is_stmt 1 view .LVU274
 1308 0082 0122     		movs	r2, #1
 1309 0084 4821     		movs	r1, #72
 1310 0086 3046     		mov	r0, r6
 1311 0088 FFF7FEFF 		bl	u8x8_gpio_call
 1312              	.LVL156:
 229:u8g2/csrc/u8x8_byte.c ****     case U8X8_MSG_BYTE_SET_DC:
 1313              		.loc 1 229 7 view .LVU275
 244:u8g2/csrc/u8x8_byte.c **** }
 1314              		.loc 1 244 10 is_stmt 0 view .LVU276
 1315 008c 0120     		movs	r0, #1
 229:u8g2/csrc/u8x8_byte.c ****     case U8X8_MSG_BYTE_SET_DC:
 1316              		.loc 1 229 7 view .LVU277
 1317 008e F1E7     		b	.L69
 1318              	.LVL157:
 1319              	.L70:
 231:u8g2/csrc/u8x8_byte.c ****       break;
 1320              		.loc 1 231 7 is_stmt 1 view .LVU278
 1321 0090 4A21     		movs	r1, #74
 1322 0092 FFF7FEFF 		bl	u8x8_gpio_call
 1323              	.LVL158:
 232:u8g2/csrc/u8x8_byte.c ****     case U8X8_MSG_BYTE_START_TRANSFER:
ARM GAS  C:\Users\behun\AppData\Local\Temp\ccMYhszQ.s 			page 37


 1324              		.loc 1 232 7 view .LVU279
 244:u8g2/csrc/u8x8_byte.c **** }
 1325              		.loc 1 244 10 is_stmt 0 view .LVU280
 1326 0096 0120     		movs	r0, #1
 232:u8g2/csrc/u8x8_byte.c ****     case U8X8_MSG_BYTE_START_TRANSFER:
 1327              		.loc 1 232 7 view .LVU281
 1328 0098 ECE7     		b	.L69
 1329              	.LVL159:
 1330              	.L73:
 234:u8g2/csrc/u8x8_byte.c ****       u8x8->gpio_and_delay_cb(u8x8, U8X8_MSG_DELAY_NANO, u8x8->display_info->post_chip_enable_wait_
 1331              		.loc 1 234 7 is_stmt 1 view .LVU282
 1332 009a 0368     		ldr	r3, [r0]
 1333 009c 1A78     		ldrb	r2, [r3]	@ zero_extendqisi2
 1334              	.LVL160:
 234:u8g2/csrc/u8x8_byte.c ****       u8x8->gpio_and_delay_cb(u8x8, U8X8_MSG_DELAY_NANO, u8x8->display_info->post_chip_enable_wait_
 1335              		.loc 1 234 7 is_stmt 0 view .LVU283
 1336 009e 4921     		movs	r1, #73
 1337 00a0 FFF7FEFF 		bl	u8x8_gpio_call
 1338              	.LVL161:
 235:u8g2/csrc/u8x8_byte.c ****       break;
 1339              		.loc 1 235 7 is_stmt 1 view .LVU284
 235:u8g2/csrc/u8x8_byte.c ****       break;
 1340              		.loc 1 235 11 is_stmt 0 view .LVU285
 1341 00a4 7469     		ldr	r4, [r6, #20]
 235:u8g2/csrc/u8x8_byte.c ****       break;
 1342              		.loc 1 235 62 view .LVU286
 1343 00a6 3268     		ldr	r2, [r6]
 235:u8g2/csrc/u8x8_byte.c ****       break;
 1344              		.loc 1 235 7 view .LVU287
 1345 00a8 0023     		movs	r3, #0
 1346 00aa 9278     		ldrb	r2, [r2, #2]	@ zero_extendqisi2
 1347 00ac 2C21     		movs	r1, #44
 1348 00ae 3046     		mov	r0, r6
 1349 00b0 A047     		blx	r4
 1350              	.LVL162:
 236:u8g2/csrc/u8x8_byte.c ****     case U8X8_MSG_BYTE_END_TRANSFER:
 1351              		.loc 1 236 7 is_stmt 1 view .LVU288
 244:u8g2/csrc/u8x8_byte.c **** }
 1352              		.loc 1 244 10 is_stmt 0 view .LVU289
 1353 00b2 0120     		movs	r0, #1
 236:u8g2/csrc/u8x8_byte.c ****     case U8X8_MSG_BYTE_END_TRANSFER:
 1354              		.loc 1 236 7 view .LVU290
 1355 00b4 DEE7     		b	.L69
 1356              	.LVL163:
 1357              	.L72:
 238:u8g2/csrc/u8x8_byte.c ****       u8x8_gpio_SetCS(u8x8, u8x8->display_info->chip_disable_level);
 1358              		.loc 1 238 7 is_stmt 1 view .LVU291
 238:u8g2/csrc/u8x8_byte.c ****       u8x8_gpio_SetCS(u8x8, u8x8->display_info->chip_disable_level);
 1359              		.loc 1 238 11 is_stmt 0 view .LVU292
 1360 00b6 4469     		ldr	r4, [r0, #20]
 238:u8g2/csrc/u8x8_byte.c ****       u8x8_gpio_SetCS(u8x8, u8x8->display_info->chip_disable_level);
 1361              		.loc 1 238 62 view .LVU293
 1362 00b8 0268     		ldr	r2, [r0]
 1363              	.LVL164:
 238:u8g2/csrc/u8x8_byte.c ****       u8x8_gpio_SetCS(u8x8, u8x8->display_info->chip_disable_level);
 1364              		.loc 1 238 7 view .LVU294
 1365 00ba 0023     		movs	r3, #0
ARM GAS  C:\Users\behun\AppData\Local\Temp\ccMYhszQ.s 			page 38


 1366 00bc D278     		ldrb	r2, [r2, #3]	@ zero_extendqisi2
 1367 00be 2C21     		movs	r1, #44
 1368 00c0 A047     		blx	r4
 1369              	.LVL165:
 239:u8g2/csrc/u8x8_byte.c ****       break;
 1370              		.loc 1 239 7 is_stmt 1 view .LVU295
 1371 00c2 3368     		ldr	r3, [r6]
 1372 00c4 5A78     		ldrb	r2, [r3, #1]	@ zero_extendqisi2
 1373 00c6 4921     		movs	r1, #73
 1374 00c8 3046     		mov	r0, r6
 1375 00ca FFF7FEFF 		bl	u8x8_gpio_call
 1376              	.LVL166:
 240:u8g2/csrc/u8x8_byte.c ****     default:
 1377              		.loc 1 240 7 view .LVU296
 244:u8g2/csrc/u8x8_byte.c **** }
 1378              		.loc 1 244 10 is_stmt 0 view .LVU297
 1379 00ce 0120     		movs	r0, #1
 240:u8g2/csrc/u8x8_byte.c ****     default:
 1380              		.loc 1 240 7 view .LVU298
 1381 00d0 D0E7     		b	.L69
 1382              	.LVL167:
 1383              	.L79:
 242:u8g2/csrc/u8x8_byte.c ****   }
 1384              		.loc 1 242 14 view .LVU299
 1385 00d2 0020     		movs	r0, #0
 1386              	.LVL168:
 242:u8g2/csrc/u8x8_byte.c ****   }
 1387              		.loc 1 242 14 view .LVU300
 1388 00d4 CEE7     		b	.L69
 1389              		.cfi_endproc
 1390              	.LFE7:
 1392              		.section	.text.u8x8_byte_3wire_sw_spi,"ax",%progbits
 1393              		.align	1
 1394              		.global	u8x8_byte_3wire_sw_spi
 1395              		.syntax unified
 1396              		.thumb
 1397              		.thumb_func
 1398              		.fpu softvfp
 1400              	u8x8_byte_3wire_sw_spi:
 1401              	.LVL169:
 1402              	.LFB8:
 250:u8g2/csrc/u8x8_byte.c ****   uint8_t i;
 1403              		.loc 1 250 1 is_stmt 1 view -0
 1404              		.cfi_startproc
 1405              		@ args = 0, pretend = 0, frame = 0
 1406              		@ frame_needed = 0, uses_anonymous_args = 0
 250:u8g2/csrc/u8x8_byte.c ****   uint8_t i;
 1407              		.loc 1 250 1 is_stmt 0 view .LVU302
 1408 0000 2DE9F047 		push	{r4, r5, r6, r7, r8, r9, r10, lr}
 1409              	.LCFI21:
 1410              		.cfi_def_cfa_offset 32
 1411              		.cfi_offset 4, -32
 1412              		.cfi_offset 5, -28
 1413              		.cfi_offset 6, -24
 1414              		.cfi_offset 7, -20
 1415              		.cfi_offset 8, -16
 1416              		.cfi_offset 9, -12
ARM GAS  C:\Users\behun\AppData\Local\Temp\ccMYhszQ.s 			page 39


 1417              		.cfi_offset 10, -8
 1418              		.cfi_offset 14, -4
 1419 0004 0446     		mov	r4, r0
 1420 0006 9146     		mov	r9, r2
 1421 0008 9A46     		mov	r10, r3
 251:u8g2/csrc/u8x8_byte.c ****   uint8_t *data;
 1422              		.loc 1 251 3 is_stmt 1 view .LVU303
 252:u8g2/csrc/u8x8_byte.c ****   uint8_t takeover_edge = u8x8_GetSPIClockPhase(u8x8);
 1423              		.loc 1 252 3 view .LVU304
 253:u8g2/csrc/u8x8_byte.c ****   uint8_t not_takeover_edge = 1 - takeover_edge;
 1424              		.loc 1 253 3 view .LVU305
 253:u8g2/csrc/u8x8_byte.c ****   uint8_t not_takeover_edge = 1 - takeover_edge;
 1425              		.loc 1 253 27 is_stmt 0 view .LVU306
 1426 000a 0268     		ldr	r2, [r0]
 1427              	.LVL170:
 253:u8g2/csrc/u8x8_byte.c ****   uint8_t not_takeover_edge = 1 - takeover_edge;
 1428              		.loc 1 253 27 view .LVU307
 1429 000c 177B     		ldrb	r7, [r2, #12]	@ zero_extendqisi2
 253:u8g2/csrc/u8x8_byte.c ****   uint8_t not_takeover_edge = 1 - takeover_edge;
 1430              		.loc 1 253 11 view .LVU308
 1431 000e 07F00107 		and	r7, r7, #1
 1432              	.LVL171:
 254:u8g2/csrc/u8x8_byte.c ****   uint16_t b;
 1433              		.loc 1 254 3 is_stmt 1 view .LVU309
 254:u8g2/csrc/u8x8_byte.c ****   uint16_t b;
 1434              		.loc 1 254 11 is_stmt 0 view .LVU310
 1435 0012 87F00108 		eor	r8, r7, #1
 1436              	.LVL172:
 255:u8g2/csrc/u8x8_byte.c ****   static uint8_t last_dc;
 1437              		.loc 1 255 3 is_stmt 1 view .LVU311
 256:u8g2/csrc/u8x8_byte.c ****  
 1438              		.loc 1 256 3 view .LVU312
 258:u8g2/csrc/u8x8_byte.c ****   {
 1439              		.loc 1 258 3 view .LVU313
 1440 0016 1439     		subs	r1, r1, #20
 1441              	.LVL173:
 258:u8g2/csrc/u8x8_byte.c ****   {
 1442              		.loc 1 258 3 is_stmt 0 view .LVU314
 1443 0018 0C29     		cmp	r1, #12
 1444 001a 74D8     		bhi	.L96
 1445 001c DFE801F0 		tbb	[pc, r1]
 1446              	.LVL174:
 1447              	.L85:
 1448 0020 46       		.byte	(.L89-.L85)/2
 1449 0021 73       		.byte	(.L96-.L85)/2
 1450 0022 73       		.byte	(.L96-.L85)/2
 1451 0023 31       		.byte	(.L88-.L85)/2
 1452 0024 59       		.byte	(.L87-.L85)/2
 1453 0025 66       		.byte	(.L86-.L85)/2
 1454 0026 73       		.byte	(.L96-.L85)/2
 1455 0027 73       		.byte	(.L96-.L85)/2
 1456 0028 73       		.byte	(.L96-.L85)/2
 1457 0029 73       		.byte	(.L96-.L85)/2
 1458 002a 73       		.byte	(.L96-.L85)/2
 1459 002b 73       		.byte	(.L96-.L85)/2
 1460 002c 54       		.byte	(.L84-.L85)/2
 1461 002d 00       		.p2align 1
ARM GAS  C:\Users\behun\AppData\Local\Temp\ccMYhszQ.s 			page 40


 1462              	.L92:
 274:u8g2/csrc/u8x8_byte.c **** 	  b <<= 1;
 1463              		.loc 1 274 6 is_stmt 1 view .LVU315
 1464 002e 0022     		movs	r2, #0
 1465 0030 4121     		movs	r1, #65
 1466 0032 2046     		mov	r0, r4
 1467 0034 FFF7FEFF 		bl	u8x8_gpio_call
 1468              	.LVL175:
 1469              	.L93:
 275:u8g2/csrc/u8x8_byte.c **** 	  
 1470              		.loc 1 275 4 discriminator 2 view .LVU316
 275:u8g2/csrc/u8x8_byte.c **** 	  
 1471              		.loc 1 275 6 is_stmt 0 discriminator 2 view .LVU317
 1472 0038 7600     		lsls	r6, r6, #1
 1473              	.LVL176:
 275:u8g2/csrc/u8x8_byte.c **** 	  
 1474              		.loc 1 275 6 discriminator 2 view .LVU318
 1475 003a B6B2     		uxth	r6, r6
 1476              	.LVL177:
 277:u8g2/csrc/u8x8_byte.c **** 	  u8x8_gpio_Delay(u8x8, U8X8_MSG_DELAY_NANO, u8x8->display_info->sda_setup_time_ns);
 1477              		.loc 1 277 4 is_stmt 1 discriminator 2 view .LVU319
 1478 003c 4246     		mov	r2, r8
 1479 003e 4021     		movs	r1, #64
 1480 0040 2046     		mov	r0, r4
 1481 0042 FFF7FEFF 		bl	u8x8_gpio_call
 1482              	.LVL178:
 278:u8g2/csrc/u8x8_byte.c **** 	  u8x8_gpio_SetSPIClock(u8x8, takeover_edge);
 1483              		.loc 1 278 4 discriminator 2 view .LVU320
 1484 0046 2368     		ldr	r3, [r4]
 1485 0048 9A79     		ldrb	r2, [r3, #6]	@ zero_extendqisi2
 1486 004a 2C21     		movs	r1, #44
 1487 004c 2046     		mov	r0, r4
 1488 004e FFF7FEFF 		bl	u8x8_gpio_call
 1489              	.LVL179:
 279:u8g2/csrc/u8x8_byte.c **** 	  u8x8_gpio_Delay(u8x8, U8X8_MSG_DELAY_NANO, u8x8->display_info->sck_pulse_width_ns);
 1490              		.loc 1 279 4 discriminator 2 view .LVU321
 1491 0052 3A46     		mov	r2, r7
 1492 0054 4021     		movs	r1, #64
 1493 0056 2046     		mov	r0, r4
 1494 0058 FFF7FEFF 		bl	u8x8_gpio_call
 1495              	.LVL180:
 280:u8g2/csrc/u8x8_byte.c **** 	}    
 1496              		.loc 1 280 4 discriminator 2 view .LVU322
 1497 005c 2368     		ldr	r3, [r4]
 1498 005e DA79     		ldrb	r2, [r3, #7]	@ zero_extendqisi2
 1499 0060 2C21     		movs	r1, #44
 1500 0062 2046     		mov	r0, r4
 1501 0064 FFF7FEFF 		bl	u8x8_gpio_call
 1502              	.LVL181:
 269:u8g2/csrc/u8x8_byte.c **** 	{
 1503              		.loc 1 269 22 is_stmt 0 discriminator 2 view .LVU323
 1504 0068 0135     		adds	r5, r5, #1
 1505              	.LVL182:
 269:u8g2/csrc/u8x8_byte.c **** 	{
 1506              		.loc 1 269 22 discriminator 2 view .LVU324
 1507 006a EDB2     		uxtb	r5, r5
 1508              	.LVL183:
ARM GAS  C:\Users\behun\AppData\Local\Temp\ccMYhszQ.s 			page 41


 1509              	.L91:
 269:u8g2/csrc/u8x8_byte.c **** 	{
 1510              		.loc 1 269 2 discriminator 1 view .LVU325
 1511 006c 082D     		cmp	r5, #8
 1512 006e 08D8     		bhi	.L88
 271:u8g2/csrc/u8x8_byte.c **** 	    u8x8_gpio_SetSPIData(u8x8, 1);
 1513              		.loc 1 271 4 is_stmt 1 view .LVU326
 271:u8g2/csrc/u8x8_byte.c **** 	    u8x8_gpio_SetSPIData(u8x8, 1);
 1514              		.loc 1 271 7 is_stmt 0 view .LVU327
 1515 0070 16F4807F 		tst	r6, #256
 1516 0074 DBD0     		beq	.L92
 272:u8g2/csrc/u8x8_byte.c **** 	  else
 1517              		.loc 1 272 6 is_stmt 1 view .LVU328
 1518 0076 0122     		movs	r2, #1
 1519 0078 4121     		movs	r1, #65
 1520 007a 2046     		mov	r0, r4
 1521 007c FFF7FEFF 		bl	u8x8_gpio_call
 1522              	.LVL184:
 1523 0080 DAE7     		b	.L93
 1524              	.LVL185:
 1525              	.L88:
 262:u8g2/csrc/u8x8_byte.c ****       {
 1526              		.loc 1 262 12 is_stmt 0 view .LVU329
 1527 0082 B9F1000F 		cmp	r9, #0
 1528 0086 0ED0     		beq	.L98
 264:u8g2/csrc/u8x8_byte.c **** 	if ( last_dc != 0 )
 1529              		.loc 1 264 2 is_stmt 1 view .LVU330
 264:u8g2/csrc/u8x8_byte.c **** 	if ( last_dc != 0 )
 1530              		.loc 1 264 4 is_stmt 0 view .LVU331
 1531 0088 9AF80060 		ldrb	r6, [r10]	@ zero_extendqisi2
 1532              	.LVL186:
 265:u8g2/csrc/u8x8_byte.c **** 	  b |= 256;
 1533              		.loc 1 265 2 is_stmt 1 view .LVU332
 265:u8g2/csrc/u8x8_byte.c **** 	  b |= 256;
 1534              		.loc 1 265 15 is_stmt 0 view .LVU333
 1535 008c 1F4B     		ldr	r3, .L99
 1536 008e 1B78     		ldrb	r3, [r3]	@ zero_extendqisi2
 265:u8g2/csrc/u8x8_byte.c **** 	  b |= 256;
 1537              		.loc 1 265 5 view .LVU334
 1538 0090 0BB1     		cbz	r3, .L90
 266:u8g2/csrc/u8x8_byte.c **** 	data++;
 1539              		.loc 1 266 4 is_stmt 1 view .LVU335
 266:u8g2/csrc/u8x8_byte.c **** 	data++;
 1540              		.loc 1 266 6 is_stmt 0 view .LVU336
 1541 0092 46F48076 		orr	r6, r6, #256
 1542              	.LVL187:
 1543              	.L90:
 267:u8g2/csrc/u8x8_byte.c **** 	arg_int--;
 1544              		.loc 1 267 2 is_stmt 1 view .LVU337
 267:u8g2/csrc/u8x8_byte.c **** 	arg_int--;
 1545              		.loc 1 267 6 is_stmt 0 view .LVU338
 1546 0096 0AF1010A 		add	r10, r10, #1
 1547              	.LVL188:
 268:u8g2/csrc/u8x8_byte.c **** 	for( i = 0; i < 9; i++ )
 1548              		.loc 1 268 2 is_stmt 1 view .LVU339
 268:u8g2/csrc/u8x8_byte.c **** 	for( i = 0; i < 9; i++ )
 1549              		.loc 1 268 9 is_stmt 0 view .LVU340
ARM GAS  C:\Users\behun\AppData\Local\Temp\ccMYhszQ.s 			page 42


 1550 009a 09F1FF39 		add	r9, r9, #-1
 1551              	.LVL189:
 268:u8g2/csrc/u8x8_byte.c **** 	for( i = 0; i < 9; i++ )
 1552              		.loc 1 268 9 view .LVU341
 1553 009e 5FFA89F9 		uxtb	r9, r9
 1554              	.LVL190:
 269:u8g2/csrc/u8x8_byte.c **** 	{
 1555              		.loc 1 269 2 is_stmt 1 view .LVU342
 269:u8g2/csrc/u8x8_byte.c **** 	{
 1556              		.loc 1 269 9 is_stmt 0 view .LVU343
 1557 00a2 0025     		movs	r5, #0
 269:u8g2/csrc/u8x8_byte.c **** 	{
 1558              		.loc 1 269 2 view .LVU344
 1559 00a4 E2E7     		b	.L91
 1560              	.LVL191:
 1561              	.L98:
 307:u8g2/csrc/u8x8_byte.c **** }
 1562              		.loc 1 307 10 view .LVU345
 1563 00a6 0120     		movs	r0, #1
 1564              	.LVL192:
 1565              	.L83:
 308:u8g2/csrc/u8x8_byte.c **** 
 1566              		.loc 1 308 1 view .LVU346
 1567 00a8 BDE8F087 		pop	{r4, r5, r6, r7, r8, r9, r10, pc}
 1568              	.LVL193:
 1569              	.L89:
 287:u8g2/csrc/u8x8_byte.c ****       /* no wait required here */
 1570              		.loc 1 287 7 is_stmt 1 view .LVU347
 1571 00ac 5278     		ldrb	r2, [r2, #1]	@ zero_extendqisi2
 1572 00ae 4921     		movs	r1, #73
 1573 00b0 FFF7FEFF 		bl	u8x8_gpio_call
 1574              	.LVL194:
 291:u8g2/csrc/u8x8_byte.c ****       break;
 1575              		.loc 1 291 7 view .LVU348
 1576 00b4 2368     		ldr	r3, [r4]
 1577 00b6 1A7B     		ldrb	r2, [r3, #12]	@ zero_extendqisi2
 1578 00b8 02F00102 		and	r2, r2, #1
 1579 00bc 4021     		movs	r1, #64
 1580 00be 2046     		mov	r0, r4
 1581 00c0 FFF7FEFF 		bl	u8x8_gpio_call
 1582              	.LVL195:
 292:u8g2/csrc/u8x8_byte.c ****     case U8X8_MSG_BYTE_SET_DC:
 1583              		.loc 1 292 7 view .LVU349
 307:u8g2/csrc/u8x8_byte.c **** }
 1584              		.loc 1 307 10 is_stmt 0 view .LVU350
 1585 00c4 0120     		movs	r0, #1
 292:u8g2/csrc/u8x8_byte.c ****     case U8X8_MSG_BYTE_SET_DC:
 1586              		.loc 1 292 7 view .LVU351
 1587 00c6 EFE7     		b	.L83
 1588              	.LVL196:
 1589              	.L84:
 294:u8g2/csrc/u8x8_byte.c ****       break;
 1590              		.loc 1 294 7 is_stmt 1 view .LVU352
 294:u8g2/csrc/u8x8_byte.c ****       break;
 1591              		.loc 1 294 15 is_stmt 0 view .LVU353
 1592 00c8 104B     		ldr	r3, .L99
 1593 00ca 83F80090 		strb	r9, [r3]
ARM GAS  C:\Users\behun\AppData\Local\Temp\ccMYhszQ.s 			page 43


 295:u8g2/csrc/u8x8_byte.c ****     case U8X8_MSG_BYTE_START_TRANSFER:
 1594              		.loc 1 295 7 is_stmt 1 view .LVU354
 307:u8g2/csrc/u8x8_byte.c **** }
 1595              		.loc 1 307 10 is_stmt 0 view .LVU355
 1596 00ce 0120     		movs	r0, #1
 1597              	.LVL197:
 295:u8g2/csrc/u8x8_byte.c ****     case U8X8_MSG_BYTE_START_TRANSFER:
 1598              		.loc 1 295 7 view .LVU356
 1599 00d0 EAE7     		b	.L83
 1600              	.LVL198:
 1601              	.L87:
 297:u8g2/csrc/u8x8_byte.c ****       u8x8->gpio_and_delay_cb(u8x8, U8X8_MSG_DELAY_NANO, u8x8->display_info->post_chip_enable_wait_
 1602              		.loc 1 297 7 is_stmt 1 view .LVU357
 1603 00d2 1278     		ldrb	r2, [r2]	@ zero_extendqisi2
 1604 00d4 4921     		movs	r1, #73
 1605 00d6 FFF7FEFF 		bl	u8x8_gpio_call
 1606              	.LVL199:
 298:u8g2/csrc/u8x8_byte.c ****       break;
 1607              		.loc 1 298 7 view .LVU358
 298:u8g2/csrc/u8x8_byte.c ****       break;
 1608              		.loc 1 298 11 is_stmt 0 view .LVU359
 1609 00da 6569     		ldr	r5, [r4, #20]
 298:u8g2/csrc/u8x8_byte.c ****       break;
 1610              		.loc 1 298 62 view .LVU360
 1611 00dc 2268     		ldr	r2, [r4]
 298:u8g2/csrc/u8x8_byte.c ****       break;
 1612              		.loc 1 298 7 view .LVU361
 1613 00de 0023     		movs	r3, #0
 1614 00e0 9278     		ldrb	r2, [r2, #2]	@ zero_extendqisi2
 1615 00e2 2C21     		movs	r1, #44
 1616 00e4 2046     		mov	r0, r4
 1617 00e6 A847     		blx	r5
 1618              	.LVL200:
 299:u8g2/csrc/u8x8_byte.c ****     case U8X8_MSG_BYTE_END_TRANSFER:
 1619              		.loc 1 299 7 is_stmt 1 view .LVU362
 307:u8g2/csrc/u8x8_byte.c **** }
 1620              		.loc 1 307 10 is_stmt 0 view .LVU363
 1621 00e8 0120     		movs	r0, #1
 299:u8g2/csrc/u8x8_byte.c ****     case U8X8_MSG_BYTE_END_TRANSFER:
 1622              		.loc 1 299 7 view .LVU364
 1623 00ea DDE7     		b	.L83
 1624              	.LVL201:
 1625              	.L86:
 301:u8g2/csrc/u8x8_byte.c ****       u8x8_gpio_SetCS(u8x8, u8x8->display_info->chip_disable_level);
 1626              		.loc 1 301 7 is_stmt 1 view .LVU365
 301:u8g2/csrc/u8x8_byte.c ****       u8x8_gpio_SetCS(u8x8, u8x8->display_info->chip_disable_level);
 1627              		.loc 1 301 11 is_stmt 0 view .LVU366
 1628 00ec 4569     		ldr	r5, [r0, #20]
 301:u8g2/csrc/u8x8_byte.c ****       u8x8_gpio_SetCS(u8x8, u8x8->display_info->chip_disable_level);
 1629              		.loc 1 301 7 view .LVU367
 1630 00ee 0023     		movs	r3, #0
 1631 00f0 D278     		ldrb	r2, [r2, #3]	@ zero_extendqisi2
 1632 00f2 2C21     		movs	r1, #44
 1633 00f4 A847     		blx	r5
 1634              	.LVL202:
 302:u8g2/csrc/u8x8_byte.c ****       break;
 1635              		.loc 1 302 7 is_stmt 1 view .LVU368
ARM GAS  C:\Users\behun\AppData\Local\Temp\ccMYhszQ.s 			page 44


 1636 00f6 2368     		ldr	r3, [r4]
 1637 00f8 5A78     		ldrb	r2, [r3, #1]	@ zero_extendqisi2
 1638 00fa 4921     		movs	r1, #73
 1639 00fc 2046     		mov	r0, r4
 1640 00fe FFF7FEFF 		bl	u8x8_gpio_call
 1641              	.LVL203:
 303:u8g2/csrc/u8x8_byte.c ****     default:
 1642              		.loc 1 303 7 view .LVU369
 307:u8g2/csrc/u8x8_byte.c **** }
 1643              		.loc 1 307 10 is_stmt 0 view .LVU370
 1644 0102 0120     		movs	r0, #1
 303:u8g2/csrc/u8x8_byte.c ****     default:
 1645              		.loc 1 303 7 view .LVU371
 1646 0104 D0E7     		b	.L83
 1647              	.LVL204:
 1648              	.L96:
 305:u8g2/csrc/u8x8_byte.c ****   }
 1649              		.loc 1 305 14 view .LVU372
 1650 0106 0020     		movs	r0, #0
 1651              	.LVL205:
 305:u8g2/csrc/u8x8_byte.c ****   }
 1652              		.loc 1 305 14 view .LVU373
 1653 0108 CEE7     		b	.L83
 1654              	.L100:
 1655 010a 00BF     		.align	2
 1656              	.L99:
 1657 010c 00000000 		.word	.LANCHOR0
 1658              		.cfi_endproc
 1659              	.LFE8:
 1661              		.section	.text.u8x8_byte_set_ks0108_cs,"ax",%progbits
 1662              		.align	1
 1663              		.global	u8x8_byte_set_ks0108_cs
 1664              		.syntax unified
 1665              		.thumb
 1666              		.thumb_func
 1667              		.fpu softvfp
 1669              	u8x8_byte_set_ks0108_cs:
 1670              	.LVL206:
 1671              	.LFB9:
 313:u8g2/csrc/u8x8_byte.c ****   u8x8_gpio_SetCS(u8x8, arg&1);
 1672              		.loc 1 313 1 is_stmt 1 view -0
 1673              		.cfi_startproc
 1674              		@ args = 0, pretend = 0, frame = 0
 1675              		@ frame_needed = 0, uses_anonymous_args = 0
 313:u8g2/csrc/u8x8_byte.c ****   u8x8_gpio_SetCS(u8x8, arg&1);
 1676              		.loc 1 313 1 is_stmt 0 view .LVU375
 1677 0000 38B5     		push	{r3, r4, r5, lr}
 1678              	.LCFI22:
 1679              		.cfi_def_cfa_offset 16
 1680              		.cfi_offset 3, -16
 1681              		.cfi_offset 4, -12
 1682              		.cfi_offset 5, -8
 1683              		.cfi_offset 14, -4
 1684 0002 0546     		mov	r5, r0
 1685 0004 0C46     		mov	r4, r1
 314:u8g2/csrc/u8x8_byte.c ****   arg = arg >> 1;
 1686              		.loc 1 314 3 is_stmt 1 view .LVU376
ARM GAS  C:\Users\behun\AppData\Local\Temp\ccMYhszQ.s 			page 45


 1687 0006 01F00102 		and	r2, r1, #1
 1688 000a 4921     		movs	r1, #73
 1689              	.LVL207:
 314:u8g2/csrc/u8x8_byte.c ****   arg = arg >> 1;
 1690              		.loc 1 314 3 is_stmt 0 view .LVU377
 1691 000c FFF7FEFF 		bl	u8x8_gpio_call
 1692              	.LVL208:
 315:u8g2/csrc/u8x8_byte.c ****   u8x8_gpio_call(u8x8, U8X8_MSG_GPIO_CS1, arg&1);
 1693              		.loc 1 315 3 is_stmt 1 view .LVU378
 316:u8g2/csrc/u8x8_byte.c ****   arg = arg >> 2;
 1694              		.loc 1 316 3 view .LVU379
 1695 0010 C4F34002 		ubfx	r2, r4, #1, #1
 1696 0014 4E21     		movs	r1, #78
 1697 0016 2846     		mov	r0, r5
 1698 0018 FFF7FEFF 		bl	u8x8_gpio_call
 1699              	.LVL209:
 317:u8g2/csrc/u8x8_byte.c ****   u8x8_gpio_call(u8x8, U8X8_MSG_GPIO_CS2, arg&1);
 1700              		.loc 1 317 3 view .LVU380
 318:u8g2/csrc/u8x8_byte.c **** }
 1701              		.loc 1 318 3 view .LVU381
 1702 001c C4F3C002 		ubfx	r2, r4, #3, #1
 1703 0020 4F21     		movs	r1, #79
 1704 0022 2846     		mov	r0, r5
 1705 0024 FFF7FEFF 		bl	u8x8_gpio_call
 1706              	.LVL210:
 319:u8g2/csrc/u8x8_byte.c **** 
 1707              		.loc 1 319 1 is_stmt 0 view .LVU382
 1708 0028 38BD     		pop	{r3, r4, r5, pc}
 319:u8g2/csrc/u8x8_byte.c **** 
 1709              		.loc 1 319 1 view .LVU383
 1710              		.cfi_endproc
 1711              	.LFE9:
 1713              		.section	.text.u8x8_byte_ks0108,"ax",%progbits
 1714              		.align	1
 1715              		.global	u8x8_byte_ks0108
 1716              		.syntax unified
 1717              		.thumb
 1718              		.thumb_func
 1719              		.fpu softvfp
 1721              	u8x8_byte_ks0108:
 1722              	.LVL211:
 1723              	.LFB10:
 323:u8g2/csrc/u8x8_byte.c ****   uint8_t i, b;
 1724              		.loc 1 323 1 is_stmt 1 view -0
 1725              		.cfi_startproc
 1726              		@ args = 0, pretend = 0, frame = 0
 1727              		@ frame_needed = 0, uses_anonymous_args = 0
 323:u8g2/csrc/u8x8_byte.c ****   uint8_t i, b;
 1728              		.loc 1 323 1 is_stmt 0 view .LVU385
 1729 0000 2DE9F041 		push	{r4, r5, r6, r7, r8, lr}
 1730              	.LCFI23:
 1731              		.cfi_def_cfa_offset 24
 1732              		.cfi_offset 4, -24
 1733              		.cfi_offset 5, -20
 1734              		.cfi_offset 6, -16
 1735              		.cfi_offset 7, -12
 1736              		.cfi_offset 8, -8
ARM GAS  C:\Users\behun\AppData\Local\Temp\ccMYhszQ.s 			page 46


 1737              		.cfi_offset 14, -4
 1738 0004 0646     		mov	r6, r0
 1739 0006 1746     		mov	r7, r2
 1740 0008 9846     		mov	r8, r3
 324:u8g2/csrc/u8x8_byte.c ****   uint8_t *data;
 1741              		.loc 1 324 3 is_stmt 1 view .LVU386
 325:u8g2/csrc/u8x8_byte.c ****  
 1742              		.loc 1 325 3 view .LVU387
 327:u8g2/csrc/u8x8_byte.c ****   {
 1743              		.loc 1 327 3 view .LVU388
 1744 000a 1439     		subs	r1, r1, #20
 1745              	.LVL212:
 327:u8g2/csrc/u8x8_byte.c ****   {
 1746              		.loc 1 327 3 is_stmt 0 view .LVU389
 1747 000c 0C29     		cmp	r1, #12
 1748 000e 5CD8     		bhi	.L114
 1749 0010 DFE801F0 		tbb	[pc, r1]
 1750              	.LVL213:
 1751              	.L106:
 1752 0014 32       		.byte	(.L110-.L106)/2
 1753 0015 5B       		.byte	(.L114-.L106)/2
 1754 0016 5B       		.byte	(.L114-.L106)/2
 1755 0017 28       		.byte	(.L109-.L106)/2
 1756 0018 43       		.byte	(.L108-.L106)/2
 1757 0019 4F       		.byte	(.L107-.L106)/2
 1758 001a 5B       		.byte	(.L114-.L106)/2
 1759 001b 5B       		.byte	(.L114-.L106)/2
 1760 001c 5B       		.byte	(.L114-.L106)/2
 1761 001d 5B       		.byte	(.L114-.L106)/2
 1762 001e 5B       		.byte	(.L114-.L106)/2
 1763 001f 5B       		.byte	(.L114-.L106)/2
 1764 0020 3E       		.byte	(.L105-.L106)/2
 1765 0021 00       		.p2align 1
 1766              	.L112:
 338:u8g2/csrc/u8x8_byte.c **** 	  b >>= 1;
 1767              		.loc 1 338 4 is_stmt 1 discriminator 3 view .LVU390
 1768 0022 05F00102 		and	r2, r5, #1
 1769 0026 2146     		mov	r1, r4
 1770 0028 3046     		mov	r0, r6
 1771 002a FFF7FEFF 		bl	u8x8_gpio_call
 1772              	.LVL214:
 339:u8g2/csrc/u8x8_byte.c **** 	}    
 1773              		.loc 1 339 4 discriminator 3 view .LVU391
 339:u8g2/csrc/u8x8_byte.c **** 	}    
 1774              		.loc 1 339 6 is_stmt 0 discriminator 3 view .LVU392
 1775 002e 6D08     		lsrs	r5, r5, #1
 1776              	.LVL215:
 336:u8g2/csrc/u8x8_byte.c **** 	{
 1777              		.loc 1 336 53 discriminator 3 view .LVU393
 1778 0030 0134     		adds	r4, r4, #1
 1779              	.LVL216:
 336:u8g2/csrc/u8x8_byte.c **** 	{
 1780              		.loc 1 336 53 discriminator 3 view .LVU394
 1781 0032 E4B2     		uxtb	r4, r4
 1782              	.LVL217:
 1783              	.L111:
 336:u8g2/csrc/u8x8_byte.c **** 	{
ARM GAS  C:\Users\behun\AppData\Local\Temp\ccMYhszQ.s 			page 47


 1784              		.loc 1 336 2 discriminator 1 view .LVU395
 1785 0034 472C     		cmp	r4, #71
 1786 0036 F4D9     		bls	.L112
 342:u8g2/csrc/u8x8_byte.c **** 	u8x8_gpio_call(u8x8, U8X8_MSG_GPIO_E, 1);
 1787              		.loc 1 342 2 is_stmt 1 view .LVU396
 1788 0038 3368     		ldr	r3, [r6]
 1789 003a 9A7B     		ldrb	r2, [r3, #14]	@ zero_extendqisi2
 1790 003c 2C21     		movs	r1, #44
 1791 003e 3046     		mov	r0, r6
 1792 0040 FFF7FEFF 		bl	u8x8_gpio_call
 1793              	.LVL218:
 343:u8g2/csrc/u8x8_byte.c **** 	u8x8_gpio_Delay(u8x8, U8X8_MSG_DELAY_NANO, u8x8->display_info->write_pulse_width_ns);
 1794              		.loc 1 343 2 view .LVU397
 1795 0044 0122     		movs	r2, #1
 1796 0046 4821     		movs	r1, #72
 1797 0048 3046     		mov	r0, r6
 1798 004a FFF7FEFF 		bl	u8x8_gpio_call
 1799              	.LVL219:
 344:u8g2/csrc/u8x8_byte.c **** 	u8x8_gpio_call(u8x8, U8X8_MSG_GPIO_E, 0);
 1800              		.loc 1 344 2 view .LVU398
 1801 004e 3368     		ldr	r3, [r6]
 1802 0050 DA7B     		ldrb	r2, [r3, #15]	@ zero_extendqisi2
 1803 0052 2C21     		movs	r1, #44
 1804 0054 3046     		mov	r0, r6
 1805 0056 FFF7FEFF 		bl	u8x8_gpio_call
 1806              	.LVL220:
 345:u8g2/csrc/u8x8_byte.c ****       }
 1807              		.loc 1 345 2 view .LVU399
 1808 005a 0022     		movs	r2, #0
 1809 005c 4821     		movs	r1, #72
 1810 005e 3046     		mov	r0, r6
 1811 0060 FFF7FEFF 		bl	u8x8_gpio_call
 1812              	.LVL221:
 1813              	.L109:
 331:u8g2/csrc/u8x8_byte.c ****       {
 1814              		.loc 1 331 12 is_stmt 0 view .LVU400
 1815 0064 2FB1     		cbz	r7, .L116
 333:u8g2/csrc/u8x8_byte.c **** 	data++;
 1816              		.loc 1 333 2 is_stmt 1 view .LVU401
 333:u8g2/csrc/u8x8_byte.c **** 	data++;
 1817              		.loc 1 333 4 is_stmt 0 view .LVU402
 1818 0066 18F8015B 		ldrb	r5, [r8], #1	@ zero_extendqisi2
 1819              	.LVL222:
 334:u8g2/csrc/u8x8_byte.c **** 	arg_int--;
 1820              		.loc 1 334 2 is_stmt 1 view .LVU403
 335:u8g2/csrc/u8x8_byte.c **** 	for( i = U8X8_MSG_GPIO_D0; i <= U8X8_MSG_GPIO_D7; i++ )
 1821              		.loc 1 335 2 view .LVU404
 335:u8g2/csrc/u8x8_byte.c **** 	for( i = U8X8_MSG_GPIO_D0; i <= U8X8_MSG_GPIO_D7; i++ )
 1822              		.loc 1 335 9 is_stmt 0 view .LVU405
 1823 006a 013F     		subs	r7, r7, #1
 1824              	.LVL223:
 335:u8g2/csrc/u8x8_byte.c **** 	for( i = U8X8_MSG_GPIO_D0; i <= U8X8_MSG_GPIO_D7; i++ )
 1825              		.loc 1 335 9 view .LVU406
 1826 006c FFB2     		uxtb	r7, r7
 1827              	.LVL224:
 336:u8g2/csrc/u8x8_byte.c **** 	{
 1828              		.loc 1 336 2 is_stmt 1 view .LVU407
ARM GAS  C:\Users\behun\AppData\Local\Temp\ccMYhszQ.s 			page 48


 336:u8g2/csrc/u8x8_byte.c **** 	{
 1829              		.loc 1 336 9 is_stmt 0 view .LVU408
 1830 006e 4024     		movs	r4, #64
 336:u8g2/csrc/u8x8_byte.c **** 	{
 1831              		.loc 1 336 2 view .LVU409
 1832 0070 E0E7     		b	.L111
 1833              	.LVL225:
 1834              	.L116:
 370:u8g2/csrc/u8x8_byte.c **** }
 1835              		.loc 1 370 10 view .LVU410
 1836 0072 0120     		movs	r0, #1
 1837              	.LVL226:
 1838              	.L104:
 371:u8g2/csrc/u8x8_byte.c **** 
 1839              		.loc 1 371 1 view .LVU411
 1840 0074 BDE8F081 		pop	{r4, r5, r6, r7, r8, pc}
 1841              	.LVL227:
 1842              	.L110:
 351:u8g2/csrc/u8x8_byte.c ****       /* ensure that the enable signal is low */
 1843              		.loc 1 351 7 is_stmt 1 view .LVU412
 1844 0078 0368     		ldr	r3, [r0]
 1845 007a 5A78     		ldrb	r2, [r3, #1]	@ zero_extendqisi2
 1846              	.LVL228:
 351:u8g2/csrc/u8x8_byte.c ****       /* ensure that the enable signal is low */
 1847              		.loc 1 351 7 is_stmt 0 view .LVU413
 1848 007c 4921     		movs	r1, #73
 1849 007e FFF7FEFF 		bl	u8x8_gpio_call
 1850              	.LVL229:
 353:u8g2/csrc/u8x8_byte.c ****       break;
 1851              		.loc 1 353 7 is_stmt 1 view .LVU414
 1852 0082 0022     		movs	r2, #0
 1853 0084 4821     		movs	r1, #72
 1854 0086 3046     		mov	r0, r6
 1855 0088 FFF7FEFF 		bl	u8x8_gpio_call
 1856              	.LVL230:
 354:u8g2/csrc/u8x8_byte.c ****     case U8X8_MSG_BYTE_SET_DC:
 1857              		.loc 1 354 7 view .LVU415
 370:u8g2/csrc/u8x8_byte.c **** }
 1858              		.loc 1 370 10 is_stmt 0 view .LVU416
 1859 008c 0120     		movs	r0, #1
 354:u8g2/csrc/u8x8_byte.c ****     case U8X8_MSG_BYTE_SET_DC:
 1860              		.loc 1 354 7 view .LVU417
 1861 008e F1E7     		b	.L104
 1862              	.LVL231:
 1863              	.L105:
 356:u8g2/csrc/u8x8_byte.c ****       break;
 1864              		.loc 1 356 7 is_stmt 1 view .LVU418
 1865 0090 4A21     		movs	r1, #74
 1866 0092 FFF7FEFF 		bl	u8x8_gpio_call
 1867              	.LVL232:
 357:u8g2/csrc/u8x8_byte.c ****     case U8X8_MSG_BYTE_START_TRANSFER:
 1868              		.loc 1 357 7 view .LVU419
 370:u8g2/csrc/u8x8_byte.c **** }
 1869              		.loc 1 370 10 is_stmt 0 view .LVU420
 1870 0096 0120     		movs	r0, #1
 357:u8g2/csrc/u8x8_byte.c ****     case U8X8_MSG_BYTE_START_TRANSFER:
 1871              		.loc 1 357 7 view .LVU421
ARM GAS  C:\Users\behun\AppData\Local\Temp\ccMYhszQ.s 			page 49


 1872 0098 ECE7     		b	.L104
 1873              	.LVL233:
 1874              	.L108:
 360:u8g2/csrc/u8x8_byte.c ****       u8x8->gpio_and_delay_cb(u8x8, U8X8_MSG_DELAY_NANO, u8x8->display_info->post_chip_enable_wait_
 1875              		.loc 1 360 7 is_stmt 1 view .LVU422
 1876 009a 1146     		mov	r1, r2
 1877 009c FFF7FEFF 		bl	u8x8_byte_set_ks0108_cs
 1878              	.LVL234:
 361:u8g2/csrc/u8x8_byte.c ****       break;
 1879              		.loc 1 361 7 view .LVU423
 361:u8g2/csrc/u8x8_byte.c ****       break;
 1880              		.loc 1 361 11 is_stmt 0 view .LVU424
 1881 00a0 7469     		ldr	r4, [r6, #20]
 361:u8g2/csrc/u8x8_byte.c ****       break;
 1882              		.loc 1 361 62 view .LVU425
 1883 00a2 3268     		ldr	r2, [r6]
 361:u8g2/csrc/u8x8_byte.c ****       break;
 1884              		.loc 1 361 7 view .LVU426
 1885 00a4 0023     		movs	r3, #0
 1886 00a6 9278     		ldrb	r2, [r2, #2]	@ zero_extendqisi2
 1887 00a8 2C21     		movs	r1, #44
 1888 00aa 3046     		mov	r0, r6
 1889 00ac A047     		blx	r4
 1890              	.LVL235:
 362:u8g2/csrc/u8x8_byte.c ****     case U8X8_MSG_BYTE_END_TRANSFER:
 1891              		.loc 1 362 7 is_stmt 1 view .LVU427
 370:u8g2/csrc/u8x8_byte.c **** }
 1892              		.loc 1 370 10 is_stmt 0 view .LVU428
 1893 00ae 0120     		movs	r0, #1
 362:u8g2/csrc/u8x8_byte.c ****     case U8X8_MSG_BYTE_END_TRANSFER:
 1894              		.loc 1 362 7 view .LVU429
 1895 00b0 E0E7     		b	.L104
 1896              	.LVL236:
 1897              	.L107:
 364:u8g2/csrc/u8x8_byte.c ****       u8x8_byte_set_ks0108_cs(u8x8, arg_int);
 1898              		.loc 1 364 7 is_stmt 1 view .LVU430
 364:u8g2/csrc/u8x8_byte.c ****       u8x8_byte_set_ks0108_cs(u8x8, arg_int);
 1899              		.loc 1 364 11 is_stmt 0 view .LVU431
 1900 00b2 4469     		ldr	r4, [r0, #20]
 364:u8g2/csrc/u8x8_byte.c ****       u8x8_byte_set_ks0108_cs(u8x8, arg_int);
 1901              		.loc 1 364 62 view .LVU432
 1902 00b4 0268     		ldr	r2, [r0]
 1903              	.LVL237:
 364:u8g2/csrc/u8x8_byte.c ****       u8x8_byte_set_ks0108_cs(u8x8, arg_int);
 1904              		.loc 1 364 7 view .LVU433
 1905 00b6 0023     		movs	r3, #0
 1906 00b8 D278     		ldrb	r2, [r2, #3]	@ zero_extendqisi2
 1907 00ba 2C21     		movs	r1, #44
 1908 00bc A047     		blx	r4
 1909              	.LVL238:
 365:u8g2/csrc/u8x8_byte.c ****       break;
 1910              		.loc 1 365 7 is_stmt 1 view .LVU434
 1911 00be 3946     		mov	r1, r7
 1912 00c0 3046     		mov	r0, r6
 1913 00c2 FFF7FEFF 		bl	u8x8_byte_set_ks0108_cs
 1914              	.LVL239:
 366:u8g2/csrc/u8x8_byte.c ****     default:
ARM GAS  C:\Users\behun\AppData\Local\Temp\ccMYhszQ.s 			page 50


 1915              		.loc 1 366 7 view .LVU435
 370:u8g2/csrc/u8x8_byte.c **** }
 1916              		.loc 1 370 10 is_stmt 0 view .LVU436
 1917 00c6 0120     		movs	r0, #1
 366:u8g2/csrc/u8x8_byte.c ****     default:
 1918              		.loc 1 366 7 view .LVU437
 1919 00c8 D4E7     		b	.L104
 1920              	.LVL240:
 1921              	.L114:
 368:u8g2/csrc/u8x8_byte.c ****   }
 1922              		.loc 1 368 14 view .LVU438
 1923 00ca 0020     		movs	r0, #0
 1924              	.LVL241:
 368:u8g2/csrc/u8x8_byte.c ****   }
 1925              		.loc 1 368 14 view .LVU439
 1926 00cc D2E7     		b	.L104
 1927              		.cfi_endproc
 1928              	.LFE10:
 1930              		.section	.text.u8x8_byte_sed1520,"ax",%progbits
 1931              		.align	1
 1932              		.global	u8x8_byte_sed1520
 1933              		.syntax unified
 1934              		.thumb
 1935              		.thumb_func
 1936              		.fpu softvfp
 1938              	u8x8_byte_sed1520:
 1939              	.LVL242:
 1940              	.LFB11:
 379:u8g2/csrc/u8x8_byte.c ****   uint8_t i, b;
 1941              		.loc 1 379 1 is_stmt 1 view -0
 1942              		.cfi_startproc
 1943              		@ args = 0, pretend = 0, frame = 0
 1944              		@ frame_needed = 0, uses_anonymous_args = 0
 379:u8g2/csrc/u8x8_byte.c ****   uint8_t i, b;
 1945              		.loc 1 379 1 is_stmt 0 view .LVU441
 1946 0000 2DE9F041 		push	{r4, r5, r6, r7, r8, lr}
 1947              	.LCFI24:
 1948              		.cfi_def_cfa_offset 24
 1949              		.cfi_offset 4, -24
 1950              		.cfi_offset 5, -20
 1951              		.cfi_offset 6, -16
 1952              		.cfi_offset 7, -12
 1953              		.cfi_offset 8, -8
 1954              		.cfi_offset 14, -4
 1955 0004 0646     		mov	r6, r0
 1956 0006 1746     		mov	r7, r2
 1957 0008 9846     		mov	r8, r3
 380:u8g2/csrc/u8x8_byte.c ****   uint8_t *data;
 1958              		.loc 1 380 3 is_stmt 1 view .LVU442
 381:u8g2/csrc/u8x8_byte.c ****   static uint8_t enable_pin;
 1959              		.loc 1 381 3 view .LVU443
 382:u8g2/csrc/u8x8_byte.c ****  
 1960              		.loc 1 382 3 view .LVU444
 384:u8g2/csrc/u8x8_byte.c ****   {
 1961              		.loc 1 384 3 view .LVU445
 1962 000a 1439     		subs	r1, r1, #20
 1963              	.LVL243:
ARM GAS  C:\Users\behun\AppData\Local\Temp\ccMYhszQ.s 			page 51


 384:u8g2/csrc/u8x8_byte.c ****   {
 1964              		.loc 1 384 3 is_stmt 0 view .LVU446
 1965 000c 0C29     		cmp	r1, #12
 1966 000e 08D8     		bhi	.L118
 1967 0010 DFE801F0 		tbb	[pc, r1]
 1968              	.LVL244:
 1969              	.L120:
 1970 0014 34       		.byte	(.L124-.L120)/2
 1971 0015 07       		.byte	(.L118-.L120)/2
 1972 0016 07       		.byte	(.L118-.L120)/2
 1973 0017 2B       		.byte	(.L123-.L120)/2
 1974 0018 4D       		.byte	(.L122-.L120)/2
 1975 0019 55       		.byte	(.L128-.L120)/2
 1976 001a 07       		.byte	(.L118-.L120)/2
 1977 001b 07       		.byte	(.L118-.L120)/2
 1978 001c 07       		.byte	(.L118-.L120)/2
 1979 001d 07       		.byte	(.L118-.L120)/2
 1980 001e 07       		.byte	(.L118-.L120)/2
 1981 001f 07       		.byte	(.L118-.L120)/2
 1982 0020 48       		.byte	(.L119-.L120)/2
 1983 0021 00       		.p2align 1
 1984              	.L118:
 427:u8g2/csrc/u8x8_byte.c ****   }
 1985              		.loc 1 427 14 view .LVU447
 1986 0022 0020     		movs	r0, #0
 1987              	.LVL245:
 427:u8g2/csrc/u8x8_byte.c ****   }
 1988              		.loc 1 427 14 view .LVU448
 1989 0024 4CE0     		b	.L121
 1990              	.LVL246:
 1991              	.L126:
 395:u8g2/csrc/u8x8_byte.c **** 	  b >>= 1;
 1992              		.loc 1 395 4 is_stmt 1 discriminator 3 view .LVU449
 1993 0026 05F00102 		and	r2, r5, #1
 1994 002a 2146     		mov	r1, r4
 1995 002c 3046     		mov	r0, r6
 1996 002e FFF7FEFF 		bl	u8x8_gpio_call
 1997              	.LVL247:
 396:u8g2/csrc/u8x8_byte.c **** 	}    
 1998              		.loc 1 396 4 discriminator 3 view .LVU450
 396:u8g2/csrc/u8x8_byte.c **** 	}    
 1999              		.loc 1 396 6 is_stmt 0 discriminator 3 view .LVU451
 2000 0032 6D08     		lsrs	r5, r5, #1
 2001              	.LVL248:
 393:u8g2/csrc/u8x8_byte.c **** 	{
 2002              		.loc 1 393 53 discriminator 3 view .LVU452
 2003 0034 0134     		adds	r4, r4, #1
 2004              	.LVL249:
 393:u8g2/csrc/u8x8_byte.c **** 	{
 2005              		.loc 1 393 53 discriminator 3 view .LVU453
 2006 0036 E4B2     		uxtb	r4, r4
 2007              	.LVL250:
 2008              	.L125:
 393:u8g2/csrc/u8x8_byte.c **** 	{
 2009              		.loc 1 393 2 discriminator 1 view .LVU454
 2010 0038 472C     		cmp	r4, #71
 2011 003a F4D9     		bls	.L126
ARM GAS  C:\Users\behun\AppData\Local\Temp\ccMYhszQ.s 			page 52


 399:u8g2/csrc/u8x8_byte.c **** 	u8x8_gpio_call(u8x8, enable_pin, 1);
 2012              		.loc 1 399 2 is_stmt 1 view .LVU455
 2013 003c 3368     		ldr	r3, [r6]
 2014 003e 9A7B     		ldrb	r2, [r3, #14]	@ zero_extendqisi2
 2015 0040 2C21     		movs	r1, #44
 2016 0042 3046     		mov	r0, r6
 2017 0044 FFF7FEFF 		bl	u8x8_gpio_call
 2018              	.LVL251:
 400:u8g2/csrc/u8x8_byte.c **** 	u8x8_gpio_Delay(u8x8, U8X8_MSG_DELAY_NANO, u8x8->display_info->write_pulse_width_ns);
 2019              		.loc 1 400 2 view .LVU456
 2020 0048 1F4C     		ldr	r4, .L132
 2021              	.LVL252:
 400:u8g2/csrc/u8x8_byte.c **** 	u8x8_gpio_Delay(u8x8, U8X8_MSG_DELAY_NANO, u8x8->display_info->write_pulse_width_ns);
 2022              		.loc 1 400 2 is_stmt 0 view .LVU457
 2023 004a 0122     		movs	r2, #1
 2024 004c 2178     		ldrb	r1, [r4]	@ zero_extendqisi2
 2025 004e 3046     		mov	r0, r6
 2026 0050 FFF7FEFF 		bl	u8x8_gpio_call
 2027              	.LVL253:
 401:u8g2/csrc/u8x8_byte.c **** 	u8x8_gpio_call(u8x8, enable_pin, 0);
 2028              		.loc 1 401 2 is_stmt 1 view .LVU458
 2029 0054 3368     		ldr	r3, [r6]
 2030 0056 DA7B     		ldrb	r2, [r3, #15]	@ zero_extendqisi2
 2031 0058 2C21     		movs	r1, #44
 2032 005a 3046     		mov	r0, r6
 2033 005c FFF7FEFF 		bl	u8x8_gpio_call
 2034              	.LVL254:
 402:u8g2/csrc/u8x8_byte.c ****       }
 2035              		.loc 1 402 2 view .LVU459
 2036 0060 0022     		movs	r2, #0
 2037 0062 2178     		ldrb	r1, [r4]	@ zero_extendqisi2
 2038 0064 3046     		mov	r0, r6
 2039 0066 FFF7FEFF 		bl	u8x8_gpio_call
 2040              	.LVL255:
 2041              	.L123:
 388:u8g2/csrc/u8x8_byte.c ****       {
 2042              		.loc 1 388 12 is_stmt 0 view .LVU460
 2043 006a 2FB1     		cbz	r7, .L131
 390:u8g2/csrc/u8x8_byte.c **** 	data++;
 2044              		.loc 1 390 2 is_stmt 1 view .LVU461
 390:u8g2/csrc/u8x8_byte.c **** 	data++;
 2045              		.loc 1 390 4 is_stmt 0 view .LVU462
 2046 006c 18F8015B 		ldrb	r5, [r8], #1	@ zero_extendqisi2
 2047              	.LVL256:
 391:u8g2/csrc/u8x8_byte.c **** 	arg_int--;
 2048              		.loc 1 391 2 is_stmt 1 view .LVU463
 392:u8g2/csrc/u8x8_byte.c **** 	for( i = U8X8_MSG_GPIO_D0; i <= U8X8_MSG_GPIO_D7; i++ )
 2049              		.loc 1 392 2 view .LVU464
 392:u8g2/csrc/u8x8_byte.c **** 	for( i = U8X8_MSG_GPIO_D0; i <= U8X8_MSG_GPIO_D7; i++ )
 2050              		.loc 1 392 9 is_stmt 0 view .LVU465
 2051 0070 013F     		subs	r7, r7, #1
 2052              	.LVL257:
 392:u8g2/csrc/u8x8_byte.c **** 	for( i = U8X8_MSG_GPIO_D0; i <= U8X8_MSG_GPIO_D7; i++ )
 2053              		.loc 1 392 9 view .LVU466
 2054 0072 FFB2     		uxtb	r7, r7
 2055              	.LVL258:
 393:u8g2/csrc/u8x8_byte.c **** 	{
ARM GAS  C:\Users\behun\AppData\Local\Temp\ccMYhszQ.s 			page 53


 2056              		.loc 1 393 2 is_stmt 1 view .LVU467
 393:u8g2/csrc/u8x8_byte.c **** 	{
 2057              		.loc 1 393 9 is_stmt 0 view .LVU468
 2058 0074 4024     		movs	r4, #64
 393:u8g2/csrc/u8x8_byte.c **** 	{
 2059              		.loc 1 393 2 view .LVU469
 2060 0076 DFE7     		b	.L125
 2061              	.LVL259:
 2062              	.L131:
 429:u8g2/csrc/u8x8_byte.c **** }
 2063              		.loc 1 429 10 view .LVU470
 2064 0078 0120     		movs	r0, #1
 2065 007a 21E0     		b	.L121
 2066              	.LVL260:
 2067              	.L124:
 408:u8g2/csrc/u8x8_byte.c ****       /* ensure that the enable signals are low */
 2068              		.loc 1 408 7 is_stmt 1 view .LVU471
 2069 007c 0368     		ldr	r3, [r0]
 2070 007e 5A78     		ldrb	r2, [r3, #1]	@ zero_extendqisi2
 2071              	.LVL261:
 408:u8g2/csrc/u8x8_byte.c ****       /* ensure that the enable signals are low */
 2072              		.loc 1 408 7 is_stmt 0 view .LVU472
 2073 0080 4921     		movs	r1, #73
 2074 0082 FFF7FEFF 		bl	u8x8_gpio_call
 2075              	.LVL262:
 410:u8g2/csrc/u8x8_byte.c ****       u8x8_gpio_call(u8x8, U8X8_MSG_GPIO_CS, 0);
 2076              		.loc 1 410 7 is_stmt 1 view .LVU473
 2077 0086 0022     		movs	r2, #0
 2078 0088 4821     		movs	r1, #72
 2079 008a 3046     		mov	r0, r6
 2080 008c FFF7FEFF 		bl	u8x8_gpio_call
 2081              	.LVL263:
 411:u8g2/csrc/u8x8_byte.c ****       enable_pin = U8X8_MSG_GPIO_E;
 2082              		.loc 1 411 7 view .LVU474
 2083 0090 0022     		movs	r2, #0
 2084 0092 4921     		movs	r1, #73
 2085 0094 3046     		mov	r0, r6
 2086 0096 FFF7FEFF 		bl	u8x8_gpio_call
 2087              	.LVL264:
 412:u8g2/csrc/u8x8_byte.c ****       break;
 2088              		.loc 1 412 7 view .LVU475
 412:u8g2/csrc/u8x8_byte.c ****       break;
 2089              		.loc 1 412 18 is_stmt 0 view .LVU476
 2090 009a 0B4B     		ldr	r3, .L132
 2091 009c 4822     		movs	r2, #72
 2092 009e 1A70     		strb	r2, [r3]
 413:u8g2/csrc/u8x8_byte.c ****     case U8X8_MSG_BYTE_SET_DC:
 2093              		.loc 1 413 7 is_stmt 1 view .LVU477
 429:u8g2/csrc/u8x8_byte.c **** }
 2094              		.loc 1 429 10 is_stmt 0 view .LVU478
 2095 00a0 0120     		movs	r0, #1
 413:u8g2/csrc/u8x8_byte.c ****     case U8X8_MSG_BYTE_SET_DC:
 2096              		.loc 1 413 7 view .LVU479
 2097 00a2 0DE0     		b	.L121
 2098              	.LVL265:
 2099              	.L119:
 415:u8g2/csrc/u8x8_byte.c ****       break;
ARM GAS  C:\Users\behun\AppData\Local\Temp\ccMYhszQ.s 			page 54


 2100              		.loc 1 415 7 is_stmt 1 view .LVU480
 2101 00a4 4A21     		movs	r1, #74
 2102 00a6 FFF7FEFF 		bl	u8x8_gpio_call
 2103              	.LVL266:
 416:u8g2/csrc/u8x8_byte.c ****     case U8X8_MSG_BYTE_START_TRANSFER:
 2104              		.loc 1 416 7 view .LVU481
 429:u8g2/csrc/u8x8_byte.c **** }
 2105              		.loc 1 429 10 is_stmt 0 view .LVU482
 2106 00aa 0120     		movs	r0, #1
 416:u8g2/csrc/u8x8_byte.c ****     case U8X8_MSG_BYTE_START_TRANSFER:
 2107              		.loc 1 416 7 view .LVU483
 2108 00ac 08E0     		b	.L121
 2109              	.LVL267:
 2110              	.L122:
 420:u8g2/csrc/u8x8_byte.c ****       if ( arg_int != 0 )
 2111              		.loc 1 420 7 is_stmt 1 view .LVU484
 420:u8g2/csrc/u8x8_byte.c ****       if ( arg_int != 0 )
 2112              		.loc 1 420 18 is_stmt 0 view .LVU485
 2113 00ae 064B     		ldr	r3, .L132
 2114 00b0 4822     		movs	r2, #72
 2115              	.LVL268:
 420:u8g2/csrc/u8x8_byte.c ****       if ( arg_int != 0 )
 2116              		.loc 1 420 18 view .LVU486
 2117 00b2 1A70     		strb	r2, [r3]
 421:u8g2/csrc/u8x8_byte.c **** 	enable_pin = U8X8_MSG_GPIO_CS;
 2118              		.loc 1 421 7 is_stmt 1 view .LVU487
 421:u8g2/csrc/u8x8_byte.c **** 	enable_pin = U8X8_MSG_GPIO_CS;
 2119              		.loc 1 421 10 is_stmt 0 view .LVU488
 2120 00b4 37B1     		cbz	r7, .L129
 422:u8g2/csrc/u8x8_byte.c ****       break;
 2121              		.loc 1 422 2 is_stmt 1 view .LVU489
 422:u8g2/csrc/u8x8_byte.c ****       break;
 2122              		.loc 1 422 13 is_stmt 0 view .LVU490
 2123 00b6 4922     		movs	r2, #73
 2124 00b8 1A70     		strb	r2, [r3]
 429:u8g2/csrc/u8x8_byte.c **** }
 2125              		.loc 1 429 10 view .LVU491
 2126 00ba 0120     		movs	r0, #1
 2127              	.LVL269:
 429:u8g2/csrc/u8x8_byte.c **** }
 2128              		.loc 1 429 10 view .LVU492
 2129 00bc 00E0     		b	.L121
 2130              	.LVL270:
 2131              	.L128:
 429:u8g2/csrc/u8x8_byte.c **** }
 2132              		.loc 1 429 10 view .LVU493
 2133 00be 0120     		movs	r0, #1
 2134              	.LVL271:
 2135              	.L121:
 430:u8g2/csrc/u8x8_byte.c **** 
 2136              		.loc 1 430 1 view .LVU494
 2137 00c0 BDE8F081 		pop	{r4, r5, r6, r7, r8, pc}
 2138              	.LVL272:
 2139              	.L129:
 429:u8g2/csrc/u8x8_byte.c **** }
 2140              		.loc 1 429 10 view .LVU495
 2141 00c4 0120     		movs	r0, #1
ARM GAS  C:\Users\behun\AppData\Local\Temp\ccMYhszQ.s 			page 55


 2142              	.LVL273:
 429:u8g2/csrc/u8x8_byte.c **** }
 2143              		.loc 1 429 10 view .LVU496
 2144 00c6 FBE7     		b	.L121
 2145              	.L133:
 2146              		.align	2
 2147              	.L132:
 2148 00c8 00000000 		.word	.LANCHOR1
 2149              		.cfi_endproc
 2150              	.LFE11:
 2152              		.section	.text.u8x8_byte_sw_i2c,"ax",%progbits
 2153              		.align	1
 2154              		.global	u8x8_byte_sw_i2c
 2155              		.syntax unified
 2156              		.thumb
 2157              		.thumb_func
 2158              		.fpu softvfp
 2160              	u8x8_byte_sw_i2c:
 2161              	.LVL274:
 2162              	.LFB23:
 556:u8g2/csrc/u8x8_byte.c **** 
 557:u8g2/csrc/u8x8_byte.c **** 
 558:u8g2/csrc/u8x8_byte.c **** 
 559:u8g2/csrc/u8x8_byte.c **** #ifdef OBSOLETE_HANDLED_BY_CAD_PROCEDURE
 560:u8g2/csrc/u8x8_byte.c **** uint8_t u8x8_byte_ssd13xx_sw_i2c(u8x8_t *u8x8, uint8_t msg, uint8_t arg_int, void *arg_ptr)
 561:u8g2/csrc/u8x8_byte.c **** {
 562:u8g2/csrc/u8x8_byte.c ****   uint8_t *data;
 563:u8g2/csrc/u8x8_byte.c ****   static uint8_t last_dc = 0;
 564:u8g2/csrc/u8x8_byte.c ****   static uint8_t is_send_dc = 0;	/* instruction, whether i2c-start including dc has to be sent */
 565:u8g2/csrc/u8x8_byte.c ****  
 566:u8g2/csrc/u8x8_byte.c ****   switch(msg)
 567:u8g2/csrc/u8x8_byte.c ****   {
 568:u8g2/csrc/u8x8_byte.c ****     case U8X8_MSG_BYTE_SEND:
 569:u8g2/csrc/u8x8_byte.c ****       data = (uint8_t *)arg_ptr;
 570:u8g2/csrc/u8x8_byte.c ****     
 571:u8g2/csrc/u8x8_byte.c ****       if ( is_send_dc != 0 )
 572:u8g2/csrc/u8x8_byte.c ****       {
 573:u8g2/csrc/u8x8_byte.c **** 	
 574:u8g2/csrc/u8x8_byte.c **** 	i2c_start(u8x8);
 575:u8g2/csrc/u8x8_byte.c **** 	i2c_write_byte(u8x8, 0x078);		/* write slave adr and read/write bit */
 576:u8g2/csrc/u8x8_byte.c **** 	
 577:u8g2/csrc/u8x8_byte.c **** 	if ( last_dc == 0 )
 578:u8g2/csrc/u8x8_byte.c **** 	  i2c_write_byte(u8x8, 0);
 579:u8g2/csrc/u8x8_byte.c **** 	else
 580:u8g2/csrc/u8x8_byte.c **** 	  i2c_write_byte(u8x8, 0x040);
 581:u8g2/csrc/u8x8_byte.c **** 	is_send_dc = 0;
 582:u8g2/csrc/u8x8_byte.c ****       }
 583:u8g2/csrc/u8x8_byte.c ****     
 584:u8g2/csrc/u8x8_byte.c ****       while( arg_int > 0 )
 585:u8g2/csrc/u8x8_byte.c ****       {
 586:u8g2/csrc/u8x8_byte.c **** 	i2c_write_byte(u8x8, *data);
 587:u8g2/csrc/u8x8_byte.c **** 	data++;
 588:u8g2/csrc/u8x8_byte.c **** 	arg_int--;
 589:u8g2/csrc/u8x8_byte.c ****       }
 590:u8g2/csrc/u8x8_byte.c ****       
 591:u8g2/csrc/u8x8_byte.c ****       break;
 592:u8g2/csrc/u8x8_byte.c ****       
ARM GAS  C:\Users\behun\AppData\Local\Temp\ccMYhszQ.s 			page 56


 593:u8g2/csrc/u8x8_byte.c ****     case U8X8_MSG_BYTE_INIT:
 594:u8g2/csrc/u8x8_byte.c ****       i2c_init(u8x8);
 595:u8g2/csrc/u8x8_byte.c ****       break;
 596:u8g2/csrc/u8x8_byte.c ****     case U8X8_MSG_BYTE_SET_DC:
 597:u8g2/csrc/u8x8_byte.c ****       if ( last_dc != arg_int )
 598:u8g2/csrc/u8x8_byte.c ****       {
 599:u8g2/csrc/u8x8_byte.c **** 	last_dc = arg_int;
 600:u8g2/csrc/u8x8_byte.c **** 	is_send_dc = 1;
 601:u8g2/csrc/u8x8_byte.c ****       }
 602:u8g2/csrc/u8x8_byte.c ****       break;
 603:u8g2/csrc/u8x8_byte.c ****     case U8X8_MSG_BYTE_START_TRANSFER:
 604:u8g2/csrc/u8x8_byte.c ****       last_dc = 0;
 605:u8g2/csrc/u8x8_byte.c ****       is_send_dc = 1;
 606:u8g2/csrc/u8x8_byte.c ****       break;
 607:u8g2/csrc/u8x8_byte.c ****     case U8X8_MSG_BYTE_END_TRANSFER:
 608:u8g2/csrc/u8x8_byte.c ****       i2c_stop(u8x8);
 609:u8g2/csrc/u8x8_byte.c ****       break;
 610:u8g2/csrc/u8x8_byte.c ****     default:
 611:u8g2/csrc/u8x8_byte.c ****       return 0;
 612:u8g2/csrc/u8x8_byte.c ****   }
 613:u8g2/csrc/u8x8_byte.c ****   return 1;
 614:u8g2/csrc/u8x8_byte.c **** }
 615:u8g2/csrc/u8x8_byte.c **** #endif
 616:u8g2/csrc/u8x8_byte.c **** 
 617:u8g2/csrc/u8x8_byte.c **** uint8_t u8x8_byte_sw_i2c(u8x8_t *u8x8, uint8_t msg, uint8_t arg_int, void *arg_ptr)
 618:u8g2/csrc/u8x8_byte.c **** {
 2163              		.loc 1 618 1 is_stmt 1 view -0
 2164              		.cfi_startproc
 2165              		@ args = 0, pretend = 0, frame = 0
 2166              		@ frame_needed = 0, uses_anonymous_args = 0
 2167              		.loc 1 618 1 is_stmt 0 view .LVU498
 2168 0000 70B5     		push	{r4, r5, r6, lr}
 2169              	.LCFI25:
 2170              		.cfi_def_cfa_offset 16
 2171              		.cfi_offset 4, -16
 2172              		.cfi_offset 5, -12
 2173              		.cfi_offset 6, -8
 2174              		.cfi_offset 14, -4
 2175 0002 0646     		mov	r6, r0
 2176 0004 1446     		mov	r4, r2
 2177 0006 1D46     		mov	r5, r3
 619:u8g2/csrc/u8x8_byte.c ****   uint8_t *data;
 2178              		.loc 1 619 3 is_stmt 1 view .LVU499
 620:u8g2/csrc/u8x8_byte.c ****  
 621:u8g2/csrc/u8x8_byte.c ****   switch(msg)
 2179              		.loc 1 621 3 view .LVU500
 2180 0008 1439     		subs	r1, r1, #20
 2181              	.LVL275:
 2182              		.loc 1 621 3 is_stmt 0 view .LVU501
 2183 000a 0C29     		cmp	r1, #12
 2184 000c 08D8     		bhi	.L135
 2185 000e DFE801F0 		tbb	[pc, r1]
 2186              	.LVL276:
 2187              	.L137:
 2188 0012 14       		.byte	(.L141-.L137)/2
 2189 0013 07       		.byte	(.L135-.L137)/2
 2190 0014 07       		.byte	(.L135-.L137)/2
ARM GAS  C:\Users\behun\AppData\Local\Temp\ccMYhszQ.s 			page 57


 2191 0015 09       		.byte	(.L140-.L137)/2
 2192 0016 18       		.byte	(.L139-.L137)/2
 2193 0017 21       		.byte	(.L138-.L137)/2
 2194 0018 07       		.byte	(.L135-.L137)/2
 2195 0019 07       		.byte	(.L135-.L137)/2
 2196 001a 07       		.byte	(.L135-.L137)/2
 2197 001b 07       		.byte	(.L135-.L137)/2
 2198 001c 07       		.byte	(.L135-.L137)/2
 2199 001d 07       		.byte	(.L135-.L137)/2
 2200 001e 25       		.byte	(.L143-.L137)/2
 2201 001f 00       		.p2align 1
 2202              	.L135:
 622:u8g2/csrc/u8x8_byte.c ****   {
 623:u8g2/csrc/u8x8_byte.c ****     case U8X8_MSG_BYTE_SEND:
 624:u8g2/csrc/u8x8_byte.c ****       data = (uint8_t *)arg_ptr;
 625:u8g2/csrc/u8x8_byte.c ****       
 626:u8g2/csrc/u8x8_byte.c ****       while( arg_int > 0 )
 627:u8g2/csrc/u8x8_byte.c ****       {
 628:u8g2/csrc/u8x8_byte.c **** 	i2c_write_byte(u8x8, *data);
 629:u8g2/csrc/u8x8_byte.c **** 	data++;
 630:u8g2/csrc/u8x8_byte.c **** 	arg_int--;
 631:u8g2/csrc/u8x8_byte.c ****       }
 632:u8g2/csrc/u8x8_byte.c ****       
 633:u8g2/csrc/u8x8_byte.c ****       break;
 634:u8g2/csrc/u8x8_byte.c ****       
 635:u8g2/csrc/u8x8_byte.c ****     case U8X8_MSG_BYTE_INIT:
 636:u8g2/csrc/u8x8_byte.c ****       i2c_init(u8x8);
 637:u8g2/csrc/u8x8_byte.c ****       break;
 638:u8g2/csrc/u8x8_byte.c ****     case U8X8_MSG_BYTE_SET_DC:
 639:u8g2/csrc/u8x8_byte.c ****       break;
 640:u8g2/csrc/u8x8_byte.c ****     case U8X8_MSG_BYTE_START_TRANSFER:
 641:u8g2/csrc/u8x8_byte.c ****       i2c_start(u8x8);
 642:u8g2/csrc/u8x8_byte.c ****       i2c_write_byte(u8x8, u8x8_GetI2CAddress(u8x8));
 643:u8g2/csrc/u8x8_byte.c ****       //i2c_write_byte(u8x8, 0x078);
 644:u8g2/csrc/u8x8_byte.c ****       break;
 645:u8g2/csrc/u8x8_byte.c ****     case U8X8_MSG_BYTE_END_TRANSFER:
 646:u8g2/csrc/u8x8_byte.c ****       i2c_stop(u8x8);
 647:u8g2/csrc/u8x8_byte.c ****       break;
 648:u8g2/csrc/u8x8_byte.c ****     default:
 649:u8g2/csrc/u8x8_byte.c ****       return 0;
 2203              		.loc 1 649 14 view .LVU502
 2204 0020 0020     		movs	r0, #0
 2205              	.LVL277:
 2206              		.loc 1 649 14 view .LVU503
 2207 0022 1CE0     		b	.L136
 2208              	.LVL278:
 2209              	.L140:
 626:u8g2/csrc/u8x8_byte.c ****       {
 2210              		.loc 1 626 12 view .LVU504
 2211 0024 3CB1     		cbz	r4, .L145
 628:u8g2/csrc/u8x8_byte.c **** 	data++;
 2212              		.loc 1 628 2 is_stmt 1 view .LVU505
 2213 0026 15F8011B 		ldrb	r1, [r5], #1	@ zero_extendqisi2
 2214              	.LVL279:
 628:u8g2/csrc/u8x8_byte.c **** 	data++;
 2215              		.loc 1 628 2 is_stmt 0 view .LVU506
 2216 002a 3046     		mov	r0, r6
ARM GAS  C:\Users\behun\AppData\Local\Temp\ccMYhszQ.s 			page 58


 2217 002c FFF7FEFF 		bl	i2c_write_byte
 2218              	.LVL280:
 629:u8g2/csrc/u8x8_byte.c **** 	arg_int--;
 2219              		.loc 1 629 2 is_stmt 1 view .LVU507
 630:u8g2/csrc/u8x8_byte.c ****       }
 2220              		.loc 1 630 2 view .LVU508
 630:u8g2/csrc/u8x8_byte.c ****       }
 2221              		.loc 1 630 9 is_stmt 0 view .LVU509
 2222 0030 013C     		subs	r4, r4, #1
 2223              	.LVL281:
 630:u8g2/csrc/u8x8_byte.c ****       }
 2224              		.loc 1 630 9 view .LVU510
 2225 0032 E4B2     		uxtb	r4, r4
 2226              	.LVL282:
 630:u8g2/csrc/u8x8_byte.c ****       }
 2227              		.loc 1 630 9 view .LVU511
 2228 0034 F6E7     		b	.L140
 2229              	.L145:
 650:u8g2/csrc/u8x8_byte.c ****   }
 651:u8g2/csrc/u8x8_byte.c ****   return 1;
 2230              		.loc 1 651 10 view .LVU512
 2231 0036 0120     		movs	r0, #1
 2232 0038 11E0     		b	.L136
 2233              	.LVL283:
 2234              	.L141:
 636:u8g2/csrc/u8x8_byte.c ****       break;
 2235              		.loc 1 636 7 is_stmt 1 view .LVU513
 2236 003a FFF7FEFF 		bl	i2c_init
 2237              	.LVL284:
 637:u8g2/csrc/u8x8_byte.c ****     case U8X8_MSG_BYTE_SET_DC:
 2238              		.loc 1 637 7 view .LVU514
 2239              		.loc 1 651 10 is_stmt 0 view .LVU515
 2240 003e 0120     		movs	r0, #1
 637:u8g2/csrc/u8x8_byte.c ****     case U8X8_MSG_BYTE_SET_DC:
 2241              		.loc 1 637 7 view .LVU516
 2242 0040 0DE0     		b	.L136
 2243              	.LVL285:
 2244              	.L139:
 641:u8g2/csrc/u8x8_byte.c ****       i2c_write_byte(u8x8, u8x8_GetI2CAddress(u8x8));
 2245              		.loc 1 641 7 is_stmt 1 view .LVU517
 2246 0042 FFF7FEFF 		bl	i2c_start
 2247              	.LVL286:
 642:u8g2/csrc/u8x8_byte.c ****       //i2c_write_byte(u8x8, 0x078);
 2248              		.loc 1 642 7 view .LVU518
 2249 0046 96F82010 		ldrb	r1, [r6, #32]	@ zero_extendqisi2
 2250 004a 3046     		mov	r0, r6
 2251 004c FFF7FEFF 		bl	i2c_write_byte
 2252              	.LVL287:
 644:u8g2/csrc/u8x8_byte.c ****     case U8X8_MSG_BYTE_END_TRANSFER:
 2253              		.loc 1 644 7 view .LVU519
 2254              		.loc 1 651 10 is_stmt 0 view .LVU520
 2255 0050 0120     		movs	r0, #1
 644:u8g2/csrc/u8x8_byte.c ****     case U8X8_MSG_BYTE_END_TRANSFER:
 2256              		.loc 1 644 7 view .LVU521
 2257 0052 04E0     		b	.L136
 2258              	.LVL288:
 2259              	.L138:
ARM GAS  C:\Users\behun\AppData\Local\Temp\ccMYhszQ.s 			page 59


 646:u8g2/csrc/u8x8_byte.c ****       break;
 2260              		.loc 1 646 7 is_stmt 1 view .LVU522
 2261 0054 FFF7FEFF 		bl	i2c_stop
 2262              	.LVL289:
 647:u8g2/csrc/u8x8_byte.c ****     default:
 2263              		.loc 1 647 7 view .LVU523
 2264              		.loc 1 651 10 is_stmt 0 view .LVU524
 2265 0058 0120     		movs	r0, #1
 647:u8g2/csrc/u8x8_byte.c ****     default:
 2266              		.loc 1 647 7 view .LVU525
 2267 005a 00E0     		b	.L136
 2268              	.LVL290:
 2269              	.L143:
 2270              		.loc 1 651 10 view .LVU526
 2271 005c 0120     		movs	r0, #1
 2272              	.LVL291:
 2273              	.L136:
 652:u8g2/csrc/u8x8_byte.c **** }
 2274              		.loc 1 652 1 view .LVU527
 2275 005e 70BD     		pop	{r4, r5, r6, pc}
 2276              		.loc 1 652 1 view .LVU528
 2277              		.cfi_endproc
 2278              	.LFE23:
 2280              		.section	.bss.enable_pin.5217,"aw",%nobits
 2281              		.set	.LANCHOR1,. + 0
 2284              	enable_pin.5217:
 2285 0000 00       		.space	1
 2286              		.section	.bss.last_dc.5168,"aw",%nobits
 2287              		.set	.LANCHOR0,. + 0
 2290              	last_dc.5168:
 2291 0000 00       		.space	1
 2292              		.text
 2293              	.Letext0:
 2294              		.file 2 "c:\\program files (x86)\\gnu tools arm embedded\\8 2019-q3-update\\arm-none-eabi\\include
 2295              		.file 3 "c:\\program files (x86)\\gnu tools arm embedded\\8 2019-q3-update\\arm-none-eabi\\include
 2296              		.file 4 "u8g2/csrc/u8x8.h"
ARM GAS  C:\Users\behun\AppData\Local\Temp\ccMYhszQ.s 			page 60


DEFINED SYMBOLS
                            *ABS*:00000000 u8x8_byte.c
C:\Users\behun\AppData\Local\Temp\ccMYhszQ.s:16     .text.i2c_delay:00000000 $t
C:\Users\behun\AppData\Local\Temp\ccMYhszQ.s:23     .text.i2c_delay:00000000 i2c_delay
C:\Users\behun\AppData\Local\Temp\ccMYhszQ.s:49     .text.i2c_init:00000000 $t
C:\Users\behun\AppData\Local\Temp\ccMYhszQ.s:55     .text.i2c_init:00000000 i2c_init
C:\Users\behun\AppData\Local\Temp\ccMYhszQ.s:91     .text.i2c_read_scl_and_delay:00000000 $t
C:\Users\behun\AppData\Local\Temp\ccMYhszQ.s:97     .text.i2c_read_scl_and_delay:00000000 i2c_read_scl_and_delay
C:\Users\behun\AppData\Local\Temp\ccMYhszQ.s:127    .text.i2c_read_sda:00000000 $t
C:\Users\behun\AppData\Local\Temp\ccMYhszQ.s:133    .text.i2c_read_sda:00000000 i2c_read_sda
C:\Users\behun\AppData\Local\Temp\ccMYhszQ.s:157    .text.i2c_clear_sda:00000000 $t
C:\Users\behun\AppData\Local\Temp\ccMYhszQ.s:163    .text.i2c_clear_sda:00000000 i2c_clear_sda
C:\Users\behun\AppData\Local\Temp\ccMYhszQ.s:187    .text.i2c_stop:00000000 $t
C:\Users\behun\AppData\Local\Temp\ccMYhszQ.s:193    .text.i2c_stop:00000000 i2c_stop
C:\Users\behun\AppData\Local\Temp\ccMYhszQ.s:237    .text.i2c_clear_scl:00000000 $t
C:\Users\behun\AppData\Local\Temp\ccMYhszQ.s:243    .text.i2c_clear_scl:00000000 i2c_clear_scl
C:\Users\behun\AppData\Local\Temp\ccMYhszQ.s:267    .text.i2c_start:00000000 $t
C:\Users\behun\AppData\Local\Temp\ccMYhszQ.s:273    .text.i2c_start:00000000 i2c_start
C:\Users\behun\AppData\Local\Temp\ccMYhszQ.s:334    .text.i2c_write_bit:00000000 $t
C:\Users\behun\AppData\Local\Temp\ccMYhszQ.s:340    .text.i2c_write_bit:00000000 i2c_write_bit
C:\Users\behun\AppData\Local\Temp\ccMYhszQ.s:386    .text.i2c_read_bit:00000000 $t
C:\Users\behun\AppData\Local\Temp\ccMYhszQ.s:392    .text.i2c_read_bit:00000000 i2c_read_bit
C:\Users\behun\AppData\Local\Temp\ccMYhszQ.s:436    .text.i2c_write_byte:00000000 $t
C:\Users\behun\AppData\Local\Temp\ccMYhszQ.s:442    .text.i2c_write_byte:00000000 i2c_write_byte
C:\Users\behun\AppData\Local\Temp\ccMYhszQ.s:511    .text.u8x8_byte_SetDC:00000000 $t
C:\Users\behun\AppData\Local\Temp\ccMYhszQ.s:518    .text.u8x8_byte_SetDC:00000000 u8x8_byte_SetDC
C:\Users\behun\AppData\Local\Temp\ccMYhszQ.s:548    .text.u8x8_byte_SendBytes:00000000 $t
C:\Users\behun\AppData\Local\Temp\ccMYhszQ.s:555    .text.u8x8_byte_SendBytes:00000000 u8x8_byte_SendBytes
C:\Users\behun\AppData\Local\Temp\ccMYhszQ.s:587    .text.u8x8_byte_SendByte:00000000 $t
C:\Users\behun\AppData\Local\Temp\ccMYhszQ.s:594    .text.u8x8_byte_SendByte:00000000 u8x8_byte_SendByte
C:\Users\behun\AppData\Local\Temp\ccMYhszQ.s:628    .text.u8x8_byte_StartTransfer:00000000 $t
C:\Users\behun\AppData\Local\Temp\ccMYhszQ.s:635    .text.u8x8_byte_StartTransfer:00000000 u8x8_byte_StartTransfer
C:\Users\behun\AppData\Local\Temp\ccMYhszQ.s:663    .text.u8x8_byte_EndTransfer:00000000 $t
C:\Users\behun\AppData\Local\Temp\ccMYhszQ.s:670    .text.u8x8_byte_EndTransfer:00000000 u8x8_byte_EndTransfer
C:\Users\behun\AppData\Local\Temp\ccMYhszQ.s:698    .text.u8x8_byte_4wire_sw_spi:00000000 $t
C:\Users\behun\AppData\Local\Temp\ccMYhszQ.s:705    .text.u8x8_byte_4wire_sw_spi:00000000 u8x8_byte_4wire_sw_spi
C:\Users\behun\AppData\Local\Temp\ccMYhszQ.s:751    .text.u8x8_byte_4wire_sw_spi:00000020 $d
C:\Users\behun\AppData\Local\Temp\ccMYhszQ.s:947    .text.u8x8_byte_8bit_6800mode:00000000 $t
C:\Users\behun\AppData\Local\Temp\ccMYhszQ.s:954    .text.u8x8_byte_8bit_6800mode:00000000 u8x8_byte_8bit_6800mode
C:\Users\behun\AppData\Local\Temp\ccMYhszQ.s:985    .text.u8x8_byte_8bit_6800mode:00000014 $d
C:\Users\behun\AppData\Local\Temp\ccMYhszQ.s:1170   .text.u8x8_byte_8bit_8080mode:00000000 $t
C:\Users\behun\AppData\Local\Temp\ccMYhszQ.s:1177   .text.u8x8_byte_8bit_8080mode:00000000 u8x8_byte_8bit_8080mode
C:\Users\behun\AppData\Local\Temp\ccMYhszQ.s:1208   .text.u8x8_byte_8bit_8080mode:00000014 $d
C:\Users\behun\AppData\Local\Temp\ccMYhszQ.s:1393   .text.u8x8_byte_3wire_sw_spi:00000000 $t
C:\Users\behun\AppData\Local\Temp\ccMYhszQ.s:1400   .text.u8x8_byte_3wire_sw_spi:00000000 u8x8_byte_3wire_sw_spi
C:\Users\behun\AppData\Local\Temp\ccMYhszQ.s:1448   .text.u8x8_byte_3wire_sw_spi:00000020 $d
C:\Users\behun\AppData\Local\Temp\ccMYhszQ.s:1657   .text.u8x8_byte_3wire_sw_spi:0000010c $d
C:\Users\behun\AppData\Local\Temp\ccMYhszQ.s:1662   .text.u8x8_byte_set_ks0108_cs:00000000 $t
C:\Users\behun\AppData\Local\Temp\ccMYhszQ.s:1669   .text.u8x8_byte_set_ks0108_cs:00000000 u8x8_byte_set_ks0108_cs
C:\Users\behun\AppData\Local\Temp\ccMYhszQ.s:1714   .text.u8x8_byte_ks0108:00000000 $t
C:\Users\behun\AppData\Local\Temp\ccMYhszQ.s:1721   .text.u8x8_byte_ks0108:00000000 u8x8_byte_ks0108
C:\Users\behun\AppData\Local\Temp\ccMYhszQ.s:1752   .text.u8x8_byte_ks0108:00000014 $d
C:\Users\behun\AppData\Local\Temp\ccMYhszQ.s:1931   .text.u8x8_byte_sed1520:00000000 $t
C:\Users\behun\AppData\Local\Temp\ccMYhszQ.s:1938   .text.u8x8_byte_sed1520:00000000 u8x8_byte_sed1520
C:\Users\behun\AppData\Local\Temp\ccMYhszQ.s:1970   .text.u8x8_byte_sed1520:00000014 $d
C:\Users\behun\AppData\Local\Temp\ccMYhszQ.s:2148   .text.u8x8_byte_sed1520:000000c8 $d
C:\Users\behun\AppData\Local\Temp\ccMYhszQ.s:2153   .text.u8x8_byte_sw_i2c:00000000 $t
ARM GAS  C:\Users\behun\AppData\Local\Temp\ccMYhszQ.s 			page 61


C:\Users\behun\AppData\Local\Temp\ccMYhszQ.s:2160   .text.u8x8_byte_sw_i2c:00000000 u8x8_byte_sw_i2c
C:\Users\behun\AppData\Local\Temp\ccMYhszQ.s:2188   .text.u8x8_byte_sw_i2c:00000012 $d
C:\Users\behun\AppData\Local\Temp\ccMYhszQ.s:2284   .bss.enable_pin.5217:00000000 enable_pin.5217
C:\Users\behun\AppData\Local\Temp\ccMYhszQ.s:2285   .bss.enable_pin.5217:00000000 $d
C:\Users\behun\AppData\Local\Temp\ccMYhszQ.s:2290   .bss.last_dc.5168:00000000 last_dc.5168
C:\Users\behun\AppData\Local\Temp\ccMYhszQ.s:2291   .bss.last_dc.5168:00000000 $d
C:\Users\behun\AppData\Local\Temp\ccMYhszQ.s:764    .text.u8x8_byte_4wire_sw_spi:0000002d $d
C:\Users\behun\AppData\Local\Temp\ccMYhszQ.s:764    .text.u8x8_byte_4wire_sw_spi:0000002e $t
C:\Users\behun\AppData\Local\Temp\ccMYhszQ.s:998    .text.u8x8_byte_8bit_6800mode:00000021 $d
C:\Users\behun\AppData\Local\Temp\ccMYhszQ.s:998    .text.u8x8_byte_8bit_6800mode:00000022 $t
C:\Users\behun\AppData\Local\Temp\ccMYhszQ.s:1221   .text.u8x8_byte_8bit_8080mode:00000021 $d
C:\Users\behun\AppData\Local\Temp\ccMYhszQ.s:1221   .text.u8x8_byte_8bit_8080mode:00000022 $t
C:\Users\behun\AppData\Local\Temp\ccMYhszQ.s:1461   .text.u8x8_byte_3wire_sw_spi:0000002d $d
C:\Users\behun\AppData\Local\Temp\ccMYhszQ.s:1461   .text.u8x8_byte_3wire_sw_spi:0000002e $t
C:\Users\behun\AppData\Local\Temp\ccMYhszQ.s:1765   .text.u8x8_byte_ks0108:00000021 $d
C:\Users\behun\AppData\Local\Temp\ccMYhszQ.s:1765   .text.u8x8_byte_ks0108:00000022 $t
C:\Users\behun\AppData\Local\Temp\ccMYhszQ.s:1983   .text.u8x8_byte_sed1520:00000021 $d
C:\Users\behun\AppData\Local\Temp\ccMYhszQ.s:1983   .text.u8x8_byte_sed1520:00000022 $t
C:\Users\behun\AppData\Local\Temp\ccMYhszQ.s:2201   .text.u8x8_byte_sw_i2c:0000001f $d
C:\Users\behun\AppData\Local\Temp\ccMYhszQ.s:2201   .text.u8x8_byte_sw_i2c:00000020 $t

UNDEFINED SYMBOLS
u8x8_gpio_call
