ARM GAS  C:\Users\behun\AppData\Local\Temp\cc1glhMR.s 			page 1


   1              		.cpu cortex-m3
   2              		.eabi_attribute 20, 1
   3              		.eabi_attribute 21, 1
   4              		.eabi_attribute 23, 3
   5              		.eabi_attribute 24, 1
   6              		.eabi_attribute 25, 1
   7              		.eabi_attribute 26, 1
   8              		.eabi_attribute 30, 1
   9              		.eabi_attribute 34, 1
  10              		.eabi_attribute 18, 4
  11              		.file	"u8x8_u8toa.c"
  12              		.text
  13              	.Ltext0:
  14              		.cfi_sections	.debug_frame
  15              		.section	.text.u8x8_u8toap,"ax",%progbits
  16              		.align	1
  17              		.global	u8x8_u8toap
  18              		.arch armv7-m
  19              		.syntax unified
  20              		.thumb
  21              		.thumb_func
  22              		.fpu softvfp
  24              	u8x8_u8toap:
  25              	.LVL0:
  26              	.LFB0:
  27              		.file 1 "u8g2/csrc/u8x8_u8toa.c"
   1:u8g2/csrc/u8x8_u8toa.c **** /*
   2:u8g2/csrc/u8x8_u8toa.c **** 
   3:u8g2/csrc/u8x8_u8toa.c ****   u8x8_u8toa.c
   4:u8g2/csrc/u8x8_u8toa.c **** 
   5:u8g2/csrc/u8x8_u8toa.c ****   Universal 8bit Graphics Library (https://github.com/olikraus/u8g2/)
   6:u8g2/csrc/u8x8_u8toa.c **** 
   7:u8g2/csrc/u8x8_u8toa.c ****   Copyright (c) 2016, olikraus@gmail.com
   8:u8g2/csrc/u8x8_u8toa.c ****   All rights reserved.
   9:u8g2/csrc/u8x8_u8toa.c **** 
  10:u8g2/csrc/u8x8_u8toa.c ****   Redistribution and use in source and binary forms, with or without modification, 
  11:u8g2/csrc/u8x8_u8toa.c ****   are permitted provided that the following conditions are met:
  12:u8g2/csrc/u8x8_u8toa.c **** 
  13:u8g2/csrc/u8x8_u8toa.c ****   * Redistributions of source code must retain the above copyright notice, this list 
  14:u8g2/csrc/u8x8_u8toa.c ****     of conditions and the following disclaimer.
  15:u8g2/csrc/u8x8_u8toa.c ****     
  16:u8g2/csrc/u8x8_u8toa.c ****   * Redistributions in binary form must reproduce the above copyright notice, this 
  17:u8g2/csrc/u8x8_u8toa.c ****     list of conditions and the following disclaimer in the documentation and/or other 
  18:u8g2/csrc/u8x8_u8toa.c ****     materials provided with the distribution.
  19:u8g2/csrc/u8x8_u8toa.c **** 
  20:u8g2/csrc/u8x8_u8toa.c ****   THIS SOFTWARE IS PROVIDED BY THE COPYRIGHT HOLDERS AND 
  21:u8g2/csrc/u8x8_u8toa.c ****   CONTRIBUTORS "AS IS" AND ANY EXPRESS OR IMPLIED WARRANTIES, 
  22:u8g2/csrc/u8x8_u8toa.c ****   INCLUDING, BUT NOT LIMITED TO, THE IMPLIED WARRANTIES OF 
  23:u8g2/csrc/u8x8_u8toa.c ****   MERCHANTABILITY AND FITNESS FOR A PARTICULAR PURPOSE ARE 
  24:u8g2/csrc/u8x8_u8toa.c ****   DISCLAIMED. IN NO EVENT SHALL THE COPYRIGHT HOLDER OR 
  25:u8g2/csrc/u8x8_u8toa.c ****   CONTRIBUTORS BE LIABLE FOR ANY DIRECT, INDIRECT, INCIDENTAL, 
  26:u8g2/csrc/u8x8_u8toa.c ****   SPECIAL, EXEMPLARY, OR CONSEQUENTIAL DAMAGES (INCLUDING, BUT 
  27:u8g2/csrc/u8x8_u8toa.c ****   NOT LIMITED TO, PROCUREMENT OF SUBSTITUTE GOODS OR SERVICES; 
  28:u8g2/csrc/u8x8_u8toa.c ****   LOSS OF USE, DATA, OR PROFITS; OR BUSINESS INTERRUPTION) HOWEVER 
  29:u8g2/csrc/u8x8_u8toa.c ****   CAUSED AND ON ANY THEORY OF LIABILITY, WHETHER IN CONTRACT, 
  30:u8g2/csrc/u8x8_u8toa.c ****   STRICT LIABILITY, OR TORT (INCLUDING NEGLIGENCE OR OTHERWISE) 
  31:u8g2/csrc/u8x8_u8toa.c ****   ARISING IN ANY WAY OUT OF THE USE OF THIS SOFTWARE, EVEN IF 
ARM GAS  C:\Users\behun\AppData\Local\Temp\cc1glhMR.s 			page 2


  32:u8g2/csrc/u8x8_u8toa.c ****   ADVISED OF THE POSSIBILITY OF SUCH DAMAGE.  
  33:u8g2/csrc/u8x8_u8toa.c ****   
  34:u8g2/csrc/u8x8_u8toa.c **** */
  35:u8g2/csrc/u8x8_u8toa.c **** 
  36:u8g2/csrc/u8x8_u8toa.c **** 
  37:u8g2/csrc/u8x8_u8toa.c **** #include "u8x8.h"
  38:u8g2/csrc/u8x8_u8toa.c **** 
  39:u8g2/csrc/u8x8_u8toa.c **** static const unsigned char u8x8_u8toa_tab[3]  = { 100, 10, 1 } ;
  40:u8g2/csrc/u8x8_u8toa.c **** const char *u8x8_u8toap(char * dest, uint8_t v)
  41:u8g2/csrc/u8x8_u8toa.c **** {
  28              		.loc 1 41 1 view -0
  29              		.cfi_startproc
  30              		@ args = 0, pretend = 0, frame = 0
  31              		@ frame_needed = 0, uses_anonymous_args = 0
  32              		@ link register save eliminated.
  33              		.loc 1 41 1 is_stmt 0 view .LVU1
  34 0000 30B4     		push	{r4, r5}
  35              	.LCFI0:
  36              		.cfi_def_cfa_offset 8
  37              		.cfi_offset 4, -8
  38              		.cfi_offset 5, -4
  42:u8g2/csrc/u8x8_u8toa.c ****   uint8_t pos;
  39              		.loc 1 42 3 is_stmt 1 view .LVU2
  43:u8g2/csrc/u8x8_u8toa.c ****   uint8_t d;
  40              		.loc 1 43 3 view .LVU3
  44:u8g2/csrc/u8x8_u8toa.c ****   uint8_t c;
  41              		.loc 1 44 3 view .LVU4
  45:u8g2/csrc/u8x8_u8toa.c ****   for( pos = 0; pos < 3; pos++ )
  42              		.loc 1 45 3 view .LVU5
  43              	.LVL1:
  44              		.loc 1 45 12 is_stmt 0 view .LVU6
  45 0002 0024     		movs	r4, #0
  46              		.loc 1 45 3 view .LVU7
  47 0004 02E0     		b	.L2
  48              	.LVL2:
  49              	.L8:
  46:u8g2/csrc/u8x8_u8toa.c ****   {
  47:u8g2/csrc/u8x8_u8toa.c ****       d = '0';
  48:u8g2/csrc/u8x8_u8toa.c ****       c = *(u8x8_u8toa_tab+pos);
  49:u8g2/csrc/u8x8_u8toa.c ****       while( v >= c )
  50:u8g2/csrc/u8x8_u8toa.c ****       {
  51:u8g2/csrc/u8x8_u8toa.c **** 	v -= c;
  52:u8g2/csrc/u8x8_u8toa.c **** 	d++;
  53:u8g2/csrc/u8x8_u8toa.c ****       }
  54:u8g2/csrc/u8x8_u8toa.c ****       dest[pos] = d;
  50              		.loc 1 54 7 is_stmt 1 discriminator 2 view .LVU8
  51              		.loc 1 54 17 is_stmt 0 discriminator 2 view .LVU9
  52 0006 4355     		strb	r3, [r0, r5]
  45:u8g2/csrc/u8x8_u8toa.c ****   for( pos = 0; pos < 3; pos++ )
  53              		.loc 1 45 29 discriminator 2 view .LVU10
  54 0008 0134     		adds	r4, r4, #1
  55              	.LVL3:
  45:u8g2/csrc/u8x8_u8toa.c ****   for( pos = 0; pos < 3; pos++ )
  56              		.loc 1 45 29 discriminator 2 view .LVU11
  57 000a E4B2     		uxtb	r4, r4
  58              	.LVL4:
  59              	.L2:
ARM GAS  C:\Users\behun\AppData\Local\Temp\cc1glhMR.s 			page 3


  45:u8g2/csrc/u8x8_u8toa.c ****   for( pos = 0; pos < 3; pos++ )
  60              		.loc 1 45 3 discriminator 1 view .LVU12
  61 000c 022C     		cmp	r4, #2
  62 000e 0AD8     		bhi	.L7
  47:u8g2/csrc/u8x8_u8toa.c ****       c = *(u8x8_u8toa_tab+pos);
  63              		.loc 1 47 7 is_stmt 1 view .LVU13
  64              	.LVL5:
  48:u8g2/csrc/u8x8_u8toa.c ****       while( v >= c )
  65              		.loc 1 48 7 view .LVU14
  48:u8g2/csrc/u8x8_u8toa.c ****       while( v >= c )
  66              		.loc 1 48 27 is_stmt 0 view .LVU15
  67 0010 2546     		mov	r5, r4
  68 0012 074B     		ldr	r3, .L9
  48:u8g2/csrc/u8x8_u8toa.c ****       while( v >= c )
  69              		.loc 1 48 9 view .LVU16
  70 0014 1A5D     		ldrb	r2, [r3, r4]	@ zero_extendqisi2
  71              	.LVL6:
  49:u8g2/csrc/u8x8_u8toa.c ****       {
  72              		.loc 1 49 7 is_stmt 1 view .LVU17
  47:u8g2/csrc/u8x8_u8toa.c ****       c = *(u8x8_u8toa_tab+pos);
  73              		.loc 1 47 9 is_stmt 0 view .LVU18
  74 0016 3023     		movs	r3, #48
  75              	.LVL7:
  76              	.L3:
  49:u8g2/csrc/u8x8_u8toa.c ****       {
  77              		.loc 1 49 12 view .LVU19
  78 0018 9142     		cmp	r1, r2
  79 001a F4D3     		bcc	.L8
  51:u8g2/csrc/u8x8_u8toa.c **** 	d++;
  80              		.loc 1 51 2 is_stmt 1 view .LVU20
  51:u8g2/csrc/u8x8_u8toa.c **** 	d++;
  81              		.loc 1 51 4 is_stmt 0 view .LVU21
  82 001c 891A     		subs	r1, r1, r2
  83              	.LVL8:
  51:u8g2/csrc/u8x8_u8toa.c **** 	d++;
  84              		.loc 1 51 4 view .LVU22
  85 001e C9B2     		uxtb	r1, r1
  86              	.LVL9:
  52:u8g2/csrc/u8x8_u8toa.c ****       }
  87              		.loc 1 52 2 is_stmt 1 view .LVU23
  52:u8g2/csrc/u8x8_u8toa.c ****       }
  88              		.loc 1 52 3 is_stmt 0 view .LVU24
  89 0020 0133     		adds	r3, r3, #1
  90              	.LVL10:
  52:u8g2/csrc/u8x8_u8toa.c ****       }
  91              		.loc 1 52 3 view .LVU25
  92 0022 DBB2     		uxtb	r3, r3
  93              	.LVL11:
  52:u8g2/csrc/u8x8_u8toa.c ****       }
  94              		.loc 1 52 3 view .LVU26
  95 0024 F8E7     		b	.L3
  96              	.LVL12:
  97              	.L7:
  55:u8g2/csrc/u8x8_u8toa.c ****   }  
  56:u8g2/csrc/u8x8_u8toa.c ****   dest[3] = '\0';
  98              		.loc 1 56 3 is_stmt 1 view .LVU27
  99              		.loc 1 56 11 is_stmt 0 view .LVU28
ARM GAS  C:\Users\behun\AppData\Local\Temp\cc1glhMR.s 			page 4


 100 0026 0023     		movs	r3, #0
 101 0028 C370     		strb	r3, [r0, #3]
  57:u8g2/csrc/u8x8_u8toa.c ****   return dest;
 102              		.loc 1 57 3 is_stmt 1 view .LVU29
  58:u8g2/csrc/u8x8_u8toa.c **** }
 103              		.loc 1 58 1 is_stmt 0 view .LVU30
 104 002a 30BC     		pop	{r4, r5}
 105              	.LCFI1:
 106              		.cfi_restore 5
 107              		.cfi_restore 4
 108              		.cfi_def_cfa_offset 0
 109              	.LVL13:
 110              		.loc 1 58 1 view .LVU31
 111 002c 7047     		bx	lr
 112              	.L10:
 113 002e 00BF     		.align	2
 114              	.L9:
 115 0030 00000000 		.word	.LANCHOR0
 116              		.cfi_endproc
 117              	.LFE0:
 119              		.section	.text.u8x8_u8toa,"ax",%progbits
 120              		.align	1
 121              		.global	u8x8_u8toa
 122              		.syntax unified
 123              		.thumb
 124              		.thumb_func
 125              		.fpu softvfp
 127              	u8x8_u8toa:
 128              	.LVL14:
 129              	.LFB1:
  59:u8g2/csrc/u8x8_u8toa.c **** 
  60:u8g2/csrc/u8x8_u8toa.c **** /* v = value, d = number of digits */
  61:u8g2/csrc/u8x8_u8toa.c **** const char *u8x8_u8toa(uint8_t v, uint8_t d)
  62:u8g2/csrc/u8x8_u8toa.c **** {
 130              		.loc 1 62 1 is_stmt 1 view -0
 131              		.cfi_startproc
 132              		@ args = 0, pretend = 0, frame = 0
 133              		@ frame_needed = 0, uses_anonymous_args = 0
 134              		.loc 1 62 1 is_stmt 0 view .LVU33
 135 0000 10B5     		push	{r4, lr}
 136              	.LCFI2:
 137              		.cfi_def_cfa_offset 8
 138              		.cfi_offset 4, -8
 139              		.cfi_offset 14, -4
  63:u8g2/csrc/u8x8_u8toa.c ****   static char buf[4];
 140              		.loc 1 63 3 is_stmt 1 view .LVU34
  64:u8g2/csrc/u8x8_u8toa.c ****   d = 3-d;
 141              		.loc 1 64 3 view .LVU35
 142              		.loc 1 64 5 is_stmt 0 view .LVU36
 143 0002 C1F10301 		rsb	r1, r1, #3
 144              	.LVL15:
 145              		.loc 1 64 5 view .LVU37
 146 0006 CCB2     		uxtb	r4, r1
 147              	.LVL16:
  65:u8g2/csrc/u8x8_u8toa.c ****   return u8x8_u8toap(buf, v) + d;
 148              		.loc 1 65 3 is_stmt 1 view .LVU38
 149              		.loc 1 65 10 is_stmt 0 view .LVU39
ARM GAS  C:\Users\behun\AppData\Local\Temp\cc1glhMR.s 			page 5


 150 0008 0146     		mov	r1, r0
 151 000a 0248     		ldr	r0, .L13
 152              	.LVL17:
 153              		.loc 1 65 10 view .LVU40
 154 000c FFF7FEFF 		bl	u8x8_u8toap
 155              	.LVL18:
  66:u8g2/csrc/u8x8_u8toa.c **** }
 156              		.loc 1 66 1 view .LVU41
 157 0010 2044     		add	r0, r0, r4
 158 0012 10BD     		pop	{r4, pc}
 159              	.LVL19:
 160              	.L14:
 161              		.loc 1 66 1 view .LVU42
 162              		.align	2
 163              	.L13:
 164 0014 00000000 		.word	.LANCHOR1
 165              		.cfi_endproc
 166              	.LFE1:
 168              		.section	.bss.buf.5088,"aw",%nobits
 169              		.align	2
 170              		.set	.LANCHOR1,. + 0
 173              	buf.5088:
 174 0000 00000000 		.space	4
 175              		.section	.rodata.u8x8_u8toa_tab,"a"
 176              		.align	2
 177              		.set	.LANCHOR0,. + 0
 180              	u8x8_u8toa_tab:
 181 0000 64       		.byte	100
 182 0001 0A       		.byte	10
 183 0002 01       		.byte	1
 184              		.text
 185              	.Letext0:
 186              		.file 2 "c:\\program files (x86)\\gnu tools arm embedded\\8 2019-q3-update\\arm-none-eabi\\include
 187              		.file 3 "c:\\program files (x86)\\gnu tools arm embedded\\8 2019-q3-update\\arm-none-eabi\\include
 188              		.file 4 "u8g2/csrc/u8x8.h"
ARM GAS  C:\Users\behun\AppData\Local\Temp\cc1glhMR.s 			page 6

