ARM GAS  /var/folders/rk/zpr83dd14lx588t7kb0yv2b40000gn/T//cclR2p7S.s 			page 1


   1              		.cpu cortex-m3
   2              		.eabi_attribute 20, 1
   3              		.eabi_attribute 21, 1
   4              		.eabi_attribute 23, 3
   5              		.eabi_attribute 24, 1
   6              		.eabi_attribute 25, 1
   7              		.eabi_attribute 26, 1
   8              		.eabi_attribute 30, 1
   9              		.eabi_attribute 34, 1
  10              		.eabi_attribute 18, 4
  11              		.file	"u8x8_d_a2printer.c"
  12              		.text
  13              	.Ltext0:
  14              		.cfi_sections	.debug_frame
  15              		.section	.text.get_delay_in_milliseconds,"ax",%progbits
  16              		.align	1
  17              		.global	get_delay_in_milliseconds
  18              		.syntax unified
  19              		.thumb
  20              		.thumb_func
  21              		.fpu softvfp
  23              	get_delay_in_milliseconds:
  24              	.LFB0:
  25              		.file 1 "u8g2/csrc/u8x8_d_a2printer.c"
   1:u8g2/csrc/u8x8_d_a2printer.c **** /*
   2:u8g2/csrc/u8x8_d_a2printer.c **** 
   3:u8g2/csrc/u8x8_d_a2printer.c ****   u8x8_d_a2printer.c
   4:u8g2/csrc/u8x8_d_a2printer.c ****   
   5:u8g2/csrc/u8x8_d_a2printer.c ****   Universal 8bit Graphics Library (https://github.com/olikraus/u8g2/)
   6:u8g2/csrc/u8x8_d_a2printer.c **** 
   7:u8g2/csrc/u8x8_d_a2printer.c ****   Copyright (c) 2016, olikraus@gmail.com
   8:u8g2/csrc/u8x8_d_a2printer.c ****   All rights reserved.
   9:u8g2/csrc/u8x8_d_a2printer.c **** 
  10:u8g2/csrc/u8x8_d_a2printer.c ****   Redistribution and use in source and binary forms, with or without modification, 
  11:u8g2/csrc/u8x8_d_a2printer.c ****   are permitted provided that the following conditions are met:
  12:u8g2/csrc/u8x8_d_a2printer.c **** 
  13:u8g2/csrc/u8x8_d_a2printer.c ****   * Redistributions of source code must retain the above copyright notice, this list 
  14:u8g2/csrc/u8x8_d_a2printer.c ****     of conditions and the following disclaimer.
  15:u8g2/csrc/u8x8_d_a2printer.c ****     
  16:u8g2/csrc/u8x8_d_a2printer.c ****   * Redistributions in binary form must reproduce the above copyright notice, this 
  17:u8g2/csrc/u8x8_d_a2printer.c ****     list of conditions and the following disclaimer in the documentation and/or other 
  18:u8g2/csrc/u8x8_d_a2printer.c ****     materials provided with the distribution.
  19:u8g2/csrc/u8x8_d_a2printer.c **** 
  20:u8g2/csrc/u8x8_d_a2printer.c ****   THIS SOFTWARE IS PROVIDED BY THE COPYRIGHT HOLDERS AND 
  21:u8g2/csrc/u8x8_d_a2printer.c ****   CONTRIBUTORS "AS IS" AND ANY EXPRESS OR IMPLIED WARRANTIES, 
  22:u8g2/csrc/u8x8_d_a2printer.c ****   INCLUDING, BUT NOT LIMITED TO, THE IMPLIED WARRANTIES OF 
  23:u8g2/csrc/u8x8_d_a2printer.c ****   MERCHANTABILITY AND FITNESS FOR A PARTICULAR PURPOSE ARE 
  24:u8g2/csrc/u8x8_d_a2printer.c ****   DISCLAIMED. IN NO EVENT SHALL THE COPYRIGHT HOLDER OR 
  25:u8g2/csrc/u8x8_d_a2printer.c ****   CONTRIBUTORS BE LIABLE FOR ANY DIRECT, INDIRECT, INCIDENTAL, 
  26:u8g2/csrc/u8x8_d_a2printer.c ****   SPECIAL, EXEMPLARY, OR CONSEQUENTIAL DAMAGES (INCLUDING, BUT 
  27:u8g2/csrc/u8x8_d_a2printer.c ****   NOT LIMITED TO, PROCUREMENT OF SUBSTITUTE GOODS OR SERVICES; 
  28:u8g2/csrc/u8x8_d_a2printer.c ****   LOSS OF USE, DATA, OR PROFITS; OR BUSINESS INTERRUPTION) HOWEVER 
  29:u8g2/csrc/u8x8_d_a2printer.c ****   CAUSED AND ON ANY THEORY OF LIABILITY, WHETHER IN CONTRACT, 
  30:u8g2/csrc/u8x8_d_a2printer.c ****   STRICT LIABILITY, OR TORT (INCLUDING NEGLIGENCE OR OTHERWISE) 
  31:u8g2/csrc/u8x8_d_a2printer.c ****   ARISING IN ANY WAY OUT OF THE USE OF THIS SOFTWARE, EVEN IF 
  32:u8g2/csrc/u8x8_d_a2printer.c ****   ADVISED OF THE POSSIBILITY OF SUCH DAMAGE.  
  33:u8g2/csrc/u8x8_d_a2printer.c **** 
ARM GAS  /var/folders/rk/zpr83dd14lx588t7kb0yv2b40000gn/T//cclR2p7S.s 			page 2


  34:u8g2/csrc/u8x8_d_a2printer.c **** 
  35:u8g2/csrc/u8x8_d_a2printer.c ****   Use DC2 bitmap command of the A2 Micro panel termal printer
  36:u8g2/csrc/u8x8_d_a2printer.c ****   double stroke
  37:u8g2/csrc/u8x8_d_a2printer.c ****   
  38:u8g2/csrc/u8x8_d_a2printer.c ****   
  39:u8g2/csrc/u8x8_d_a2printer.c **** */
  40:u8g2/csrc/u8x8_d_a2printer.c **** 
  41:u8g2/csrc/u8x8_d_a2printer.c **** 
  42:u8g2/csrc/u8x8_d_a2printer.c **** #include "u8x8.h"
  43:u8g2/csrc/u8x8_d_a2printer.c **** 
  44:u8g2/csrc/u8x8_d_a2printer.c **** #define LINE_MIN_DELAY_MS 15
  45:u8g2/csrc/u8x8_d_a2printer.c **** /* higher values improve quality */
  46:u8g2/csrc/u8x8_d_a2printer.c **** /* however if the value is too high (>=5) then form feed does not work any more */
  47:u8g2/csrc/u8x8_d_a2printer.c **** #define LINE_EXTRA_8PIXEL_DELAY_MS 3
  48:u8g2/csrc/u8x8_d_a2printer.c **** /* this must be a power of two and between 1 and 8 */
  49:u8g2/csrc/u8x8_d_a2printer.c **** /* best quality only with 1 */
  50:u8g2/csrc/u8x8_d_a2printer.c **** #define NO_OF_LINES_TO_SEND_WITHOUT_DELAY 1
  51:u8g2/csrc/u8x8_d_a2printer.c **** 
  52:u8g2/csrc/u8x8_d_a2printer.c **** /* calculates the delay, based on the number of black pixel */
  53:u8g2/csrc/u8x8_d_a2printer.c **** /* actually only "none-zero" bytes are calculated which is, of course not so accurate, but should b
  54:u8g2/csrc/u8x8_d_a2printer.c **** uint16_t get_delay_in_milliseconds(uint8_t cnt, uint8_t *data)
  55:u8g2/csrc/u8x8_d_a2printer.c **** {
  26              		.loc 1 55 0
  27              		.cfi_startproc
  28              		@ args = 0, pretend = 0, frame = 0
  29              		@ frame_needed = 0, uses_anonymous_args = 0
  30              		@ link register save eliminated.
  31              	.LVL0:
  56:u8g2/csrc/u8x8_d_a2printer.c ****   uint8_t i;
  57:u8g2/csrc/u8x8_d_a2printer.c ****   uint16_t time = LINE_MIN_DELAY_MS;
  32              		.loc 1 57 0
  33 0000 0F22     		movs	r2, #15
  58:u8g2/csrc/u8x8_d_a2printer.c ****   for ( i = 0; i < cnt; i++ )
  34              		.loc 1 58 0
  35 0002 0023     		movs	r3, #0
  36              	.LVL1:
  37 0004 8342     		cmp	r3, r0
  38 0006 0ED2     		bcs	.L9
  55:u8g2/csrc/u8x8_d_a2printer.c ****   uint8_t i;
  39              		.loc 1 55 0
  40 0008 10B4     		push	{r4}
  41              	.LCFI0:
  42              		.cfi_def_cfa_offset 4
  43              		.cfi_offset 4, -4
  44 000a 03E0     		b	.L4
  45              	.L3:
  46              		.loc 1 58 0 discriminator 2
  47 000c 0133     		adds	r3, r3, #1
  48              	.LVL2:
  49 000e DBB2     		uxtb	r3, r3
  50              	.LVL3:
  51 0010 8342     		cmp	r3, r0
  52 0012 05D2     		bcs	.L10
  53              	.L4:
  59:u8g2/csrc/u8x8_d_a2printer.c ****     if ( data[i] != 0 )
  54              		.loc 1 59 0
  55 0014 CC5C     		ldrb	r4, [r1, r3]	@ zero_extendqisi2
ARM GAS  /var/folders/rk/zpr83dd14lx588t7kb0yv2b40000gn/T//cclR2p7S.s 			page 3


  56 0016 002C     		cmp	r4, #0
  57 0018 F8D0     		beq	.L3
  60:u8g2/csrc/u8x8_d_a2printer.c ****       time += LINE_EXTRA_8PIXEL_DELAY_MS;
  58              		.loc 1 60 0
  59 001a 0332     		adds	r2, r2, #3
  60              	.LVL4:
  61 001c 92B2     		uxth	r2, r2
  62              	.LVL5:
  63 001e F5E7     		b	.L3
  64              	.L10:
  61:u8g2/csrc/u8x8_d_a2printer.c ****   return time;
  62:u8g2/csrc/u8x8_d_a2printer.c **** }
  65              		.loc 1 62 0
  66 0020 1046     		mov	r0, r2
  67              	.LVL6:
  68 0022 10BC     		pop	{r4}
  69              	.LCFI1:
  70              		.cfi_restore 4
  71              		.cfi_def_cfa_offset 0
  72 0024 7047     		bx	lr
  73              	.LVL7:
  74              	.L9:
  75 0026 1046     		mov	r0, r2
  76              	.LVL8:
  77 0028 7047     		bx	lr
  78              		.cfi_endproc
  79              	.LFE0:
  81              		.section	.text.u8x8_d_a2printer_common,"ax",%progbits
  82              		.align	1
  83              		.global	u8x8_d_a2printer_common
  84              		.syntax unified
  85              		.thumb
  86              		.thumb_func
  87              		.fpu softvfp
  89              	u8x8_d_a2printer_common:
  90              	.LFB1:
  63:u8g2/csrc/u8x8_d_a2printer.c **** 
  64:u8g2/csrc/u8x8_d_a2printer.c **** uint8_t u8x8_d_a2printer_common(u8x8_t *u8x8, uint8_t msg, U8X8_UNUSED uint8_t arg_int, void *arg_p
  65:u8g2/csrc/u8x8_d_a2printer.c **** {
  91              		.loc 1 65 0
  92              		.cfi_startproc
  93              		@ args = 0, pretend = 0, frame = 0
  94              		@ frame_needed = 0, uses_anonymous_args = 0
  95              	.LVL9:
  66:u8g2/csrc/u8x8_d_a2printer.c ****   uint8_t c, i, j;
  67:u8g2/csrc/u8x8_d_a2printer.c ****   uint8_t *ptr;
  68:u8g2/csrc/u8x8_d_a2printer.c ****   uint16_t delay_in_milliseconds;
  69:u8g2/csrc/u8x8_d_a2printer.c ****   switch(msg)
  96              		.loc 1 69 0
  97 0000 0B29     		cmp	r1, #11
  98 0002 7CD0     		beq	.L21
  65:u8g2/csrc/u8x8_d_a2printer.c ****   uint8_t c, i, j;
  99              		.loc 1 65 0
 100 0004 2DE9F843 		push	{r3, r4, r5, r6, r7, r8, r9, lr}
 101              	.LCFI2:
 102              		.cfi_def_cfa_offset 32
 103              		.cfi_offset 3, -32
ARM GAS  /var/folders/rk/zpr83dd14lx588t7kb0yv2b40000gn/T//cclR2p7S.s 			page 4


 104              		.cfi_offset 4, -28
 105              		.cfi_offset 5, -24
 106              		.cfi_offset 6, -20
 107              		.cfi_offset 7, -16
 108              		.cfi_offset 8, -12
 109              		.cfi_offset 9, -8
 110              		.cfi_offset 14, -4
 111 0008 1C46     		mov	r4, r3
 112 000a 0546     		mov	r5, r0
 113              		.loc 1 69 0
 114 000c 0F29     		cmp	r1, #15
 115 000e 08D0     		beq	.L14
 116 0010 0A29     		cmp	r1, #10
 117 0012 02D0     		beq	.L15
  70:u8g2/csrc/u8x8_d_a2printer.c ****   {
  71:u8g2/csrc/u8x8_d_a2printer.c ****     /* U8X8_MSG_DISPLAY_SETUP_MEMORY is handled by the calling function */
  72:u8g2/csrc/u8x8_d_a2printer.c ****     /*
  73:u8g2/csrc/u8x8_d_a2printer.c ****     case U8X8_MSG_DISPLAY_SETUP_MEMORY:
  74:u8g2/csrc/u8x8_d_a2printer.c ****       break;
  75:u8g2/csrc/u8x8_d_a2printer.c ****     */
  76:u8g2/csrc/u8x8_d_a2printer.c ****     case U8X8_MSG_DISPLAY_INIT:
  77:u8g2/csrc/u8x8_d_a2printer.c ****       u8x8_d_helper_display_init(u8x8);
  78:u8g2/csrc/u8x8_d_a2printer.c ****       // no setup required
  79:u8g2/csrc/u8x8_d_a2printer.c ****       // u8x8_cad_SendSequence(u8x8, u8x8_d_a2printer_init_seq);
  80:u8g2/csrc/u8x8_d_a2printer.c ****       break;
  81:u8g2/csrc/u8x8_d_a2printer.c ****     case U8X8_MSG_DISPLAY_SET_POWER_SAVE:
  82:u8g2/csrc/u8x8_d_a2printer.c ****       // no powersave 
  83:u8g2/csrc/u8x8_d_a2printer.c ****       break;
  84:u8g2/csrc/u8x8_d_a2printer.c ****     case U8X8_MSG_DISPLAY_DRAW_TILE:
  85:u8g2/csrc/u8x8_d_a2printer.c ****       u8x8_cad_StartTransfer(u8x8);
  86:u8g2/csrc/u8x8_d_a2printer.c ****       
  87:u8g2/csrc/u8x8_d_a2printer.c ****       u8x8_cad_SendCmd(u8x8, 27);      /* ESC */
  88:u8g2/csrc/u8x8_d_a2printer.c ****       u8x8_cad_SendCmd(u8x8, 55 );      /* parameter command */
  89:u8g2/csrc/u8x8_d_a2printer.c ****       /* increasing the "max printing dots" requires a good power supply, but LINE_EXTRA_8PIXEL_DEL
  90:u8g2/csrc/u8x8_d_a2printer.c ****       u8x8_cad_SendCmd(u8x8, 0);      /* Max printing dots,Unit(8dots),Default:7(64 dots) 8*(x+1) .
  91:u8g2/csrc/u8x8_d_a2printer.c ****       u8x8_cad_SendCmd(u8x8, 200);      /* 3-255 Heating time,Unit(10us),Default:80(800us) */
  92:u8g2/csrc/u8x8_d_a2printer.c ****       u8x8_cad_SendCmd(u8x8, 2);      /* 0-255 Heating interval,Unit(10us),Default:2(20us) ... does
  93:u8g2/csrc/u8x8_d_a2printer.c ****       
  94:u8g2/csrc/u8x8_d_a2printer.c ****       //c = ((u8x8_tile_t *)arg_ptr)->cnt;	/* number of tiles */
  95:u8g2/csrc/u8x8_d_a2printer.c ****       c = u8x8->display_info->tile_width;
  96:u8g2/csrc/u8x8_d_a2printer.c ****       ptr = ((u8x8_tile_t *)arg_ptr)->tile_ptr;	/* data ptr to the tiles */
  97:u8g2/csrc/u8x8_d_a2printer.c ****     
  98:u8g2/csrc/u8x8_d_a2printer.c ****       u8x8_cad_SendCmd(u8x8, 18);      /* DC2 */
  99:u8g2/csrc/u8x8_d_a2printer.c ****       u8x8_cad_SendCmd(u8x8, 42 );      /* *  */
 100:u8g2/csrc/u8x8_d_a2printer.c ****       u8x8_cad_SendCmd(u8x8, 8 ); 	/* height */
 101:u8g2/csrc/u8x8_d_a2printer.c ****       u8x8_cad_SendCmd(u8x8, c ); 	/* c, u8x8->display_info->tile_width */
 102:u8g2/csrc/u8x8_d_a2printer.c ****       
 103:u8g2/csrc/u8x8_d_a2printer.c ****       for( j = 0; j < 8 / NO_OF_LINES_TO_SEND_WITHOUT_DELAY; j ++ )
 104:u8g2/csrc/u8x8_d_a2printer.c ****       {
 105:u8g2/csrc/u8x8_d_a2printer.c **** 
 106:u8g2/csrc/u8x8_d_a2printer.c **** 	delay_in_milliseconds = 0;
 107:u8g2/csrc/u8x8_d_a2printer.c **** 	for( i = 0; i < NO_OF_LINES_TO_SEND_WITHOUT_DELAY; i++ )
 108:u8g2/csrc/u8x8_d_a2printer.c **** 	{
 109:u8g2/csrc/u8x8_d_a2printer.c **** 	  u8x8_cad_SendData(u8x8, c, ptr);	/* c, note: SendData can not handle more than 255 bytes, send o
 110:u8g2/csrc/u8x8_d_a2printer.c **** 	  delay_in_milliseconds += get_delay_in_milliseconds(c, ptr);
 111:u8g2/csrc/u8x8_d_a2printer.c **** 	  ptr += c;
 112:u8g2/csrc/u8x8_d_a2printer.c **** 	}
ARM GAS  /var/folders/rk/zpr83dd14lx588t7kb0yv2b40000gn/T//cclR2p7S.s 			page 5


 113:u8g2/csrc/u8x8_d_a2printer.c **** 	
 114:u8g2/csrc/u8x8_d_a2printer.c **** 	while( delay_in_milliseconds > 200 )
 115:u8g2/csrc/u8x8_d_a2printer.c **** 	{
 116:u8g2/csrc/u8x8_d_a2printer.c **** 	  u8x8->gpio_and_delay_cb(u8x8, U8X8_MSG_DELAY_MILLI, 200, NULL);	
 117:u8g2/csrc/u8x8_d_a2printer.c **** 	  delay_in_milliseconds -= 200;
 118:u8g2/csrc/u8x8_d_a2printer.c **** 	}
 119:u8g2/csrc/u8x8_d_a2printer.c **** 	u8x8->gpio_and_delay_cb(u8x8, U8X8_MSG_DELAY_MILLI, delay_in_milliseconds, NULL);	
 120:u8g2/csrc/u8x8_d_a2printer.c ****       }
 121:u8g2/csrc/u8x8_d_a2printer.c **** 
 122:u8g2/csrc/u8x8_d_a2printer.c ****       /* set parameters back to their default values */
 123:u8g2/csrc/u8x8_d_a2printer.c ****       u8x8_cad_SendCmd(u8x8, 27);      /* ESC */
 124:u8g2/csrc/u8x8_d_a2printer.c ****       u8x8_cad_SendCmd(u8x8, 55 );      /* parameter command */
 125:u8g2/csrc/u8x8_d_a2printer.c ****       u8x8_cad_SendCmd(u8x8, 7);      /* Max printing dots,Unit(8dots),Default:7(64 dots) 8*(x+1)*/
 126:u8g2/csrc/u8x8_d_a2printer.c ****       u8x8_cad_SendCmd(u8x8, 80);      /* 3-255 Heating time,Unit(10us),Default:80(800us) */
 127:u8g2/csrc/u8x8_d_a2printer.c ****       u8x8_cad_SendCmd(u8x8, 2);      /* 0-255 Heating interval,Unit(10us),Default:2(20us)*/
 128:u8g2/csrc/u8x8_d_a2printer.c **** 
 129:u8g2/csrc/u8x8_d_a2printer.c ****       u8x8_cad_EndTransfer(u8x8);
 130:u8g2/csrc/u8x8_d_a2printer.c **** 
 131:u8g2/csrc/u8x8_d_a2printer.c ****       break;
 132:u8g2/csrc/u8x8_d_a2printer.c ****     default:
 133:u8g2/csrc/u8x8_d_a2printer.c ****       return 0;
 118              		.loc 1 133 0
 119 0014 0020     		movs	r0, #0
 120              	.LVL10:
 121              	.L13:
 134:u8g2/csrc/u8x8_d_a2printer.c ****   }
 135:u8g2/csrc/u8x8_d_a2printer.c ****   return 1;
 136:u8g2/csrc/u8x8_d_a2printer.c **** }
 122              		.loc 1 136 0
 123 0016 BDE8F883 		pop	{r3, r4, r5, r6, r7, r8, r9, pc}
 124              	.LVL11:
 125              	.L15:
  77:u8g2/csrc/u8x8_d_a2printer.c ****       // no setup required
 126              		.loc 1 77 0
 127 001a FFF7FEFF 		bl	u8x8_d_helper_display_init
 128              	.LVL12:
 135:u8g2/csrc/u8x8_d_a2printer.c **** }
 129              		.loc 1 135 0
 130 001e 0120     		movs	r0, #1
  80:u8g2/csrc/u8x8_d_a2printer.c ****     case U8X8_MSG_DISPLAY_SET_POWER_SAVE:
 131              		.loc 1 80 0
 132 0020 F9E7     		b	.L13
 133              	.LVL13:
 134              	.L14:
  85:u8g2/csrc/u8x8_d_a2printer.c ****       
 135              		.loc 1 85 0
 136 0022 FFF7FEFF 		bl	u8x8_cad_StartTransfer
 137              	.LVL14:
  87:u8g2/csrc/u8x8_d_a2printer.c ****       u8x8_cad_SendCmd(u8x8, 55 );      /* parameter command */
 138              		.loc 1 87 0
 139 0026 1B21     		movs	r1, #27
 140 0028 2846     		mov	r0, r5
 141 002a FFF7FEFF 		bl	u8x8_cad_SendCmd
 142              	.LVL15:
  88:u8g2/csrc/u8x8_d_a2printer.c ****       /* increasing the "max printing dots" requires a good power supply, but LINE_EXTRA_8PIXEL_DEL
 143              		.loc 1 88 0
 144 002e 3721     		movs	r1, #55
ARM GAS  /var/folders/rk/zpr83dd14lx588t7kb0yv2b40000gn/T//cclR2p7S.s 			page 6


 145 0030 2846     		mov	r0, r5
 146 0032 FFF7FEFF 		bl	u8x8_cad_SendCmd
 147              	.LVL16:
  90:u8g2/csrc/u8x8_d_a2printer.c ****       u8x8_cad_SendCmd(u8x8, 200);      /* 3-255 Heating time,Unit(10us),Default:80(800us) */
 148              		.loc 1 90 0
 149 0036 0021     		movs	r1, #0
 150 0038 2846     		mov	r0, r5
 151 003a FFF7FEFF 		bl	u8x8_cad_SendCmd
 152              	.LVL17:
  91:u8g2/csrc/u8x8_d_a2printer.c ****       u8x8_cad_SendCmd(u8x8, 2);      /* 0-255 Heating interval,Unit(10us),Default:2(20us) ... does
 153              		.loc 1 91 0
 154 003e C821     		movs	r1, #200
 155 0040 2846     		mov	r0, r5
 156 0042 FFF7FEFF 		bl	u8x8_cad_SendCmd
 157              	.LVL18:
  92:u8g2/csrc/u8x8_d_a2printer.c ****       
 158              		.loc 1 92 0
 159 0046 0221     		movs	r1, #2
 160 0048 2846     		mov	r0, r5
 161 004a FFF7FEFF 		bl	u8x8_cad_SendCmd
 162              	.LVL19:
  95:u8g2/csrc/u8x8_d_a2printer.c ****       ptr = ((u8x8_tile_t *)arg_ptr)->tile_ptr;	/* data ptr to the tiles */
 163              		.loc 1 95 0
 164 004e 2B68     		ldr	r3, [r5]
 165 0050 93F81090 		ldrb	r9, [r3, #16]	@ zero_extendqisi2
 166              	.LVL20:
  96:u8g2/csrc/u8x8_d_a2printer.c ****     
 167              		.loc 1 96 0
 168 0054 D4F80080 		ldr	r8, [r4]
 169              	.LVL21:
  98:u8g2/csrc/u8x8_d_a2printer.c ****       u8x8_cad_SendCmd(u8x8, 42 );      /* *  */
 170              		.loc 1 98 0
 171 0058 1221     		movs	r1, #18
 172 005a 2846     		mov	r0, r5
 173 005c FFF7FEFF 		bl	u8x8_cad_SendCmd
 174              	.LVL22:
  99:u8g2/csrc/u8x8_d_a2printer.c ****       u8x8_cad_SendCmd(u8x8, 8 ); 	/* height */
 175              		.loc 1 99 0
 176 0060 2A21     		movs	r1, #42
 177 0062 2846     		mov	r0, r5
 178 0064 FFF7FEFF 		bl	u8x8_cad_SendCmd
 179              	.LVL23:
 100:u8g2/csrc/u8x8_d_a2printer.c ****       u8x8_cad_SendCmd(u8x8, c ); 	/* c, u8x8->display_info->tile_width */
 180              		.loc 1 100 0
 181 0068 0821     		movs	r1, #8
 182 006a 2846     		mov	r0, r5
 183 006c FFF7FEFF 		bl	u8x8_cad_SendCmd
 184              	.LVL24:
 101:u8g2/csrc/u8x8_d_a2printer.c ****       
 185              		.loc 1 101 0
 186 0070 4946     		mov	r1, r9
 187 0072 2846     		mov	r0, r5
 188 0074 FFF7FEFF 		bl	u8x8_cad_SendCmd
 189              	.LVL25:
 103:u8g2/csrc/u8x8_d_a2printer.c ****       {
 190              		.loc 1 103 0
 191 0078 0027     		movs	r7, #0
ARM GAS  /var/folders/rk/zpr83dd14lx588t7kb0yv2b40000gn/T//cclR2p7S.s 			page 7


 192 007a 22E0     		b	.L16
 193              	.LVL26:
 194              	.L17:
 109:u8g2/csrc/u8x8_d_a2printer.c **** 	  delay_in_milliseconds += get_delay_in_milliseconds(c, ptr);
 195              		.loc 1 109 0 discriminator 3
 196 007c 4246     		mov	r2, r8
 197 007e 4946     		mov	r1, r9
 198 0080 2846     		mov	r0, r5
 199 0082 FFF7FEFF 		bl	u8x8_cad_SendData
 200              	.LVL27:
 110:u8g2/csrc/u8x8_d_a2printer.c **** 	  ptr += c;
 201              		.loc 1 110 0 discriminator 3
 202 0086 4146     		mov	r1, r8
 203 0088 4846     		mov	r0, r9
 204 008a FFF7FEFF 		bl	get_delay_in_milliseconds
 205              	.LVL28:
 206 008e 0444     		add	r4, r4, r0
 207              	.LVL29:
 208 0090 A4B2     		uxth	r4, r4
 209              	.LVL30:
 111:u8g2/csrc/u8x8_d_a2printer.c **** 	}
 210              		.loc 1 111 0 discriminator 3
 211 0092 C844     		add	r8, r8, r9
 212              	.LVL31:
 107:u8g2/csrc/u8x8_d_a2printer.c **** 	{
 213              		.loc 1 107 0 discriminator 3
 214 0094 0136     		adds	r6, r6, #1
 215              	.LVL32:
 216 0096 F6B2     		uxtb	r6, r6
 217              	.LVL33:
 218              	.L20:
 107:u8g2/csrc/u8x8_d_a2printer.c **** 	{
 219              		.loc 1 107 0 is_stmt 0 discriminator 1
 220 0098 002E     		cmp	r6, #0
 221 009a EFD0     		beq	.L17
 222 009c 07E0     		b	.L18
 223              	.LVL34:
 224              	.L19:
 116:u8g2/csrc/u8x8_d_a2printer.c **** 	  delay_in_milliseconds -= 200;
 225              		.loc 1 116 0 is_stmt 1
 226 009e 6E69     		ldr	r6, [r5, #20]
 227 00a0 0023     		movs	r3, #0
 228 00a2 C822     		movs	r2, #200
 229 00a4 2921     		movs	r1, #41
 230 00a6 2846     		mov	r0, r5
 231 00a8 B047     		blx	r6
 232              	.LVL35:
 117:u8g2/csrc/u8x8_d_a2printer.c **** 	}
 233              		.loc 1 117 0
 234 00aa C83C     		subs	r4, r4, #200
 235              	.LVL36:
 236 00ac A4B2     		uxth	r4, r4
 237              	.LVL37:
 238              	.L18:
 114:u8g2/csrc/u8x8_d_a2printer.c **** 	{
 239              		.loc 1 114 0
 240 00ae C82C     		cmp	r4, #200
ARM GAS  /var/folders/rk/zpr83dd14lx588t7kb0yv2b40000gn/T//cclR2p7S.s 			page 8


 241 00b0 F5D8     		bhi	.L19
 119:u8g2/csrc/u8x8_d_a2printer.c ****       }
 242              		.loc 1 119 0 discriminator 2
 243 00b2 6E69     		ldr	r6, [r5, #20]
 244 00b4 0023     		movs	r3, #0
 245 00b6 E2B2     		uxtb	r2, r4
 246 00b8 2921     		movs	r1, #41
 247 00ba 2846     		mov	r0, r5
 248 00bc B047     		blx	r6
 249              	.LVL38:
 103:u8g2/csrc/u8x8_d_a2printer.c ****       {
 250              		.loc 1 103 0 discriminator 2
 251 00be 0137     		adds	r7, r7, #1
 252              	.LVL39:
 253 00c0 FFB2     		uxtb	r7, r7
 254              	.LVL40:
 255              	.L16:
 103:u8g2/csrc/u8x8_d_a2printer.c ****       {
 256              		.loc 1 103 0 is_stmt 0 discriminator 1
 257 00c2 072F     		cmp	r7, #7
 258 00c4 02D8     		bhi	.L27
 106:u8g2/csrc/u8x8_d_a2printer.c **** 	for( i = 0; i < NO_OF_LINES_TO_SEND_WITHOUT_DELAY; i++ )
 259              		.loc 1 106 0 is_stmt 1
 260 00c6 0024     		movs	r4, #0
 107:u8g2/csrc/u8x8_d_a2printer.c **** 	{
 261              		.loc 1 107 0
 262 00c8 2646     		mov	r6, r4
 263 00ca E5E7     		b	.L20
 264              	.L27:
 123:u8g2/csrc/u8x8_d_a2printer.c ****       u8x8_cad_SendCmd(u8x8, 55 );      /* parameter command */
 265              		.loc 1 123 0
 266 00cc 1B21     		movs	r1, #27
 267 00ce 2846     		mov	r0, r5
 268 00d0 FFF7FEFF 		bl	u8x8_cad_SendCmd
 269              	.LVL41:
 124:u8g2/csrc/u8x8_d_a2printer.c ****       u8x8_cad_SendCmd(u8x8, 7);      /* Max printing dots,Unit(8dots),Default:7(64 dots) 8*(x+1)*/
 270              		.loc 1 124 0
 271 00d4 3721     		movs	r1, #55
 272 00d6 2846     		mov	r0, r5
 273 00d8 FFF7FEFF 		bl	u8x8_cad_SendCmd
 274              	.LVL42:
 125:u8g2/csrc/u8x8_d_a2printer.c ****       u8x8_cad_SendCmd(u8x8, 80);      /* 3-255 Heating time,Unit(10us),Default:80(800us) */
 275              		.loc 1 125 0
 276 00dc 0721     		movs	r1, #7
 277 00de 2846     		mov	r0, r5
 278 00e0 FFF7FEFF 		bl	u8x8_cad_SendCmd
 279              	.LVL43:
 126:u8g2/csrc/u8x8_d_a2printer.c ****       u8x8_cad_SendCmd(u8x8, 2);      /* 0-255 Heating interval,Unit(10us),Default:2(20us)*/
 280              		.loc 1 126 0
 281 00e4 5021     		movs	r1, #80
 282 00e6 2846     		mov	r0, r5
 283 00e8 FFF7FEFF 		bl	u8x8_cad_SendCmd
 284              	.LVL44:
 127:u8g2/csrc/u8x8_d_a2printer.c **** 
 285              		.loc 1 127 0
 286 00ec 0221     		movs	r1, #2
 287 00ee 2846     		mov	r0, r5
ARM GAS  /var/folders/rk/zpr83dd14lx588t7kb0yv2b40000gn/T//cclR2p7S.s 			page 9


 288 00f0 FFF7FEFF 		bl	u8x8_cad_SendCmd
 289              	.LVL45:
 129:u8g2/csrc/u8x8_d_a2printer.c **** 
 290              		.loc 1 129 0
 291 00f4 2846     		mov	r0, r5
 292 00f6 FFF7FEFF 		bl	u8x8_cad_EndTransfer
 293              	.LVL46:
 135:u8g2/csrc/u8x8_d_a2printer.c **** }
 294              		.loc 1 135 0
 295 00fa 0120     		movs	r0, #1
 131:u8g2/csrc/u8x8_d_a2printer.c ****     default:
 296              		.loc 1 131 0
 297 00fc 8BE7     		b	.L13
 298              	.LVL47:
 299              	.L21:
 300              	.LCFI3:
 301              		.cfi_def_cfa_offset 0
 302              		.cfi_restore 3
 303              		.cfi_restore 4
 304              		.cfi_restore 5
 305              		.cfi_restore 6
 306              		.cfi_restore 7
 307              		.cfi_restore 8
 308              		.cfi_restore 9
 309              		.cfi_restore 14
 135:u8g2/csrc/u8x8_d_a2printer.c **** }
 310              		.loc 1 135 0
 311 00fe 0120     		movs	r0, #1
 312              	.LVL48:
 313              		.loc 1 136 0
 314 0100 7047     		bx	lr
 315              		.cfi_endproc
 316              	.LFE1:
 318              		.section	.text.u8x8_d_a2printer_384x240,"ax",%progbits
 319              		.align	1
 320              		.global	u8x8_d_a2printer_384x240
 321              		.syntax unified
 322              		.thumb
 323              		.thumb_func
 324              		.fpu softvfp
 326              	u8x8_d_a2printer_384x240:
 327              	.LFB2:
 137:u8g2/csrc/u8x8_d_a2printer.c **** 
 138:u8g2/csrc/u8x8_d_a2printer.c **** 
 139:u8g2/csrc/u8x8_d_a2printer.c **** static const u8x8_display_info_t u8x8_a2printer_384x240_display_info =
 140:u8g2/csrc/u8x8_d_a2printer.c **** {
 141:u8g2/csrc/u8x8_d_a2printer.c ****   /* most of the settings are not required, because this is a serial RS232 printer */
 142:u8g2/csrc/u8x8_d_a2printer.c ****   
 143:u8g2/csrc/u8x8_d_a2printer.c ****   /* chip_enable_level = */ 1,
 144:u8g2/csrc/u8x8_d_a2printer.c ****   /* chip_disable_level = */ 0,
 145:u8g2/csrc/u8x8_d_a2printer.c ****   
 146:u8g2/csrc/u8x8_d_a2printer.c ****   /* post_chip_enable_wait_ns = */ 5,
 147:u8g2/csrc/u8x8_d_a2printer.c ****   /* pre_chip_disable_wait_ns = */ 5,
 148:u8g2/csrc/u8x8_d_a2printer.c ****   /* reset_pulse_width_ms = */ 1, 
 149:u8g2/csrc/u8x8_d_a2printer.c ****   /* post_reset_wait_ms = */ 6, 
 150:u8g2/csrc/u8x8_d_a2printer.c ****   /* sda_setup_time_ns = */ 20,		
 151:u8g2/csrc/u8x8_d_a2printer.c ****   /* sck_pulse_width_ns = */  140,	
ARM GAS  /var/folders/rk/zpr83dd14lx588t7kb0yv2b40000gn/T//cclR2p7S.s 			page 10


 152:u8g2/csrc/u8x8_d_a2printer.c ****   /* sck_clock_hz = */ 1000000UL,	/* since Arduino 1.6.0, the SPI bus speed in Hz. Should be  10000
 153:u8g2/csrc/u8x8_d_a2printer.c ****   /* spi_mode = */ 0,		/* old: sck_takeover_edge, new: active high (bit 1), rising edge (bit 0) */
 154:u8g2/csrc/u8x8_d_a2printer.c ****   /* i2c_bus_clock_100kHz = */ 4,
 155:u8g2/csrc/u8x8_d_a2printer.c ****   /* data_setup_time_ns = */ 30,
 156:u8g2/csrc/u8x8_d_a2printer.c ****   /* write_pulse_width_ns = */ 40,
 157:u8g2/csrc/u8x8_d_a2printer.c ****   /* tile_width = */ 48,
 158:u8g2/csrc/u8x8_d_a2printer.c ****   /* tile_hight = */ 30,
 159:u8g2/csrc/u8x8_d_a2printer.c ****   /* default_x_offset = */ 0,
 160:u8g2/csrc/u8x8_d_a2printer.c ****   /* flipmode_x_offset = */ 0,
 161:u8g2/csrc/u8x8_d_a2printer.c ****   /* pixel_width = */ 384,
 162:u8g2/csrc/u8x8_d_a2printer.c ****   /* pixel_height = */ 240
 163:u8g2/csrc/u8x8_d_a2printer.c **** };
 164:u8g2/csrc/u8x8_d_a2printer.c **** 
 165:u8g2/csrc/u8x8_d_a2printer.c **** uint8_t u8x8_d_a2printer_384x240(u8x8_t *u8x8, uint8_t msg, uint8_t arg_int, void *arg_ptr)
 166:u8g2/csrc/u8x8_d_a2printer.c **** {
 328              		.loc 1 166 0
 329              		.cfi_startproc
 330              		@ args = 0, pretend = 0, frame = 0
 331              		@ frame_needed = 0, uses_anonymous_args = 0
 332              	.LVL49:
 333 0000 08B5     		push	{r3, lr}
 334              	.LCFI4:
 335              		.cfi_def_cfa_offset 8
 336              		.cfi_offset 3, -8
 337              		.cfi_offset 14, -4
 167:u8g2/csrc/u8x8_d_a2printer.c ****   switch(msg)
 338              		.loc 1 167 0
 339 0002 0929     		cmp	r1, #9
 340 0004 02D0     		beq	.L34
 168:u8g2/csrc/u8x8_d_a2printer.c ****   {
 169:u8g2/csrc/u8x8_d_a2printer.c ****     case U8X8_MSG_DISPLAY_SETUP_MEMORY:
 170:u8g2/csrc/u8x8_d_a2printer.c ****       u8x8_d_helper_display_setup_memory(u8x8, &u8x8_a2printer_384x240_display_info);
 171:u8g2/csrc/u8x8_d_a2printer.c ****       break;
 172:u8g2/csrc/u8x8_d_a2printer.c ****     default:
 173:u8g2/csrc/u8x8_d_a2printer.c ****       return u8x8_d_a2printer_common(u8x8, msg, arg_int, arg_ptr);
 341              		.loc 1 173 0
 342 0006 FFF7FEFF 		bl	u8x8_d_a2printer_common
 343              	.LVL50:
 344              	.L31:
 174:u8g2/csrc/u8x8_d_a2printer.c ****   }
 175:u8g2/csrc/u8x8_d_a2printer.c ****   return 1;
 176:u8g2/csrc/u8x8_d_a2printer.c **** }
 345              		.loc 1 176 0
 346 000a 08BD     		pop	{r3, pc}
 347              	.LVL51:
 348              	.L34:
 170:u8g2/csrc/u8x8_d_a2printer.c ****       break;
 349              		.loc 1 170 0
 350 000c 0249     		ldr	r1, .L35
 351              	.LVL52:
 352 000e FFF7FEFF 		bl	u8x8_d_helper_display_setup_memory
 353              	.LVL53:
 175:u8g2/csrc/u8x8_d_a2printer.c **** }
 354              		.loc 1 175 0
 355 0012 0120     		movs	r0, #1
 356 0014 F9E7     		b	.L31
 357              	.L36:
ARM GAS  /var/folders/rk/zpr83dd14lx588t7kb0yv2b40000gn/T//cclR2p7S.s 			page 11


 358 0016 00BF     		.align	2
 359              	.L35:
 360 0018 00000000 		.word	.LANCHOR0
 361              		.cfi_endproc
 362              	.LFE2:
 364              		.section	.rodata.u8x8_a2printer_384x240_display_info,"a",%progbits
 365              		.align	2
 366              		.set	.LANCHOR0,. + 0
 369              	u8x8_a2printer_384x240_display_info:
 370 0000 01       		.byte	1
 371 0001 00       		.byte	0
 372 0002 05       		.byte	5
 373 0003 05       		.byte	5
 374 0004 01       		.byte	1
 375 0005 06       		.byte	6
 376 0006 14       		.byte	20
 377 0007 8C       		.byte	-116
 378 0008 40420F00 		.word	1000000
 379 000c 00       		.byte	0
 380 000d 04       		.byte	4
 381 000e 1E       		.byte	30
 382 000f 28       		.byte	40
 383 0010 30       		.byte	48
 384 0011 1E       		.byte	30
 385 0012 00       		.byte	0
 386 0013 00       		.byte	0
 387 0014 8001     		.short	384
 388 0016 F000     		.short	240
 389              		.text
 390              	.Letext0:
 391              		.file 2 "/usr/local/gcc_arm/gcc-arm-none-eabi-7-2017-q4-major/arm-none-eabi/include/machine/_defau
 392              		.file 3 "/usr/local/gcc_arm/gcc-arm-none-eabi-7-2017-q4-major/arm-none-eabi/include/sys/_stdint.h"
 393              		.file 4 "u8g2/csrc/u8x8.h"
ARM GAS  /var/folders/rk/zpr83dd14lx588t7kb0yv2b40000gn/T//cclR2p7S.s 			page 12

